
/home/mark/fi/dnn_llvm.out:     file format elf32-bigarm


Disassembly of section .intvecs:

00000000 <resetEntry>:
   0:	ea010c6c 	b	431b8 <_c_int00>

00000004 <undefEntry>:
   4:	ea00d866 	b	361a4 <custom_undefEntry>

00000008 <svcEntry>:
   8:	ea00d86d 	b	361c4 <custom_svcEntry>

0000000c <prefetchEntry>:
   c:	ea00d870 	b	361d4 <custom_prefetchEntry>
  10:	ea010dbf 	b	43714 <_dabort>
  14:	ea00d866 	b	361b4 <custom_phantomInterrupt>
  18:	e51ff1b0 	ldr	pc, [pc, #-432]	; fffffe70 <__TI_pprof_out_hndl+0xfffffe71>
  1c:	e51ff1b0 	ldr	pc, [pc, #-432]	; fffffe74 <__TI_pprof_out_hndl+0xfffffe75>

Disassembly of section .text:

000353c0 <selftestFailNotification>:
   353c0:	e24dd008 	sub	sp, sp, #8
   353c4:	e58d0000 	str	r0, [sp]
   353c8:	e28dd008 	add	sp, sp, #8
   353cc:	e12fff1e 	bx	lr

000353d0 <ccmSelfCheck>:
   353d0:	e92d4008 	push	{r3, lr}
   353d4:	e59f0f68 	ldr	r0, [pc, #3944]	; 36344 <dmaParityCheck+0xac>
   353d8:	e3a0c006 	mov	ip, #6
   353dc:	e580c000 	str	ip, [r0]
   353e0:	e59fcf60 	ldr	ip, [pc, #3936]	; 36348 <dmaParityCheck+0xb0>
   353e4:	e59cc000 	ldr	ip, [ip]
   353e8:	e31c0c01 	tst	ip, #256	; 0x100
   353ec:	0afffffb 	beq	353e0 <ccmSelfCheck+0x10>
   353f0:	e59fcf50 	ldr	ip, [pc, #3920]	; 36348 <dmaParityCheck+0xb0>
   353f4:	e59cc000 	ldr	ip, [ip]
   353f8:	e31c0001 	tst	ip, #1
   353fc:	0a000002 	beq	3540c <ccmSelfCheck+0x3c>
   35400:	e3a00001 	mov	r0, #1
   35404:	ebffffed 	bl	353c0 <selftestFailNotification>
   35408:	ea000040 	b	35510 <ccmSelfCheck+0x140>
   3540c:	e59fcfd8 	ldr	ip, [pc, #4056]	; 363ec <het1ParityCheck+0xa0>
   35410:	e59cc000 	ldr	ip, [ip]
   35414:	e31c0102 	tst	ip, #-2147483648	; 0x80000000
   35418:	0a000002 	beq	35428 <ccmSelfCheck+0x58>
   3541c:	e3a00002 	mov	r0, #2
   35420:	ebffffe6 	bl	353c0 <selftestFailNotification>
   35424:	ea000039 	b	35510 <ccmSelfCheck+0x140>
   35428:	e59f0f14 	ldr	r0, [pc, #3860]	; 36344 <dmaParityCheck+0xac>
   3542c:	e3a0c009 	mov	ip, #9
   35430:	e580c000 	str	ip, [r0]
   35434:	e59fcf08 	ldr	ip, [pc, #3848]	; 36344 <dmaParityCheck+0xac>
   35438:	e59cc000 	ldr	ip, [ip]
   3543c:	e35c0000 	cmp	ip, #0
   35440:	0a000003 	beq	35454 <ccmSelfCheck+0x84>
   35444:	e59fcef8 	ldr	ip, [pc, #3832]	; 36344 <dmaParityCheck+0xac>
   35448:	e59cc000 	ldr	ip, [ip]
   3544c:	e35c0000 	cmp	ip, #0
   35450:	1afffffb 	bne	35444 <ccmSelfCheck+0x74>
   35454:	e59fcf94 	ldr	ip, [pc, #3988]	; 363f0 <het1ParityCheck+0xa4>
   35458:	e59cc000 	ldr	ip, [ip]
   3545c:	e31c0004 	tst	ip, #4
   35460:	1a000002 	bne	35470 <ccmSelfCheck+0xa0>
   35464:	e3a00003 	mov	r0, #3
   35468:	ebffffd4 	bl	353c0 <selftestFailNotification>
   3546c:	ea000027 	b	35510 <ccmSelfCheck+0x140>
   35470:	e59fcf7c 	ldr	ip, [pc, #3964]	; 363f4 <het1ParityCheck+0xa8>
   35474:	e59cc000 	ldr	ip, [ip]
   35478:	e20cc0ff 	and	ip, ip, #255	; 0xff
   3547c:	e35c0001 	cmp	ip, #1
   35480:	0a000001 	beq	3548c <ccmSelfCheck+0xbc>
   35484:	e3a00004 	mov	r0, #4
   35488:	ebffffcc 	bl	353c0 <selftestFailNotification>
   3548c:	e59f0f5c 	ldr	r0, [pc, #3932]	; 363f0 <het1ParityCheck+0xa4>
   35490:	e3a0c004 	mov	ip, #4
   35494:	e580c000 	str	ip, [r0]
   35498:	e59f0f58 	ldr	r0, [pc, #3928]	; 363f8 <het1ParityCheck+0xac>
   3549c:	e3a0c004 	mov	ip, #4
   354a0:	e580c000 	str	ip, [r0]
   354a4:	e59f0f40 	ldr	r0, [pc, #3904]	; 363ec <het1ParityCheck+0xa0>
   354a8:	e3a0c102 	mov	ip, #-2147483648	; 0x80000000
   354ac:	e580c000 	str	ip, [r0]
   354b0:	e59f0ff0 	ldr	r0, [pc, #4080]	; 364a8 <htu1ParityCheck+0xac>
   354b4:	e3a0c005 	mov	ip, #5
   354b8:	e580c000 	str	ip, [r0]
   354bc:	e59f0e80 	ldr	r0, [pc, #3712]	; 36344 <dmaParityCheck+0xac>
   354c0:	e3a0c00f 	mov	ip, #15
   354c4:	e580c000 	str	ip, [r0]
   354c8:	e59fce74 	ldr	ip, [pc, #3700]	; 36344 <dmaParityCheck+0xac>
   354cc:	e59cc000 	ldr	ip, [ip]
   354d0:	e35c0000 	cmp	ip, #0
   354d4:	0a000003 	beq	354e8 <ccmSelfCheck+0x118>
   354d8:	e59fce64 	ldr	ip, [pc, #3684]	; 36344 <dmaParityCheck+0xac>
   354dc:	e59cc000 	ldr	ip, [ip]
   354e0:	e35c0000 	cmp	ip, #0
   354e4:	1afffffb 	bne	354d8 <ccmSelfCheck+0x108>
   354e8:	e59fcefc 	ldr	ip, [pc, #3836]	; 363ec <het1ParityCheck+0xa0>
   354ec:	e59cc000 	ldr	ip, [ip]
   354f0:	e31c0102 	tst	ip, #-2147483648	; 0x80000000
   354f4:	1a000002 	bne	35504 <ccmSelfCheck+0x134>
   354f8:	e3a00002 	mov	r0, #2
   354fc:	ebffffaf 	bl	353c0 <selftestFailNotification>
   35500:	ea000002 	b	35510 <ccmSelfCheck+0x140>
   35504:	e59f0ee0 	ldr	r0, [pc, #3808]	; 363ec <het1ParityCheck+0xa0>
   35508:	e3a0c102 	mov	ip, #-2147483648	; 0x80000000
   3550c:	e580c000 	str	ip, [r0]
   35510:	e8bd8008 	pop	{r3, pc}

00035514 <memoryInit>:
   35514:	e24dd008 	sub	sp, sp, #8
   35518:	e58d0000 	str	r0, [sp]
   3551c:	e3e000a3 	mvn	r0, #163	; 0xa3
   35520:	e3a0c00a 	mov	ip, #10
   35524:	e580c000 	str	ip, [r0]
   35528:	e3e0009f 	mvn	r0, #159	; 0x9f
   3552c:	e59dc000 	ldr	ip, [sp]
   35530:	e580c000 	str	ip, [r0]
   35534:	e3e0c097 	mvn	ip, #151	; 0x97
   35538:	e59cc000 	ldr	ip, [ip]
   3553c:	e31c0c01 	tst	ip, #256	; 0x100
   35540:	0afffffb 	beq	35534 <memoryInit+0x20>
   35544:	e3e000a3 	mvn	r0, #163	; 0xa3
   35548:	e3a0c005 	mov	ip, #5
   3554c:	e580c000 	str	ip, [r0]
   35550:	e28dd008 	add	sp, sp, #8
   35554:	e12fff1e 	bx	lr

00035558 <stcSelfCheck>:
   35558:	e92d4008 	push	{r3, lr}
   3555c:	e3a0c000 	mov	ip, #0
   35560:	e58dc000 	str	ip, [sp]
   35564:	e59f0f40 	ldr	r0, [pc, #3904]	; 364ac <htu1ParityCheck+0xb0>
   35568:	e3a0c401 	mov	ip, #16777216	; 0x1000000
   3556c:	e580c000 	str	ip, [r0]
   35570:	e59f0f38 	ldr	r0, [pc, #3896]	; 364b0 <htu1ParityCheck+0xb4>
   35574:	e59fcf38 	ldr	ip, [pc, #3896]	; 364b4 <htu1ParityCheck+0xb8>
   35578:	e580c000 	str	ip, [r0]
   3557c:	e59f0f34 	ldr	r0, [pc, #3892]	; 364b8 <htu1ParityCheck+0xbc>
   35580:	e3a0c01a 	mov	ip, #26
   35584:	e580c000 	str	ip, [r0]
   35588:	e59f0f2c 	ldr	r0, [pc, #3884]	; 364bc <htu1ParityCheck+0xc0>
   3558c:	e3e0c000 	mvn	ip, #0
   35590:	e580c000 	str	ip, [r0]
   35594:	e3a0c000 	mov	ip, #0
   35598:	e58dc000 	str	ip, [sp]
   3559c:	e59dc000 	ldr	ip, [sp]
   355a0:	e35c0020 	cmp	ip, #32
   355a4:	2a000005 	bcs	355c0 <stcSelfCheck+0x68>
   355a8:	e59dc000 	ldr	ip, [sp]
   355ac:	e28cc001 	add	ip, ip, #1
   355b0:	e58dc000 	str	ip, [sp]
   355b4:	e59dc000 	ldr	ip, [sp]
   355b8:	e35c0020 	cmp	ip, #32
   355bc:	3afffff9 	bcc	355a8 <stcSelfCheck+0x50>
   355c0:	e59f0fdc 	ldr	r0, [pc, #4060]	; 365a4 <het2ParityCheck+0xe4>
   355c4:	e3a0c00a 	mov	ip, #10
   355c8:	e580c000 	str	ip, [r0]
   355cc:	eb0030af 	bl	41890 <_gotoCPUIdle_>
   355d0:	e8bd8008 	pop	{r3, pc}

000355d4 <cpuSelfTest>:
   355d4:	e92d4000 	stmfd	sp!, {lr}
   355d8:	e24dd014 	sub	sp, sp, #20
   355dc:	e5cd200c 	strb	r2, [sp, #12]
   355e0:	e58d1004 	str	r1, [sp, #4]
   355e4:	e58d0000 	str	r0, [sp]
   355e8:	e3a0c000 	mov	ip, #0
   355ec:	e58dc008 	str	ip, [sp, #8]
   355f0:	e59f0eb8 	ldr	r0, [pc, #3768]	; 364b0 <htu1ParityCheck+0xb4>
   355f4:	e59dc000 	ldr	ip, [sp]
   355f8:	e1a0c80c 	lsl	ip, ip, #16
   355fc:	e580c000 	str	ip, [r0]
   35600:	e5ddc00c 	ldrb	ip, [sp, #12]
   35604:	e35c0000 	cmp	ip, #0
   35608:	0a000003 	beq	3561c <cpuSelfTest+0x48>
   3560c:	e59f0e9c 	ldr	r0, [pc, #3740]	; 364b0 <htu1ParityCheck+0xb4>
   35610:	e590c000 	ldr	ip, [r0]
   35614:	e38cc001 	orr	ip, ip, #1
   35618:	e580c000 	str	ip, [r0]
   3561c:	e59f0e98 	ldr	r0, [pc, #3736]	; 364bc <htu1ParityCheck+0xc0>
   35620:	e59dc004 	ldr	ip, [sp, #4]
   35624:	e580c000 	str	ip, [r0]
   35628:	e3a0c000 	mov	ip, #0
   3562c:	e58dc008 	str	ip, [sp, #8]
   35630:	e59dc008 	ldr	ip, [sp, #8]
   35634:	e35c0020 	cmp	ip, #32
   35638:	2a000005 	bcs	35654 <cpuSelfTest+0x80>
   3563c:	e59dc008 	ldr	ip, [sp, #8]
   35640:	e28cc001 	add	ip, ip, #1
   35644:	e58dc008 	str	ip, [sp, #8]
   35648:	e59dc008 	ldr	ip, [sp, #8]
   3564c:	e35c0020 	cmp	ip, #32
   35650:	3afffff9 	bcc	3563c <cpuSelfTest+0x68>
   35654:	e59f0f48 	ldr	r0, [pc, #3912]	; 365a4 <het2ParityCheck+0xe4>
   35658:	e3a0c00a 	mov	ip, #10
   3565c:	e580c000 	str	ip, [r0]
   35660:	eb00308a 	bl	41890 <_gotoCPUIdle_>
   35664:	e28dd014 	add	sp, sp, #20
   35668:	e8bd8000 	ldmfd	sp!, {pc}

0003566c <pbistSelfCheck>:
   3566c:	e92d400e 	push	{r1, r2, r3, lr}
   35670:	e3a0c000 	mov	ip, #0
   35674:	e58dc000 	str	ip, [sp]
   35678:	e3a0c000 	mov	ip, #0
   3567c:	e58dc004 	str	ip, [sp, #4]
   35680:	e59f0fcc 	ldr	r0, [pc, #4044]	; 36654 <htu2ParityCheck+0xac>
   35684:	e3a0c000 	mov	ip, #0
   35688:	e580c000 	str	ip, [r0]
   3568c:	e3e000a7 	mvn	r0, #167	; 0xa7
   35690:	e300c105 	movw	ip, #261	; 0x105
   35694:	e580c000 	str	ip, [r0]
   35698:	e3e000a3 	mvn	r0, #163	; 0xa3
   3569c:	e3a0c005 	mov	ip, #5
   356a0:	e580c000 	str	ip, [r0]
   356a4:	e3e000a7 	mvn	r0, #167	; 0xa7
   356a8:	e300c10a 	movw	ip, #266	; 0x10a
   356ac:	e580c000 	str	ip, [r0]
   356b0:	e3e00097 	mvn	r0, #151	; 0x97
   356b4:	e3a0c001 	mov	ip, #1
   356b8:	e580c000 	str	ip, [r0]
   356bc:	e3e0009f 	mvn	r0, #159	; 0x9f
   356c0:	e3a0c001 	mov	ip, #1
   356c4:	e580c000 	str	ip, [r0]
   356c8:	e3a0c000 	mov	ip, #0
   356cc:	e58dc000 	str	ip, [sp]
   356d0:	e59dc000 	ldr	ip, [sp]
   356d4:	e35c0040 	cmp	ip, #64	; 0x40
   356d8:	2a000005 	bcs	356f4 <pbistSelfCheck+0x88>
   356dc:	e59dc000 	ldr	ip, [sp]
   356e0:	e28cc001 	add	ip, ip, #1
   356e4:	e58dc000 	str	ip, [sp]
   356e8:	e59dc000 	ldr	ip, [sp]
   356ec:	e35c0040 	cmp	ip, #64	; 0x40
   356f0:	3afffff9 	bcc	356dc <pbistSelfCheck+0x70>
   356f4:	e59f0f58 	ldr	r0, [pc, #3928]	; 36654 <htu2ParityCheck+0xac>
   356f8:	e3a0c003 	mov	ip, #3
   356fc:	e580c000 	str	ip, [r0]
   35700:	e59f0f50 	ldr	r0, [pc, #3920]	; 36658 <htu2ParityCheck+0xb0>
   35704:	e3a0c010 	mov	ip, #16
   35708:	e580c000 	str	ip, [r0]
   3570c:	e59f0ff0 	ldr	r0, [pc, #4080]	; 36704 <adc1ParityCheck+0xa8>
   35710:	e3a0ca02 	mov	ip, #8192	; 0x2000
   35714:	e580c000 	str	ip, [r0]
   35718:	e59f0fe8 	ldr	r0, [pc, #4072]	; 36708 <adc1ParityCheck+0xac>
   3571c:	e3a0c353 	mov	ip, #1275068417	; 0x4c000001
   35720:	e580c000 	str	ip, [r0]
   35724:	e59f0fe0 	ldr	r0, [pc, #4064]	; 3670c <adc1ParityCheck+0xb0>
   35728:	e3a0c075 	mov	ip, #117	; 0x75
   3572c:	e580c000 	str	ip, [r0]
   35730:	e59f0fd8 	ldr	r0, [pc, #4056]	; 36710 <adc1ParityCheck+0xb4>
   35734:	e3a0c393 	mov	ip, #1275068418	; 0x4c000002
   35738:	e580c000 	str	ip, [r0]
   3573c:	e59f0fd0 	ldr	r0, [pc, #4048]	; 36714 <adc1ParityCheck+0xb8>
   35740:	e3a0c075 	mov	ip, #117	; 0x75
   35744:	e580c000 	str	ip, [r0]
   35748:	e59f0fc8 	ldr	r0, [pc, #4040]	; 36718 <adc1ParityCheck+0xbc>
   3574c:	e3a0c3d3 	mov	ip, #1275068419	; 0x4c000003
   35750:	e580c000 	str	ip, [r0]
   35754:	e59f0fc0 	ldr	r0, [pc, #4032]	; 3671c <adc1ParityCheck+0xc0>
   35758:	e3a0c075 	mov	ip, #117	; 0x75
   3575c:	e580c000 	str	ip, [r0]
   35760:	e59f0fb8 	ldr	r0, [pc, #4024]	; 36720 <adc1ParityCheck+0xc4>
   35764:	e59fcfb8 	ldr	ip, [pc, #4024]	; 36724 <adc1ParityCheck+0xc8>
   35768:	e580c000 	str	ip, [r0]
   3576c:	e59f0fb4 	ldr	r0, [pc, #4020]	; 36728 <adc1ParityCheck+0xcc>
   35770:	e3a0c075 	mov	ip, #117	; 0x75
   35774:	e580c000 	str	ip, [r0]
   35778:	e59f0fac 	ldr	r0, [pc, #4012]	; 3672c <adc1ParityCheck+0xd0>
   3577c:	e59fcfac 	ldr	ip, [pc, #4012]	; 36730 <adc1ParityCheck+0xd4>
   35780:	e580c000 	str	ip, [r0]
   35784:	e59f0fa8 	ldr	r0, [pc, #4008]	; 36734 <adc1ParityCheck+0xd8>
   35788:	e3a0c075 	mov	ip, #117	; 0x75
   3578c:	e580c000 	str	ip, [r0]
   35790:	e59f0fa0 	ldr	r0, [pc, #4000]	; 36738 <adc1ParityCheck+0xdc>
   35794:	e59fcfa0 	ldr	ip, [pc, #4000]	; 3673c <adc1ParityCheck+0xe0>
   35798:	e580c000 	str	ip, [r0]
   3579c:	e59f0f9c 	ldr	r0, [pc, #3996]	; 36740 <adc1ParityCheck+0xe4>
   357a0:	e3a0c075 	mov	ip, #117	; 0x75
   357a4:	e580c000 	str	ip, [r0]
   357a8:	e59f0f94 	ldr	r0, [pc, #3988]	; 36744 <adc1ParityCheck+0xe8>
   357ac:	e3a0c000 	mov	ip, #0
   357b0:	e580c000 	str	ip, [r0]
   357b4:	e59f0f8c 	ldr	r0, [pc, #3980]	; 36748 <adc1ParityCheck+0xec>
   357b8:	e3a0c001 	mov	ip, #1
   357bc:	e580c000 	str	ip, [r0]
   357c0:	e59f0f84 	ldr	r0, [pc, #3972]	; 3674c <adc1ParityCheck+0xf0>
   357c4:	e3a0c001 	mov	ip, #1
   357c8:	e580c000 	str	ip, [r0]
   357cc:	ea000002 	b	357dc <pbistSelfCheck+0x170>
   357d0:	e59dc004 	ldr	ip, [sp, #4]
   357d4:	e28cc001 	add	ip, ip, #1
   357d8:	e58dc004 	str	ip, [sp, #4]
   357dc:	e3e0c097 	mvn	ip, #151	; 0x97
   357e0:	e59cc000 	ldr	ip, [ip]
   357e4:	e31c0001 	tst	ip, #1
   357e8:	0afffff8 	beq	357d0 <pbistSelfCheck+0x164>
   357ec:	e59fcf5c 	ldr	ip, [pc, #3932]	; 36750 <adc1ParityCheck+0xf4>
   357f0:	e59cc000 	ldr	ip, [ip]
   357f4:	e31c0001 	tst	ip, #1
   357f8:	1a000002 	bne	35808 <pbistSelfCheck+0x19c>
   357fc:	e3a00005 	mov	r0, #5
   35800:	ebfffeee 	bl	353c0 <selftestFailNotification>
   35804:	ea00000f 	b	35848 <pbistSelfCheck+0x1dc>
   35808:	e59dc004 	ldr	ip, [sp, #4]
   3580c:	e35c0002 	cmp	ip, #2
   35810:	3a000001 	bcc	3581c <pbistSelfCheck+0x1b0>
   35814:	e3a00029 	mov	r0, #41	; 0x29
   35818:	ebfffee8 	bl	353c0 <selftestFailNotification>
   3581c:	e59f0e30 	ldr	r0, [pc, #3632]	; 36654 <htu2ParityCheck+0xac>
   35820:	e3a0c000 	mov	ip, #0
   35824:	e580c000 	str	ip, [r0]
   35828:	e3e000a7 	mvn	r0, #167	; 0xa7
   3582c:	e590c000 	ldr	ip, [r0]
   35830:	e3ccc00f 	bic	ip, ip, #15
   35834:	e580c000 	str	ip, [r0]
   35838:	e3e000a7 	mvn	r0, #167	; 0xa7
   3583c:	e590c000 	ldr	ip, [r0]
   35840:	e38cc005 	orr	ip, ip, #5
   35844:	e580c000 	str	ip, [r0]
   35848:	e8bd800e 	pop	{r1, r2, r3, pc}

0003584c <pbistRun>:
   3584c:	e24dd010 	sub	sp, sp, #16
   35850:	e58d1004 	str	r1, [sp, #4]
   35854:	e58d0000 	str	r0, [sp]
   35858:	e3a0c000 	mov	ip, #0
   3585c:	e58dc008 	str	ip, [sp, #8]
   35860:	e3e000a7 	mvn	r0, #167	; 0xa7
   35864:	e300c105 	movw	ip, #261	; 0x105
   35868:	e580c000 	str	ip, [r0]
   3586c:	e3e000a3 	mvn	r0, #163	; 0xa3
   35870:	e3a0c005 	mov	ip, #5
   35874:	e580c000 	str	ip, [r0]
   35878:	e3e0009f 	mvn	r0, #159	; 0x9f
   3587c:	e3a0c001 	mov	ip, #1
   35880:	e580c000 	str	ip, [r0]
   35884:	e3e000a7 	mvn	r0, #167	; 0xa7
   35888:	e300c10a 	movw	ip, #266	; 0x10a
   3588c:	e580c000 	str	ip, [r0]
   35890:	e3a0c000 	mov	ip, #0
   35894:	e58dc008 	str	ip, [sp, #8]
   35898:	e59dc008 	ldr	ip, [sp, #8]
   3589c:	e35c0040 	cmp	ip, #64	; 0x40
   358a0:	2a000005 	bcs	358bc <pbistRun+0x70>
   358a4:	e59dc008 	ldr	ip, [sp, #8]
   358a8:	e28cc001 	add	ip, ip, #1
   358ac:	e58dc008 	str	ip, [sp, #8]
   358b0:	e59dc008 	ldr	ip, [sp, #8]
   358b4:	e35c0040 	cmp	ip, #64	; 0x40
   358b8:	3afffff9 	bcc	358a4 <pbistRun+0x58>
   358bc:	e59f0d90 	ldr	r0, [pc, #3472]	; 36654 <htu2ParityCheck+0xac>
   358c0:	e3a0c003 	mov	ip, #3
   358c4:	e580c000 	str	ip, [r0]
   358c8:	e59f0f2c 	ldr	r0, [pc, #3884]	; 367fc <adc2ParityCheck+0xa8>
   358cc:	e59dc004 	ldr	ip, [sp, #4]
   358d0:	e580c000 	str	ip, [r0]
   358d4:	e59f0f24 	ldr	r0, [pc, #3876]	; 36800 <adc2ParityCheck+0xac>
   358d8:	e59dc000 	ldr	ip, [sp]
   358dc:	e580c000 	str	ip, [r0]
   358e0:	e59f0f1c 	ldr	r0, [pc, #3868]	; 36804 <adc2ParityCheck+0xb0>
   358e4:	e3a0c000 	mov	ip, #0
   358e8:	e580c000 	str	ip, [r0]
   358ec:	e59f0f14 	ldr	r0, [pc, #3860]	; 36808 <adc2ParityCheck+0xb4>
   358f0:	e3a0c000 	mov	ip, #0
   358f4:	e580c000 	str	ip, [r0]
   358f8:	e59f0f0c 	ldr	r0, [pc, #3852]	; 3680c <adc2ParityCheck+0xb8>
   358fc:	e3a0c003 	mov	ip, #3
   35900:	e580c000 	str	ip, [r0]
   35904:	e59f0d4c 	ldr	r0, [pc, #3404]	; 36658 <htu2ParityCheck+0xb0>
   35908:	e3a0c014 	mov	ip, #20
   3590c:	e580c000 	str	ip, [r0]
   35910:	e28dd010 	add	sp, sp, #16
   35914:	e12fff1e 	bx	lr

00035918 <pbistStop>:
   35918:	e59f0d34 	ldr	r0, [pc, #3380]	; 36654 <htu2ParityCheck+0xac>
   3591c:	e3a0c000 	mov	ip, #0
   35920:	e580c000 	str	ip, [r0]
   35924:	e3e000a7 	mvn	r0, #167	; 0xa7
   35928:	e590c000 	ldr	ip, [r0]
   3592c:	e3ccc00f 	bic	ip, ip, #15
   35930:	e580c000 	str	ip, [r0]
   35934:	e3e000a7 	mvn	r0, #167	; 0xa7
   35938:	e590c000 	ldr	ip, [r0]
   3593c:	e38cc005 	orr	ip, ip, #5
   35940:	e580c000 	str	ip, [r0]
   35944:	e12fff1e 	bx	lr

00035948 <pbistIsTestCompleted>:
   35948:	e3e0c097 	mvn	ip, #151	; 0x97
   3594c:	e59c1000 	ldr	r1, [ip]
   35950:	e3a00000 	mov	r0, #0
   35954:	e3110001 	tst	r1, #1
   35958:	e3a0c000 	mov	ip, #0
   3595c:	0a000000 	beq	35964 <pbistIsTestCompleted+0x1c>
   35960:	e3a0c001 	mov	ip, #1
   35964:	e35c0000 	cmp	ip, #0
   35968:	0a000000 	beq	35970 <pbistIsTestCompleted+0x28>
   3596c:	e3a00001 	mov	r0, #1
   35970:	e12fff1e 	bx	lr

00035974 <pbistIsTestPassed>:
   35974:	e24dd008 	sub	sp, sp, #8
   35978:	e59fcdd0 	ldr	ip, [pc, #3536]	; 36750 <adc1ParityCheck+0xf4>
   3597c:	e59cc000 	ldr	ip, [ip]
   35980:	e35c0000 	cmp	ip, #0
   35984:	1a000002 	bne	35994 <pbistIsTestPassed+0x20>
   35988:	e3a0c001 	mov	ip, #1
   3598c:	e5cdc000 	strb	ip, [sp]
   35990:	ea000001 	b	3599c <pbistIsTestPassed+0x28>
   35994:	e3a0c000 	mov	ip, #0
   35998:	e5cdc000 	strb	ip, [sp]
   3599c:	e5dd0000 	ldrb	r0, [sp]
   359a0:	e28dd008 	add	sp, sp, #8
   359a4:	e12fff1e 	bx	lr

000359a8 <pbistPortTestStatus>:
   359a8:	e24dd008 	sub	sp, sp, #8
   359ac:	e58d0000 	str	r0, [sp]
   359b0:	e59dc000 	ldr	ip, [sp]
   359b4:	e35c0000 	cmp	ip, #0
   359b8:	1a00000b 	bne	359ec <pbistPortTestStatus+0x44>
   359bc:	e59fcd8c 	ldr	ip, [pc, #3468]	; 36750 <adc1ParityCheck+0xf4>
   359c0:	e59c1000 	ldr	r1, [ip]
   359c4:	e3a00000 	mov	r0, #0
   359c8:	e3510000 	cmp	r1, #0
   359cc:	e3a0c000 	mov	ip, #0
   359d0:	1a000000 	bne	359d8 <pbistPortTestStatus+0x30>
   359d4:	e3a00001 	mov	r0, #1
   359d8:	e3500000 	cmp	r0, #0
   359dc:	0a000000 	beq	359e4 <pbistPortTestStatus+0x3c>
   359e0:	e3a0c001 	mov	ip, #1
   359e4:	e5cdc004 	strb	ip, [sp, #4]
   359e8:	ea000001 	b	359f4 <pbistPortTestStatus+0x4c>
   359ec:	e3a0c000 	mov	ip, #0
   359f0:	e5cdc004 	strb	ip, [sp, #4]
   359f4:	e5dd0004 	ldrb	r0, [sp, #4]
   359f8:	e28dd008 	add	sp, sp, #8
   359fc:	e12fff1e 	bx	lr

00035a00 <efcCheck>:
   35a00:	e92d400e 	push	{r1, r2, r3, lr}
   35a04:	e3a0c000 	mov	ip, #0
   35a08:	e58dc000 	str	ip, [sp]
   35a0c:	e59fcdfc 	ldr	ip, [pc, #3580]	; 36810 <adc2ParityCheck+0xbc>
   35a10:	e59cc000 	ldr	ip, [ip]
   35a14:	e58dc000 	str	ip, [sp]
   35a18:	e59dc000 	ldr	ip, [sp]
   35a1c:	e35c0000 	cmp	ip, #0
   35a20:	1a00000b 	bne	35a54 <efcCheck+0x54>
   35a24:	eb000017 	bl	35a88 <efcStuckZeroTest>
   35a28:	e3500001 	cmp	r0, #1
   35a2c:	1a000003 	bne	35a40 <efcCheck+0x40>
   35a30:	eb00003f 	bl	35b34 <efcSelfTest>
   35a34:	e3a0c000 	mov	ip, #0
   35a38:	e58dc004 	str	ip, [sp, #4]
   35a3c:	ea00000f 	b	35a80 <efcCheck+0x80>
   35a40:	e3a00006 	mov	r0, #6
   35a44:	ebfffe5d 	bl	353c0 <selftestFailNotification>
   35a48:	e3a0c001 	mov	ip, #1
   35a4c:	e58dc004 	str	ip, [sp, #4]
   35a50:	ea00000a 	b	35a80 <efcCheck+0x80>
   35a54:	e59dc000 	ldr	ip, [sp]
   35a58:	e35c0015 	cmp	ip, #21
   35a5c:	1a000003 	bne	35a70 <efcCheck+0x70>
   35a60:	eb000033 	bl	35b34 <efcSelfTest>
   35a64:	e3a0c002 	mov	ip, #2
   35a68:	e58dc004 	str	ip, [sp, #4]
   35a6c:	ea000003 	b	35a80 <efcCheck+0x80>
   35a70:	e3a00006 	mov	r0, #6
   35a74:	ebfffe51 	bl	353c0 <selftestFailNotification>
   35a78:	e3a0c003 	mov	ip, #3
   35a7c:	e58dc004 	str	ip, [sp, #4]
   35a80:	e59d0004 	ldr	r0, [sp, #4]
   35a84:	e8bd800e 	pop	{r1, r2, r3, pc}

00035a88 <efcStuckZeroTest>:
   35a88:	e24dd010 	sub	sp, sp, #16
   35a8c:	e3a0c000 	mov	ip, #0
   35a90:	e5cdc00c 	strb	ip, [sp, #12]
   35a94:	e3a0c70f 	mov	ip, #3932160	; 0x3c0000
   35a98:	e58dc008 	str	ip, [sp, #8]
   35a9c:	e59f0fb4 	ldr	r0, [pc, #4020]	; 36a58 <checkRAMECC+0x244>
   35aa0:	e59dc008 	ldr	ip, [sp, #8]
   35aa4:	e38cc90f 	orr	ip, ip, #245760	; 0x3c000
   35aa8:	e580c000 	str	ip, [r0]
   35aac:	e59fcfa8 	ldr	ip, [pc, #4008]	; 36a5c <checkRAMECC+0x248>
   35ab0:	e59cc000 	ldr	ip, [ip]
   35ab4:	e20ccb17 	and	ip, ip, #23552	; 0x5c00
   35ab8:	e35c0b17 	cmp	ip, #23552	; 0x5c00
   35abc:	1a00000d 	bne	35af8 <efcStuckZeroTest+0x70>
   35ac0:	e59fcf98 	ldr	ip, [pc, #3992]	; 36a60 <checkRAMECC+0x24c>
   35ac4:	e59cc000 	ldr	ip, [ip]
   35ac8:	e58dc000 	str	ip, [sp]
   35acc:	e59fcf90 	ldr	ip, [pc, #3984]	; 36a64 <checkRAMECC+0x250>
   35ad0:	e59cc000 	ldr	ip, [ip]
   35ad4:	e58dc004 	str	ip, [sp, #4]
   35ad8:	e59dc000 	ldr	ip, [sp]
   35adc:	e31c0c02 	tst	ip, #512	; 0x200
   35ae0:	0a000004 	beq	35af8 <efcStuckZeroTest+0x70>
   35ae4:	e59dc004 	ldr	ip, [sp, #4]
   35ae8:	e31c0002 	tst	ip, #2
   35aec:	0a000001 	beq	35af8 <efcStuckZeroTest+0x70>
   35af0:	e3a0c001 	mov	ip, #1
   35af4:	e5cdc00c 	strb	ip, [sp, #12]
   35af8:	e59f0f58 	ldr	r0, [pc, #3928]	; 36a58 <checkRAMECC+0x244>
   35afc:	e3a0c90f 	mov	ip, #245760	; 0x3c000
   35b00:	e580c000 	str	ip, [r0]
   35b04:	e59f0f54 	ldr	r0, [pc, #3924]	; 36a60 <checkRAMECC+0x24c>
   35b08:	e3a0cc02 	mov	ip, #512	; 0x200
   35b0c:	e580c000 	str	ip, [r0]
   35b10:	e59f0f4c 	ldr	r0, [pc, #3916]	; 36a64 <checkRAMECC+0x250>
   35b14:	e3a0c002 	mov	ip, #2
   35b18:	e580c000 	str	ip, [r0]
   35b1c:	e59f0984 	ldr	r0, [pc, #2436]	; 364a8 <htu1ParityCheck+0xac>
   35b20:	e3a0c005 	mov	ip, #5
   35b24:	e580c000 	str	ip, [r0]
   35b28:	e5dd000c 	ldrb	r0, [sp, #12]
   35b2c:	e28dd010 	add	sp, sp, #16
   35b30:	e12fff1e 	bx	lr

00035b34 <efcSelfTest>:
   35b34:	e59f0fe4 	ldr	r0, [pc, #4068]	; 36b20 <checkClockMonitor+0xb8>
   35b38:	e3a0cf96 	mov	ip, #600	; 0x258
   35b3c:	e580c000 	str	ip, [r0]
   35b40:	e59f0fdc 	ldr	r0, [pc, #4060]	; 36b24 <checkClockMonitor+0xbc>
   35b44:	e59fcfdc 	ldr	ip, [pc, #4060]	; 36b28 <checkClockMonitor+0xc0>
   35b48:	e580c000 	str	ip, [r0]
   35b4c:	e59f0f04 	ldr	r0, [pc, #3844]	; 36a58 <checkRAMECC+0x244>
   35b50:	e302c00f 	movw	ip, #8207	; 0x200f
   35b54:	e580c000 	str	ip, [r0]
   35b58:	e12fff1e 	bx	lr

00035b5c <checkefcSelfTest>:
   35b5c:	e24dd018 	sub	sp, sp, #24
   35b60:	e3a0c000 	mov	ip, #0
   35b64:	e5cdc010 	strb	ip, [sp, #16]
   35b68:	e3a0c000 	mov	ip, #0
   35b6c:	e58dc00c 	str	ip, [sp, #12]
   35b70:	e59fcee4 	ldr	ip, [pc, #3812]	; 36a5c <checkRAMECC+0x248>
   35b74:	e59cc000 	ldr	ip, [ip]
   35b78:	e31c0902 	tst	ip, #32768	; 0x8000
   35b7c:	0afffffb 	beq	35b70 <checkefcSelfTest+0x14>
   35b80:	e59fced4 	ldr	ip, [pc, #3796]	; 36a5c <checkRAMECC+0x248>
   35b84:	e59cc000 	ldr	ip, [ip]
   35b88:	e58dc000 	str	ip, [sp]
   35b8c:	e59fcc7c 	ldr	ip, [pc, #3196]	; 36810 <adc2ParityCheck+0xbc>
   35b90:	e59cc000 	ldr	ip, [ip]
   35b94:	e58dc004 	str	ip, [sp, #4]
   35b98:	e59dc000 	ldr	ip, [sp]
   35b9c:	e31c0901 	tst	ip, #16384	; 0x4000
   35ba0:	1a000012 	bne	35bf0 <checkefcSelfTest+0x94>
   35ba4:	e59dc004 	ldr	ip, [sp, #4]
   35ba8:	e31c001f 	tst	ip, #31
   35bac:	1a00000f 	bne	35bf0 <checkefcSelfTest+0x94>
   35bb0:	e59fcea8 	ldr	ip, [pc, #3752]	; 36a60 <checkRAMECC+0x24c>
   35bb4:	e59cc000 	ldr	ip, [ip]
   35bb8:	e20ccc01 	and	ip, ip, #256	; 0x100
   35bbc:	e58dc008 	str	ip, [sp, #8]
   35bc0:	e59fce98 	ldr	ip, [pc, #3736]	; 36a60 <checkRAMECC+0x24c>
   35bc4:	e59cc000 	ldr	ip, [ip]
   35bc8:	e20ccc02 	and	ip, ip, #512	; 0x200
   35bcc:	e58dc00c 	str	ip, [sp, #12]
   35bd0:	e59dc008 	ldr	ip, [sp, #8]
   35bd4:	e35c0000 	cmp	ip, #0
   35bd8:	1a000004 	bne	35bf0 <checkefcSelfTest+0x94>
   35bdc:	e59dc00c 	ldr	ip, [sp, #12]
   35be0:	e35c0000 	cmp	ip, #0
   35be4:	1a000001 	bne	35bf0 <checkefcSelfTest+0x94>
   35be8:	e3a0c001 	mov	ip, #1
   35bec:	e5cdc010 	strb	ip, [sp, #16]
   35bf0:	e5dd0010 	ldrb	r0, [sp, #16]
   35bf4:	e28dd018 	add	sp, sp, #24
   35bf8:	e12fff1e 	bx	lr

00035bfc <fmcBus2Check>:
   35bfc:	e92d4008 	push	{r3, lr}
   35c00:	e59f0f24 	ldr	r0, [pc, #3876]	; 36b2c <checkClockMonitor+0xc4>
   35c04:	e59fcf24 	ldr	ip, [pc, #3876]	; 36b30 <checkClockMonitor+0xc8>
   35c08:	e580c000 	str	ip, [r0]
   35c0c:	e59fc7d8 	ldr	ip, [pc, #2008]	; 363ec <het1ParityCheck+0xa0>
   35c10:	e59cc000 	ldr	ip, [ip]
   35c14:	e31c0040 	tst	ip, #64	; 0x40
   35c18:	0a000004 	beq	35c30 <fmcBus2Check+0x34>
   35c1c:	e59f07c8 	ldr	r0, [pc, #1992]	; 363ec <het1ParityCheck+0xa0>
   35c20:	e3a0c040 	mov	ip, #64	; 0x40
   35c24:	e580c000 	str	ip, [r0]
   35c28:	eb000002 	bl	35c38 <fmcECCcheck>
   35c2c:	ea000000 	b	35c34 <fmcBus2Check+0x38>
   35c30:	eb000000 	bl	35c38 <fmcECCcheck>
   35c34:	e8bd8008 	pop	{r3, pc}

00035c38 <fmcECCcheck>:
   35c38:	e92d400e 	push	{r1, r2, r3, lr}
   35c3c:	e59fcef0 	ldr	ip, [pc, #3824]	; 36b34 <checkClockMonitor+0xcc>
   35c40:	e59cc000 	ldr	ip, [ip]
   35c44:	e58dc000 	str	ip, [sp]
   35c48:	e59fc79c 	ldr	ip, [pc, #1948]	; 363ec <het1ParityCheck+0xa0>
   35c4c:	e59cc000 	ldr	ip, [ip]
   35c50:	e31c0040 	tst	ip, #64	; 0x40
   35c54:	0a00001c 	beq	35ccc <fmcECCcheck+0x94>
   35c58:	e59f0ed8 	ldr	r0, [pc, #3800]	; 36b38 <checkClockMonitor+0xd0>
   35c5c:	e59fced8 	ldr	ip, [pc, #3800]	; 36b3c <checkClockMonitor+0xd4>
   35c60:	e580c000 	str	ip, [r0]
   35c64:	e59f0780 	ldr	r0, [pc, #1920]	; 363ec <het1ParityCheck+0xa0>
   35c68:	e3a0c040 	mov	ip, #64	; 0x40
   35c6c:	e580c000 	str	ip, [r0]
   35c70:	e59fcec8 	ldr	ip, [pc, #3784]	; 36b40 <checkClockMonitor+0xd8>
   35c74:	e59cc000 	ldr	ip, [ip]
   35c78:	e58dc000 	str	ip, [sp]
   35c7c:	e59fcde0 	ldr	ip, [pc, #3552]	; 36a64 <checkRAMECC+0x250>
   35c80:	e59cc000 	ldr	ip, [ip]
   35c84:	e31c0080 	tst	ip, #128	; 0x80
   35c88:	0a00000c 	beq	35cc0 <fmcECCcheck+0x88>
   35c8c:	e59fceb0 	ldr	ip, [pc, #3760]	; 36b44 <checkClockMonitor+0xdc>
   35c90:	e59cc000 	ldr	ip, [ip]
   35c94:	e58dc004 	str	ip, [sp, #4]
   35c98:	e59f0e98 	ldr	r0, [pc, #3736]	; 36b38 <checkClockMonitor+0xd0>
   35c9c:	e59fcea4 	ldr	ip, [pc, #3748]	; 36b48 <checkClockMonitor+0xe0>
   35ca0:	e580c000 	str	ip, [r0]
   35ca4:	e59f0db8 	ldr	r0, [pc, #3512]	; 36a64 <checkRAMECC+0x250>
   35ca8:	e3a0c080 	mov	ip, #128	; 0x80
   35cac:	e580c000 	str	ip, [r0]
   35cb0:	e59f07f0 	ldr	r0, [pc, #2032]	; 364a8 <htu1ParityCheck+0xac>
   35cb4:	e3a0c005 	mov	ip, #5
   35cb8:	e580c000 	str	ip, [r0]
   35cbc:	ea000004 	b	35cd4 <fmcECCcheck+0x9c>
   35cc0:	e3a00008 	mov	r0, #8
   35cc4:	ebfffdbd 	bl	353c0 <selftestFailNotification>
   35cc8:	ea000001 	b	35cd4 <fmcECCcheck+0x9c>
   35ccc:	e3a00008 	mov	r0, #8
   35cd0:	ebfffdba 	bl	353c0 <selftestFailNotification>
   35cd4:	e8bd800e 	pop	{r1, r2, r3, pc}

00035cd8 <checkB0RAMECC>:
   35cd8:	e92d4000 	stmfd	sp!, {lr}
   35cdc:	e24dd02c 	sub	sp, sp, #44	; 0x2c
   35ce0:	e3a00000 	mov	r0, #0
   35ce4:	e3a01000 	mov	r1, #0
   35ce8:	e88d0003 	stm	sp, {r0, r1}
   35cec:	e3a0c000 	mov	ip, #0
   35cf0:	e58dc018 	str	ip, [sp, #24]
   35cf4:	e3a0c000 	mov	ip, #0
   35cf8:	e58dc020 	str	ip, [sp, #32]
   35cfc:	e3a0c302 	mov	ip, #134217728	; 0x8000000
   35d00:	e89c0003 	ldm	ip, {r0, r1}
   35d04:	e28dc008 	add	ip, sp, #8
   35d08:	e88c0003 	stm	ip, {r0, r1}
   35d0c:	e59fcfbc 	ldr	ip, [pc, #4028]	; 36cd0 <checkFlashEEPROMECC+0x184>
   35d10:	e89c0003 	ldm	ip, {r0, r1}
   35d14:	e28dc010 	add	ip, sp, #16
   35d18:	e88c0003 	stm	ip, {r0, r1}
   35d1c:	e59f0fb0 	ldr	r0, [pc, #4016]	; 36cd4 <checkFlashEEPROMECC+0x188>
   35d20:	e59fcfb0 	ldr	ip, [pc, #4016]	; 36cd8 <checkFlashEEPROMECC+0x18c>
   35d24:	e580c000 	str	ip, [r0]
   35d28:	e59f0fac 	ldr	r0, [pc, #4012]	; 36cdc <checkFlashEEPROMECC+0x190>
   35d2c:	e59fcfa4 	ldr	ip, [pc, #4004]	; 36cd8 <checkFlashEEPROMECC+0x18c>
   35d30:	e580c000 	str	ip, [r0]
   35d34:	e59f0fa4 	ldr	r0, [pc, #4004]	; 36ce0 <checkFlashEEPROMECC+0x194>
   35d38:	e3a0c001 	mov	ip, #1
   35d3c:	e580c000 	str	ip, [r0]
   35d40:	e59f0f9c 	ldr	r0, [pc, #3996]	; 36ce4 <checkFlashEEPROMECC+0x198>
   35d44:	e3a0c001 	mov	ip, #1
   35d48:	e580c000 	str	ip, [r0]
   35d4c:	e59f0f94 	ldr	r0, [pc, #3988]	; 36ce8 <checkFlashEEPROMECC+0x19c>
   35d50:	e3a0c001 	mov	ip, #1
   35d54:	e580c000 	str	ip, [r0]
   35d58:	e59f0f8c 	ldr	r0, [pc, #3980]	; 36cec <checkFlashEEPROMECC+0x1a0>
   35d5c:	e3a0c001 	mov	ip, #1
   35d60:	e580c000 	str	ip, [r0]
   35d64:	eb002ee1 	bl	418f0 <_coreDisableRamEcc_>
   35d68:	e3a00521 	mov	r0, #138412032	; 0x8400000
   35d6c:	e590c000 	ldr	ip, [r0]
   35d70:	e22cc001 	eor	ip, ip, #1
   35d74:	e580c000 	str	ip, [r0]
   35d78:	eb002ed8 	bl	418e0 <_coreEnableRamEcc_>
   35d7c:	e59f0f50 	ldr	r0, [pc, #3920]	; 36cd4 <checkFlashEEPROMECC+0x188>
   35d80:	e59fcf68 	ldr	ip, [pc, #3944]	; 36cf0 <checkFlashEEPROMECC+0x1a4>
   35d84:	e580c000 	str	ip, [r0]
   35d88:	e59f0f4c 	ldr	r0, [pc, #3916]	; 36cdc <checkFlashEEPROMECC+0x190>
   35d8c:	e59fcf5c 	ldr	ip, [pc, #3932]	; 36cf0 <checkFlashEEPROMECC+0x1a4>
   35d90:	e580c000 	str	ip, [r0]
   35d94:	e3a0c302 	mov	ip, #134217728	; 0x8000000
   35d98:	e89c0003 	ldm	ip, {r0, r1}
   35d9c:	e88d0003 	stm	sp, {r0, r1}
   35da0:	e59fcf4c 	ldr	ip, [pc, #3916]	; 36cf4 <checkFlashEEPROMECC+0x1a8>
   35da4:	e59cc000 	ldr	ip, [ip]
   35da8:	e20cc001 	and	ip, ip, #1
   35dac:	e58dc01c 	str	ip, [sp, #28]
   35db0:	e59fcf40 	ldr	ip, [pc, #3904]	; 36cf8 <checkFlashEEPROMECC+0x1ac>
   35db4:	e59cc000 	ldr	ip, [ip]
   35db8:	e20cc001 	and	ip, ip, #1
   35dbc:	e58dc020 	str	ip, [sp, #32]
   35dc0:	e59dc01c 	ldr	ip, [sp, #28]
   35dc4:	e35c0000 	cmp	ip, #0
   35dc8:	1a000005 	bne	35de4 <checkB0RAMECC+0x10c>
   35dcc:	e59dc020 	ldr	ip, [sp, #32]
   35dd0:	e35c0000 	cmp	ip, #0
   35dd4:	1a000002 	bne	35de4 <checkB0RAMECC+0x10c>
   35dd8:	e3a00009 	mov	r0, #9
   35ddc:	ebfffd77 	bl	353c0 <selftestFailNotification>
   35de0:	ea000008 	b	35e08 <checkB0RAMECC+0x130>
   35de4:	e59f0f08 	ldr	r0, [pc, #3848]	; 36cf4 <checkFlashEEPROMECC+0x1a8>
   35de8:	e3a0c001 	mov	ip, #1
   35dec:	e580c000 	str	ip, [r0]
   35df0:	e59f0f00 	ldr	r0, [pc, #3840]	; 36cf8 <checkFlashEEPROMECC+0x1ac>
   35df4:	e3a0c001 	mov	ip, #1
   35df8:	e580c000 	str	ip, [r0]
   35dfc:	e59f05e8 	ldr	r0, [pc, #1512]	; 363ec <het1ParityCheck+0xa0>
   35e00:	e3a0c305 	mov	ip, #335544320	; 0x14000000
   35e04:	e580c000 	str	ip, [r0]
   35e08:	e59f0ec4 	ldr	r0, [pc, #3780]	; 36cd4 <checkFlashEEPROMECC+0x188>
   35e0c:	e59fcec4 	ldr	ip, [pc, #3780]	; 36cd8 <checkFlashEEPROMECC+0x18c>
   35e10:	e580c000 	str	ip, [r0]
   35e14:	e59f0ec0 	ldr	r0, [pc, #3776]	; 36cdc <checkFlashEEPROMECC+0x190>
   35e18:	e59fceb8 	ldr	ip, [pc, #3768]	; 36cd8 <checkFlashEEPROMECC+0x18c>
   35e1c:	e580c000 	str	ip, [r0]
   35e20:	eb002eb2 	bl	418f0 <_coreDisableRamEcc_>
   35e24:	e59f0fc0 	ldr	r0, [pc, #4032]	; 36dec <checkPLL1Slip+0xf0>
   35e28:	e590c000 	ldr	ip, [r0]
   35e2c:	e22cc003 	eor	ip, ip, #3
   35e30:	e580c000 	str	ip, [r0]
   35e34:	eb002ea9 	bl	418e0 <_coreEnableRamEcc_>
   35e38:	e59fce90 	ldr	ip, [pc, #3728]	; 36cd0 <checkFlashEEPROMECC+0x184>
   35e3c:	e89c0003 	ldm	ip, {r0, r1}
   35e40:	e88d0003 	stm	sp, {r0, r1}
   35e44:	e3a0c000 	mov	ip, #0
   35e48:	e58dc024 	str	ip, [sp, #36]	; 0x24
   35e4c:	e59dc024 	ldr	ip, [sp, #36]	; 0x24
   35e50:	e35c000a 	cmp	ip, #10
   35e54:	2a000005 	bcs	35e70 <checkB0RAMECC+0x198>
   35e58:	e59dc024 	ldr	ip, [sp, #36]	; 0x24
   35e5c:	e28cc001 	add	ip, ip, #1
   35e60:	e58dc024 	str	ip, [sp, #36]	; 0x24
   35e64:	e59dc024 	ldr	ip, [sp, #36]	; 0x24
   35e68:	e35c000a 	cmp	ip, #10
   35e6c:	3afffff9 	bcc	35e58 <checkB0RAMECC+0x180>
   35e70:	e59fcf78 	ldr	ip, [pc, #3960]	; 36df0 <checkPLL1Slip+0xf4>
   35e74:	e59cc000 	ldr	ip, [ip]
   35e78:	e58dc018 	str	ip, [sp, #24]
   35e7c:	e59fcf70 	ldr	ip, [pc, #3952]	; 36df4 <checkPLL1Slip+0xf8>
   35e80:	e59cc000 	ldr	ip, [ip]
   35e84:	e58dc018 	str	ip, [sp, #24]
   35e88:	e59f0e44 	ldr	r0, [pc, #3652]	; 36cd4 <checkFlashEEPROMECC+0x188>
   35e8c:	e59fce5c 	ldr	ip, [pc, #3676]	; 36cf0 <checkFlashEEPROMECC+0x1a4>
   35e90:	e580c000 	str	ip, [r0]
   35e94:	e59f0e40 	ldr	r0, [pc, #3648]	; 36cdc <checkFlashEEPROMECC+0x190>
   35e98:	e59fce50 	ldr	ip, [pc, #3664]	; 36cf0 <checkFlashEEPROMECC+0x1a4>
   35e9c:	e580c000 	str	ip, [r0]
   35ea0:	e28dc008 	add	ip, sp, #8
   35ea4:	e89c0003 	ldm	ip, {r0, r1}
   35ea8:	e3a0c302 	mov	ip, #134217728	; 0x8000000
   35eac:	e88c0003 	stm	ip, {r0, r1}
   35eb0:	e28dc010 	add	ip, sp, #16
   35eb4:	e89c0003 	ldm	ip, {r0, r1}
   35eb8:	e59fce10 	ldr	ip, [pc, #3600]	; 36cd0 <checkFlashEEPROMECC+0x184>
   35ebc:	e88c0003 	stm	ip, {r0, r1}
   35ec0:	e28dd02c 	add	sp, sp, #44	; 0x2c
   35ec4:	e8bd8000 	ldmfd	sp!, {pc}

00035ec8 <checkB1RAMECC>:
   35ec8:	e92d4000 	stmfd	sp!, {lr}
   35ecc:	e24dd02c 	sub	sp, sp, #44	; 0x2c
   35ed0:	e3a00000 	mov	r0, #0
   35ed4:	e3a01000 	mov	r1, #0
   35ed8:	e88d0003 	stm	sp, {r0, r1}
   35edc:	e3a0c000 	mov	ip, #0
   35ee0:	e58dc018 	str	ip, [sp, #24]
   35ee4:	e3a0c000 	mov	ip, #0
   35ee8:	e58dc020 	str	ip, [sp, #32]
   35eec:	e59fcfb4 	ldr	ip, [pc, #4020]	; 36ea8 <checkPLL2Slip+0xb0>
   35ef0:	e89c0003 	ldm	ip, {r0, r1}
   35ef4:	e28dc008 	add	ip, sp, #8
   35ef8:	e88c0003 	stm	ip, {r0, r1}
   35efc:	e59fcfa8 	ldr	ip, [pc, #4008]	; 36eac <checkPLL2Slip+0xb4>
   35f00:	e89c0003 	ldm	ip, {r0, r1}
   35f04:	e28dc010 	add	ip, sp, #16
   35f08:	e88c0003 	stm	ip, {r0, r1}
   35f0c:	e59f0dc0 	ldr	r0, [pc, #3520]	; 36cd4 <checkFlashEEPROMECC+0x188>
   35f10:	e59fcdc0 	ldr	ip, [pc, #3520]	; 36cd8 <checkFlashEEPROMECC+0x18c>
   35f14:	e580c000 	str	ip, [r0]
   35f18:	e59f0dbc 	ldr	r0, [pc, #3516]	; 36cdc <checkFlashEEPROMECC+0x190>
   35f1c:	e59fcdb4 	ldr	ip, [pc, #3508]	; 36cd8 <checkFlashEEPROMECC+0x18c>
   35f20:	e580c000 	str	ip, [r0]
   35f24:	e59f0db4 	ldr	r0, [pc, #3508]	; 36ce0 <checkFlashEEPROMECC+0x194>
   35f28:	e3a0c001 	mov	ip, #1
   35f2c:	e580c000 	str	ip, [r0]
   35f30:	e59f0dac 	ldr	r0, [pc, #3500]	; 36ce4 <checkFlashEEPROMECC+0x198>
   35f34:	e3a0c001 	mov	ip, #1
   35f38:	e580c000 	str	ip, [r0]
   35f3c:	e59f0da4 	ldr	r0, [pc, #3492]	; 36ce8 <checkFlashEEPROMECC+0x19c>
   35f40:	e3a0c001 	mov	ip, #1
   35f44:	e580c000 	str	ip, [r0]
   35f48:	e59f0d9c 	ldr	r0, [pc, #3484]	; 36cec <checkFlashEEPROMECC+0x1a0>
   35f4c:	e3a0c001 	mov	ip, #1
   35f50:	e580c000 	str	ip, [r0]
   35f54:	eb002e65 	bl	418f0 <_coreDisableRamEcc_>
   35f58:	e59f0f50 	ldr	r0, [pc, #3920]	; 36eb0 <checkPLL2Slip+0xb8>
   35f5c:	e590c000 	ldr	ip, [r0]
   35f60:	e22cc001 	eor	ip, ip, #1
   35f64:	e580c000 	str	ip, [r0]
   35f68:	eb002e5c 	bl	418e0 <_coreEnableRamEcc_>
   35f6c:	e59f0d60 	ldr	r0, [pc, #3424]	; 36cd4 <checkFlashEEPROMECC+0x188>
   35f70:	e59fcd78 	ldr	ip, [pc, #3448]	; 36cf0 <checkFlashEEPROMECC+0x1a4>
   35f74:	e580c000 	str	ip, [r0]
   35f78:	e59f0d5c 	ldr	r0, [pc, #3420]	; 36cdc <checkFlashEEPROMECC+0x190>
   35f7c:	e59fcd6c 	ldr	ip, [pc, #3436]	; 36cf0 <checkFlashEEPROMECC+0x1a4>
   35f80:	e580c000 	str	ip, [r0]
   35f84:	e59fcf1c 	ldr	ip, [pc, #3868]	; 36ea8 <checkPLL2Slip+0xb0>
   35f88:	e89c0003 	ldm	ip, {r0, r1}
   35f8c:	e88d0003 	stm	sp, {r0, r1}
   35f90:	e59fcd5c 	ldr	ip, [pc, #3420]	; 36cf4 <checkFlashEEPROMECC+0x1a8>
   35f94:	e59cc000 	ldr	ip, [ip]
   35f98:	e20cc001 	and	ip, ip, #1
   35f9c:	e58dc01c 	str	ip, [sp, #28]
   35fa0:	e59fcd50 	ldr	ip, [pc, #3408]	; 36cf8 <checkFlashEEPROMECC+0x1ac>
   35fa4:	e59cc000 	ldr	ip, [ip]
   35fa8:	e20cc001 	and	ip, ip, #1
   35fac:	e58dc020 	str	ip, [sp, #32]
   35fb0:	e59dc01c 	ldr	ip, [sp, #28]
   35fb4:	e35c0000 	cmp	ip, #0
   35fb8:	1a000005 	bne	35fd4 <checkB1RAMECC+0x10c>
   35fbc:	e59dc020 	ldr	ip, [sp, #32]
   35fc0:	e35c0000 	cmp	ip, #0
   35fc4:	1a000002 	bne	35fd4 <checkB1RAMECC+0x10c>
   35fc8:	e3a0000a 	mov	r0, #10
   35fcc:	ebfffcfb 	bl	353c0 <selftestFailNotification>
   35fd0:	ea000008 	b	35ff8 <checkB1RAMECC+0x130>
   35fd4:	e59f0d18 	ldr	r0, [pc, #3352]	; 36cf4 <checkFlashEEPROMECC+0x1a8>
   35fd8:	e3a0c001 	mov	ip, #1
   35fdc:	e580c000 	str	ip, [r0]
   35fe0:	e59f0d10 	ldr	r0, [pc, #3344]	; 36cf8 <checkFlashEEPROMECC+0x1ac>
   35fe4:	e3a0c001 	mov	ip, #1
   35fe8:	e580c000 	str	ip, [r0]
   35fec:	e59f03f8 	ldr	r0, [pc, #1016]	; 363ec <het1ParityCheck+0xa0>
   35ff0:	e3a0c305 	mov	ip, #335544320	; 0x14000000
   35ff4:	e580c000 	str	ip, [r0]
   35ff8:	e59f0cd4 	ldr	r0, [pc, #3284]	; 36cd4 <checkFlashEEPROMECC+0x188>
   35ffc:	e59fccd4 	ldr	ip, [pc, #3284]	; 36cd8 <checkFlashEEPROMECC+0x18c>
   36000:	e580c000 	str	ip, [r0]
   36004:	e59f0cd0 	ldr	r0, [pc, #3280]	; 36cdc <checkFlashEEPROMECC+0x190>
   36008:	e59fccc8 	ldr	ip, [pc, #3272]	; 36cd8 <checkFlashEEPROMECC+0x18c>
   3600c:	e580c000 	str	ip, [r0]
   36010:	eb002e36 	bl	418f0 <_coreDisableRamEcc_>
   36014:	e59f0f8c 	ldr	r0, [pc, #3980]	; 36fa8 <checkRAMAddrParity+0xf4>
   36018:	e590c000 	ldr	ip, [r0]
   3601c:	e22cc003 	eor	ip, ip, #3
   36020:	e580c000 	str	ip, [r0]
   36024:	eb002e2d 	bl	418e0 <_coreEnableRamEcc_>
   36028:	e59fce7c 	ldr	ip, [pc, #3708]	; 36eac <checkPLL2Slip+0xb4>
   3602c:	e89c0003 	ldm	ip, {r0, r1}
   36030:	e88d0003 	stm	sp, {r0, r1}
   36034:	e3a0c000 	mov	ip, #0
   36038:	e58dc024 	str	ip, [sp, #36]	; 0x24
   3603c:	e59dc024 	ldr	ip, [sp, #36]	; 0x24
   36040:	e35c000a 	cmp	ip, #10
   36044:	2a000005 	bcs	36060 <checkB1RAMECC+0x198>
   36048:	e59dc024 	ldr	ip, [sp, #36]	; 0x24
   3604c:	e28cc001 	add	ip, ip, #1
   36050:	e58dc024 	str	ip, [sp, #36]	; 0x24
   36054:	e59dc024 	ldr	ip, [sp, #36]	; 0x24
   36058:	e35c000a 	cmp	ip, #10
   3605c:	3afffff9 	bcc	36048 <checkB1RAMECC+0x180>
   36060:	e59fcd88 	ldr	ip, [pc, #3464]	; 36df0 <checkPLL1Slip+0xf4>
   36064:	e59cc000 	ldr	ip, [ip]
   36068:	e58dc018 	str	ip, [sp, #24]
   3606c:	e59fcd80 	ldr	ip, [pc, #3456]	; 36df4 <checkPLL1Slip+0xf8>
   36070:	e59cc000 	ldr	ip, [ip]
   36074:	e58dc018 	str	ip, [sp, #24]
   36078:	e59f0c54 	ldr	r0, [pc, #3156]	; 36cd4 <checkFlashEEPROMECC+0x188>
   3607c:	e59fcc6c 	ldr	ip, [pc, #3180]	; 36cf0 <checkFlashEEPROMECC+0x1a4>
   36080:	e580c000 	str	ip, [r0]
   36084:	e59f0c50 	ldr	r0, [pc, #3152]	; 36cdc <checkFlashEEPROMECC+0x190>
   36088:	e59fcc60 	ldr	ip, [pc, #3168]	; 36cf0 <checkFlashEEPROMECC+0x1a4>
   3608c:	e580c000 	str	ip, [r0]
   36090:	e28dc008 	add	ip, sp, #8
   36094:	e89c0003 	ldm	ip, {r0, r1}
   36098:	e59fce08 	ldr	ip, [pc, #3592]	; 36ea8 <checkPLL2Slip+0xb0>
   3609c:	e88c0003 	stm	ip, {r0, r1}
   360a0:	e28dc010 	add	ip, sp, #16
   360a4:	e89c0003 	ldm	ip, {r0, r1}
   360a8:	e59fcdfc 	ldr	ip, [pc, #3580]	; 36eac <checkPLL2Slip+0xb4>
   360ac:	e88c0003 	stm	ip, {r0, r1}
   360b0:	e28dd02c 	add	sp, sp, #44	; 0x2c
   360b4:	e8bd8000 	ldmfd	sp!, {pc}

000360b8 <checkFlashECC>:
   360b8:	e92d4008 	push	{r3, lr}
   360bc:	e3a0c000 	mov	ip, #0
   360c0:	e58dc000 	str	ip, [sp]
   360c4:	e59f0a60 	ldr	r0, [pc, #2656]	; 36b2c <checkClockMonitor+0xc4>
   360c8:	e59fca60 	ldr	ip, [pc, #2656]	; 36b30 <checkClockMonitor+0xc8>
   360cc:	e580c000 	str	ip, [r0]
   360d0:	e59f0ed4 	ldr	r0, [pc, #3796]	; 36fac <checkRAMAddrParity+0xf8>
   360d4:	e59fced4 	ldr	ip, [pc, #3796]	; 36fb0 <checkRAMAddrParity+0xfc>
   360d8:	e580c000 	str	ip, [r0]
   360dc:	e59f0ed0 	ldr	r0, [pc, #3792]	; 36fb4 <checkRAMAddrParity+0x100>
   360e0:	e305ca01 	movw	ip, #23041	; 0x5a01
   360e4:	e580c000 	str	ip, [r0]
   360e8:	e59f0ebc 	ldr	r0, [pc, #3772]	; 36fac <checkRAMAddrParity+0xf8>
   360ec:	e590c000 	ldr	ip, [r0]
   360f0:	e38cc401 	orr	ip, ip, #16777216	; 0x1000000
   360f4:	e580c000 	str	ip, [r0]
   360f8:	e3a0c202 	mov	ip, #536870912	; 0x20000000
   360fc:	e59cc000 	ldr	ip, [ip]
   36100:	e58dc000 	str	ip, [sp]
   36104:	e59f0ea0 	ldr	r0, [pc, #3744]	; 36fac <checkRAMAddrParity+0xf8>
   36108:	e59fcea8 	ldr	ip, [pc, #3752]	; 36fb8 <checkRAMAddrParity+0x104>
   3610c:	e580c000 	str	ip, [r0]
   36110:	e59fca20 	ldr	ip, [pc, #2592]	; 36b38 <checkClockMonitor+0xd0>
   36114:	e59cc000 	ldr	ip, [ip]
   36118:	e31c0002 	tst	ip, #2
   3611c:	1a000002 	bne	3612c <checkFlashECC+0x74>
   36120:	e3a0000b 	mov	r0, #11
   36124:	ebfffca5 	bl	353c0 <selftestFailNotification>
   36128:	ea000018 	b	36190 <checkFlashECC+0xd8>
   3612c:	e59f0a04 	ldr	r0, [pc, #2564]	; 36b38 <checkClockMonitor+0xd0>
   36130:	e3a0c002 	mov	ip, #2
   36134:	e580c000 	str	ip, [r0]
   36138:	e59f02ac 	ldr	r0, [pc, #684]	; 363ec <het1ParityCheck+0xa0>
   3613c:	e3a0c040 	mov	ip, #64	; 0x40
   36140:	e580c000 	str	ip, [r0]
   36144:	e59f0e60 	ldr	r0, [pc, #3680]	; 36fac <checkRAMAddrParity+0xf8>
   36148:	e59fce60 	ldr	ip, [pc, #3680]	; 36fb0 <checkRAMAddrParity+0xfc>
   3614c:	e580c000 	str	ip, [r0]
   36150:	e59f0e5c 	ldr	r0, [pc, #3676]	; 36fb4 <checkRAMAddrParity+0x100>
   36154:	e305ca03 	movw	ip, #23043	; 0x5a03
   36158:	e580c000 	str	ip, [r0]
   3615c:	e59f0e48 	ldr	r0, [pc, #3656]	; 36fac <checkRAMAddrParity+0xf8>
   36160:	e590c000 	ldr	ip, [r0]
   36164:	e38cc401 	orr	ip, ip, #16777216	; 0x1000000
   36168:	e580c000 	str	ip, [r0]
   3616c:	e59fcfa0 	ldr	ip, [pc, #4000]	; 37114 <checkRAMUERRTest+0x158>
   36170:	e59cc000 	ldr	ip, [ip]
   36174:	e58dc000 	str	ip, [sp]
   36178:	e59fc9c4 	ldr	ip, [pc, #2500]	; 36b44 <checkClockMonitor+0xdc>
   3617c:	e59cc000 	ldr	ip, [ip]
   36180:	e58dc000 	str	ip, [sp]
   36184:	e59f0e20 	ldr	r0, [pc, #3616]	; 36fac <checkRAMAddrParity+0xf8>
   36188:	e59fce28 	ldr	ip, [pc, #3624]	; 36fb8 <checkRAMAddrParity+0x104>
   3618c:	e580c000 	str	ip, [r0]
   36190:	e8bd8008 	pop	{r3, pc}

00036194 <custom_dabort>:
   36194:	e92d4008 	push	{r3, lr}
   36198:	e3a00000 	mov	r0, #0
   3619c:	eb003872 	bl	4436c <handlePLLLockFail+0x14>
   361a0:	e8bd8008 	pop	{r3, pc}

000361a4 <custom_undefEntry>:
   361a4:	e92d4008 	push	{r3, lr}
   361a8:	e3a00001 	mov	r0, #1
   361ac:	eb00386e 	bl	4436c <handlePLLLockFail+0x14>
   361b0:	e8bd8008 	pop	{r3, pc}

000361b4 <custom_phantomInterrupt>:
   361b4:	e92d4008 	push	{r3, lr}
   361b8:	e3a00002 	mov	r0, #2
   361bc:	eb00386a 	bl	4436c <handlePLLLockFail+0x14>
   361c0:	e8bd8008 	pop	{r3, pc}

000361c4 <custom_svcEntry>:
   361c4:	e92d4008 	push	{r3, lr}
   361c8:	e3a00003 	mov	r0, #3
   361cc:	eb003866 	bl	4436c <handlePLLLockFail+0x14>
   361d0:	e8bd8008 	pop	{r3, pc}

000361d4 <custom_prefetchEntry>:
   361d4:	e92d4008 	push	{r3, lr}
   361d8:	e3a00004 	mov	r0, #4
   361dc:	eb003862 	bl	4436c <handlePLLLockFail+0x14>
   361e0:	e8bd8008 	pop	{r3, pc}

000361e4 <stcSelfCheckFail>:
   361e4:	eafffffe 	b	361e4 <stcSelfCheckFail>

000361e8 <cpuSelfTestFail>:
   361e8:	eafffffe 	b	361e8 <cpuSelfTestFail>

000361ec <vimParityCheck>:
   361ec:	e92d400e 	push	{r1, r2, r3, lr}
   361f0:	e3a0c000 	mov	ip, #0
   361f4:	e58dc000 	str	ip, [sp]
   361f8:	e59fcf18 	ldr	ip, [pc, #3864]	; 37118 <checkRAMUERRTest+0x15c>
   361fc:	e59cc000 	ldr	ip, [ip]
   36200:	e58dc004 	str	ip, [sp, #4]
   36204:	e59f0f0c 	ldr	r0, [pc, #3852]	; 37118 <checkRAMUERRTest+0x15c>
   36208:	e300c10a 	movw	ip, #266	; 0x10a
   3620c:	e580c000 	str	ip, [r0]
   36210:	e59f0f04 	ldr	r0, [pc, #3844]	; 3711c <checkRAMUERRTest+0x160>
   36214:	e590c000 	ldr	ip, [r0]
   36218:	e22cc001 	eor	ip, ip, #1
   3621c:	e580c000 	str	ip, [r0]
   36220:	e59f0ef0 	ldr	r0, [pc, #3824]	; 37118 <checkRAMUERRTest+0x15c>
   36224:	e3a0c00a 	mov	ip, #10
   36228:	e580c000 	str	ip, [r0]
   3622c:	e59fceec 	ldr	ip, [pc, #3820]	; 37120 <checkRAMUERRTest+0x164>
   36230:	e59cc000 	ldr	ip, [ip]
   36234:	e58dc000 	str	ip, [sp]
   36238:	e59fc1ac 	ldr	ip, [pc, #428]	; 363ec <het1ParityCheck+0xa0>
   3623c:	e59cc000 	ldr	ip, [ip]
   36240:	e31c0902 	tst	ip, #32768	; 0x8000
   36244:	1a000002 	bne	36254 <vimParityCheck+0x68>
   36248:	e3a0000c 	mov	r0, #12
   3624c:	ebfffc5b 	bl	353c0 <selftestFailNotification>
   36250:	ea00000c 	b	36288 <vimParityCheck+0x9c>
   36254:	e59f0fe4 	ldr	r0, [pc, #4068]	; 37240 <fmcBus1ParityCheck+0x11c>
   36258:	e3a0c001 	mov	ip, #1
   3625c:	e580c000 	str	ip, [r0]
   36260:	e59f0184 	ldr	r0, [pc, #388]	; 363ec <het1ParityCheck+0xa0>
   36264:	e3a0c902 	mov	ip, #32768	; 0x8000
   36268:	e580c000 	str	ip, [r0]
   3626c:	e59f0ea4 	ldr	r0, [pc, #3748]	; 37118 <checkRAMUERRTest+0x15c>
   36270:	e300c10a 	movw	ip, #266	; 0x10a
   36274:	e580c000 	str	ip, [r0]
   36278:	e59f0e9c 	ldr	r0, [pc, #3740]	; 3711c <checkRAMUERRTest+0x160>
   3627c:	e590c000 	ldr	ip, [r0]
   36280:	e22cc001 	eor	ip, ip, #1
   36284:	e580c000 	str	ip, [r0]
   36288:	e59f0e88 	ldr	r0, [pc, #3720]	; 37118 <checkRAMUERRTest+0x15c>
   3628c:	e59dc004 	ldr	ip, [sp, #4]
   36290:	e580c000 	str	ip, [r0]
   36294:	e8bd800e 	pop	{r1, r2, r3, pc}

00036298 <dmaParityCheck>:
   36298:	e92d400e 	push	{r1, r2, r3, lr}
   3629c:	e3a0c000 	mov	ip, #0
   362a0:	e58dc000 	str	ip, [sp]
   362a4:	e59fcf98 	ldr	ip, [pc, #3992]	; 37244 <fmcBus1ParityCheck+0x120>
   362a8:	e59cc000 	ldr	ip, [ip]
   362ac:	e58dc004 	str	ip, [sp, #4]
   362b0:	e59f0f8c 	ldr	r0, [pc, #3980]	; 37244 <fmcBus1ParityCheck+0x120>
   362b4:	e300c10a 	movw	ip, #266	; 0x10a
   362b8:	e580c000 	str	ip, [r0]
   362bc:	e59f0fec 	ldr	r0, [pc, #4076]	; 372b0 <pbistFail+0x68>
   362c0:	e590c000 	ldr	ip, [r0]
   362c4:	e22cc001 	eor	ip, ip, #1
   362c8:	e580c000 	str	ip, [r0]
   362cc:	e59f0f70 	ldr	r0, [pc, #3952]	; 37244 <fmcBus1ParityCheck+0x120>
   362d0:	e3a0c00a 	mov	ip, #10
   362d4:	e580c000 	str	ip, [r0]
   362d8:	e59fcfd4 	ldr	ip, [pc, #4052]	; 372b4 <pbistFail+0x6c>
   362dc:	e59cc000 	ldr	ip, [ip]
   362e0:	e58dc000 	str	ip, [sp]
   362e4:	e59fc100 	ldr	ip, [pc, #256]	; 363ec <het1ParityCheck+0xa0>
   362e8:	e59cc000 	ldr	ip, [ip]
   362ec:	e31c0008 	tst	ip, #8
   362f0:	1a000002 	bne	36300 <dmaParityCheck+0x68>
   362f4:	e3a0000d 	mov	r0, #13
   362f8:	ebfffc30 	bl	353c0 <selftestFailNotification>
   362fc:	ea00000c 	b	36334 <dmaParityCheck+0x9c>
   36300:	e59f0fb0 	ldr	r0, [pc, #4016]	; 372b8 <pbistFail+0x70>
   36304:	e3a0c401 	mov	ip, #16777216	; 0x1000000
   36308:	e580c000 	str	ip, [r0]
   3630c:	e59f00d8 	ldr	r0, [pc, #216]	; 363ec <het1ParityCheck+0xa0>
   36310:	e3a0c008 	mov	ip, #8
   36314:	e580c000 	str	ip, [r0]
   36318:	e59f0f24 	ldr	r0, [pc, #3876]	; 37244 <fmcBus1ParityCheck+0x120>
   3631c:	e300c10a 	movw	ip, #266	; 0x10a
   36320:	e580c000 	str	ip, [r0]
   36324:	e59f0f84 	ldr	r0, [pc, #3972]	; 372b0 <pbistFail+0x68>
   36328:	e590c000 	ldr	ip, [r0]
   3632c:	e22cc001 	eor	ip, ip, #1
   36330:	e580c000 	str	ip, [r0]
   36334:	e59f0f08 	ldr	r0, [pc, #3848]	; 37244 <fmcBus1ParityCheck+0x120>
   36338:	e59dc004 	ldr	ip, [sp, #4]
   3633c:	e580c000 	str	ip, [r0]
   36340:	e8bd800e 	pop	{r1, r2, r3, pc}
   36344:	fffff604 	.word	0xfffff604
   36348:	fffff600 	.word	0xfffff600

0003634c <het1ParityCheck>:
   3634c:	e92d400e 	push	{r1, r2, r3, lr}
   36350:	e3a0c000 	mov	ip, #0
   36354:	e58dc000 	str	ip, [sp]
   36358:	e59fcf5c 	ldr	ip, [pc, #3932]	; 372bc <pbistFail+0x74>
   3635c:	e59cc000 	ldr	ip, [ip]
   36360:	e58dc004 	str	ip, [sp, #4]
   36364:	e59f0f50 	ldr	r0, [pc, #3920]	; 372bc <pbistFail+0x74>
   36368:	e300c10a 	movw	ip, #266	; 0x10a
   3636c:	e580c000 	str	ip, [r0]
   36370:	e59f0f48 	ldr	r0, [pc, #3912]	; 372c0 <pbistFail+0x78>
   36374:	e590c000 	ldr	ip, [r0]
   36378:	e22cc001 	eor	ip, ip, #1
   3637c:	e580c000 	str	ip, [r0]
   36380:	e59f0f34 	ldr	r0, [pc, #3892]	; 372bc <pbistFail+0x74>
   36384:	e3a0c00a 	mov	ip, #10
   36388:	e580c000 	str	ip, [r0]
   3638c:	e59fcf30 	ldr	ip, [pc, #3888]	; 372c4 <pbistFail+0x7c>
   36390:	e59cc000 	ldr	ip, [ip]
   36394:	e58dc000 	str	ip, [sp]
   36398:	e59fc04c 	ldr	ip, [pc, #76]	; 363ec <het1ParityCheck+0xa0>
   3639c:	e59cc000 	ldr	ip, [ip]
   363a0:	e31c0080 	tst	ip, #128	; 0x80
   363a4:	1a000002 	bne	363b4 <het1ParityCheck+0x68>
   363a8:	e3a0000e 	mov	r0, #14
   363ac:	ebfffc03 	bl	353c0 <selftestFailNotification>
   363b0:	ea000009 	b	363dc <het1ParityCheck+0x90>
   363b4:	e59f0030 	ldr	r0, [pc, #48]	; 363ec <het1ParityCheck+0xa0>
   363b8:	e3a0c080 	mov	ip, #128	; 0x80
   363bc:	e580c000 	str	ip, [r0]
   363c0:	e59f0ef4 	ldr	r0, [pc, #3828]	; 372bc <pbistFail+0x74>
   363c4:	e300c10a 	movw	ip, #266	; 0x10a
   363c8:	e580c000 	str	ip, [r0]
   363cc:	e59f0eec 	ldr	r0, [pc, #3820]	; 372c0 <pbistFail+0x78>
   363d0:	e590c000 	ldr	ip, [r0]
   363d4:	e22cc001 	eor	ip, ip, #1
   363d8:	e580c000 	str	ip, [r0]
   363dc:	e59f0ed8 	ldr	r0, [pc, #3800]	; 372bc <pbistFail+0x74>
   363e0:	e59dc004 	ldr	ip, [sp, #4]
   363e4:	e580c000 	str	ip, [r0]
   363e8:	e8bd800e 	pop	{r1, r2, r3, pc}
   363ec:	fffff518 	.word	0xfffff518
   363f0:	fffff51c 	.word	0xfffff51c
   363f4:	fffffe04 	.word	0xfffffe04
   363f8:	fffff53c 	.word	0xfffff53c

000363fc <htu1ParityCheck>:
   363fc:	e92d400e 	push	{r1, r2, r3, lr}
   36400:	e3a0c000 	mov	ip, #0
   36404:	e58dc000 	str	ip, [sp]
   36408:	e59fcff4 	ldr	ip, [pc, #4084]	; 37404 <pbistGetConfigValue+0x13c>
   3640c:	e59cc000 	ldr	ip, [ip]
   36410:	e58dc004 	str	ip, [sp, #4]
   36414:	e59f0fe8 	ldr	r0, [pc, #4072]	; 37404 <pbistGetConfigValue+0x13c>
   36418:	e300c10a 	movw	ip, #266	; 0x10a
   3641c:	e580c000 	str	ip, [r0]
   36420:	e59f0fe0 	ldr	r0, [pc, #4064]	; 37408 <pbistGetConfigValue+0x140>
   36424:	e590c000 	ldr	ip, [r0]
   36428:	e22cc001 	eor	ip, ip, #1
   3642c:	e580c000 	str	ip, [r0]
   36430:	e59f0fcc 	ldr	r0, [pc, #4044]	; 37404 <pbistGetConfigValue+0x13c>
   36434:	e3a0c00a 	mov	ip, #10
   36438:	e580c000 	str	ip, [r0]
   3643c:	e59fcfc8 	ldr	ip, [pc, #4040]	; 3740c <pbistGetConfigValue+0x144>
   36440:	e59cc000 	ldr	ip, [ip]
   36444:	e58dc000 	str	ip, [sp]
   36448:	e51fc064 	ldr	ip, [pc, #-100]	; 363ec <het1ParityCheck+0xa0>
   3644c:	e59cc000 	ldr	ip, [ip]
   36450:	e31c0c01 	tst	ip, #256	; 0x100
   36454:	1a000002 	bne	36464 <htu1ParityCheck+0x68>
   36458:	e3a0000f 	mov	r0, #15
   3645c:	ebfffbd7 	bl	353c0 <selftestFailNotification>
   36460:	ea00000c 	b	36498 <htu1ParityCheck+0x9c>
   36464:	e59f0fa4 	ldr	r0, [pc, #4004]	; 37410 <pbistGetConfigValue+0x148>
   36468:	e3a0c801 	mov	ip, #65536	; 0x10000
   3646c:	e580c000 	str	ip, [r0]
   36470:	e51f008c 	ldr	r0, [pc, #-140]	; 363ec <het1ParityCheck+0xa0>
   36474:	e3a0cc01 	mov	ip, #256	; 0x100
   36478:	e580c000 	str	ip, [r0]
   3647c:	e59f0f80 	ldr	r0, [pc, #3968]	; 37404 <pbistGetConfigValue+0x13c>
   36480:	e300c10a 	movw	ip, #266	; 0x10a
   36484:	e580c000 	str	ip, [r0]
   36488:	e59f0f78 	ldr	r0, [pc, #3960]	; 37408 <pbistGetConfigValue+0x140>
   3648c:	e590c000 	ldr	ip, [r0]
   36490:	e22cc001 	eor	ip, ip, #1
   36494:	e580c000 	str	ip, [r0]
   36498:	e59f0f64 	ldr	r0, [pc, #3940]	; 37404 <pbistGetConfigValue+0x13c>
   3649c:	e59dc004 	ldr	ip, [sp, #4]
   364a0:	e580c000 	str	ip, [r0]
   364a4:	e8bd800e 	pop	{r1, r2, r3, pc}
   364a8:	fffff538 	.word	0xfffff538
   364ac:	ffffe108 	.word	0xffffe108
   364b0:	ffffe600 	.word	0xffffe600
   364b4:	00010001 	.word	0x00010001
   364b8:	ffffe63c 	.word	0xffffe63c
   364bc:	ffffe608 	.word	0xffffe608

000364c0 <het2ParityCheck>:
   364c0:	e92d4000 	stmfd	sp!, {lr}
   364c4:	e24dd014 	sub	sp, sp, #20
   364c8:	e3a0c000 	mov	ip, #0
   364cc:	e58dc000 	str	ip, [sp]
   364d0:	e59fcfd0 	ldr	ip, [pc, #4048]	; 374a8 <stcGetConfigValue+0x94>
   364d4:	e59cc000 	ldr	ip, [ip]
   364d8:	e58dc004 	str	ip, [sp, #4]
   364dc:	e3a0c000 	mov	ip, #0
   364e0:	e58dc00c 	str	ip, [sp, #12]
   364e4:	e59f0fbc 	ldr	r0, [pc, #4028]	; 374a8 <stcGetConfigValue+0x94>
   364e8:	e300c10a 	movw	ip, #266	; 0x10a
   364ec:	e580c000 	str	ip, [r0]
   364f0:	e59f0fb4 	ldr	r0, [pc, #4020]	; 374ac <stcGetConfigValue+0x98>
   364f4:	e590c000 	ldr	ip, [r0]
   364f8:	e22cc001 	eor	ip, ip, #1
   364fc:	e580c000 	str	ip, [r0]
   36500:	e59f0fa0 	ldr	r0, [pc, #4000]	; 374a8 <stcGetConfigValue+0x94>
   36504:	e3a0c00a 	mov	ip, #10
   36508:	e580c000 	str	ip, [r0]
   3650c:	e59fcf9c 	ldr	ip, [pc, #3996]	; 374b0 <stcGetConfigValue+0x9c>
   36510:	e59cc000 	ldr	ip, [ip]
   36514:	e58dc000 	str	ip, [sp]
   36518:	e51fc134 	ldr	ip, [pc, #-308]	; 363ec <het1ParityCheck+0xa0>
   3651c:	e59cc000 	ldr	ip, [ip]
   36520:	e20cc080 	and	ip, ip, #128	; 0x80
   36524:	e58dc008 	str	ip, [sp, #8]
   36528:	e59fc530 	ldr	ip, [pc, #1328]	; 36a60 <checkRAMECC+0x24c>
   3652c:	e59cc000 	ldr	ip, [ip]
   36530:	e20cc004 	and	ip, ip, #4
   36534:	e58dc00c 	str	ip, [sp, #12]
   36538:	e59dc008 	ldr	ip, [sp, #8]
   3653c:	e35c0000 	cmp	ip, #0
   36540:	1a000005 	bne	3655c <het2ParityCheck+0x9c>
   36544:	e59dc00c 	ldr	ip, [sp, #12]
   36548:	e35c0000 	cmp	ip, #0
   3654c:	1a000002 	bne	3655c <het2ParityCheck+0x9c>
   36550:	e3a00010 	mov	r0, #16
   36554:	ebfffb99 	bl	353c0 <selftestFailNotification>
   36558:	ea00000c 	b	36590 <het2ParityCheck+0xd0>
   3655c:	e51f0178 	ldr	r0, [pc, #-376]	; 363ec <het1ParityCheck+0xa0>
   36560:	e3a0c080 	mov	ip, #128	; 0x80
   36564:	e580c000 	str	ip, [r0]
   36568:	e59f04f0 	ldr	r0, [pc, #1264]	; 36a60 <checkRAMECC+0x24c>
   3656c:	e3a0c004 	mov	ip, #4
   36570:	e580c000 	str	ip, [r0]
   36574:	e59f0f2c 	ldr	r0, [pc, #3884]	; 374a8 <stcGetConfigValue+0x94>
   36578:	e300c10a 	movw	ip, #266	; 0x10a
   3657c:	e580c000 	str	ip, [r0]
   36580:	e59f0f24 	ldr	r0, [pc, #3876]	; 374ac <stcGetConfigValue+0x98>
   36584:	e590c000 	ldr	ip, [r0]
   36588:	e22cc001 	eor	ip, ip, #1
   3658c:	e580c000 	str	ip, [r0]
   36590:	e59f0f10 	ldr	r0, [pc, #3856]	; 374a8 <stcGetConfigValue+0x94>
   36594:	e59dc004 	ldr	ip, [sp, #4]
   36598:	e580c000 	str	ip, [r0]
   3659c:	e28dd014 	add	sp, sp, #20
   365a0:	e8bd8000 	ldmfd	sp!, {pc}
   365a4:	ffffe604 	.word	0xffffe604

000365a8 <htu2ParityCheck>:
   365a8:	e92d400e 	push	{r1, r2, r3, lr}
   365ac:	e3a0c000 	mov	ip, #0
   365b0:	e58dc000 	str	ip, [sp]
   365b4:	e59fcfcc 	ldr	ip, [pc, #4044]	; 37588 <ccmr4GetConfigValue+0x40>
   365b8:	e59cc000 	ldr	ip, [ip]
   365bc:	e58dc004 	str	ip, [sp, #4]
   365c0:	e59f0fc0 	ldr	r0, [pc, #4032]	; 37588 <ccmr4GetConfigValue+0x40>
   365c4:	e300c10a 	movw	ip, #266	; 0x10a
   365c8:	e580c000 	str	ip, [r0]
   365cc:	e59f0fb8 	ldr	r0, [pc, #4024]	; 3758c <ccmr4GetConfigValue+0x44>
   365d0:	e590c000 	ldr	ip, [r0]
   365d4:	e22cc001 	eor	ip, ip, #1
   365d8:	e580c000 	str	ip, [r0]
   365dc:	e59f0fa4 	ldr	r0, [pc, #4004]	; 37588 <ccmr4GetConfigValue+0x40>
   365e0:	e3a0c00a 	mov	ip, #10
   365e4:	e580c000 	str	ip, [r0]
   365e8:	e59fcfa0 	ldr	ip, [pc, #4000]	; 37590 <ccmr4GetConfigValue+0x48>
   365ec:	e59cc000 	ldr	ip, [ip]
   365f0:	e58dc000 	str	ip, [sp]
   365f4:	e51fc210 	ldr	ip, [pc, #-528]	; 363ec <het1ParityCheck+0xa0>
   365f8:	e59cc000 	ldr	ip, [ip]
   365fc:	e31c0c01 	tst	ip, #256	; 0x100
   36600:	1a000002 	bne	36610 <htu2ParityCheck+0x68>
   36604:	e3a00011 	mov	r0, #17
   36608:	ebfffb6c 	bl	353c0 <selftestFailNotification>
   3660c:	ea00000c 	b	36644 <htu2ParityCheck+0x9c>
   36610:	e59f0f7c 	ldr	r0, [pc, #3964]	; 37594 <ccmr4GetConfigValue+0x4c>
   36614:	e3a0c801 	mov	ip, #65536	; 0x10000
   36618:	e580c000 	str	ip, [r0]
   3661c:	e51f0238 	ldr	r0, [pc, #-568]	; 363ec <het1ParityCheck+0xa0>
   36620:	e3a0cc01 	mov	ip, #256	; 0x100
   36624:	e580c000 	str	ip, [r0]
   36628:	e59f0f58 	ldr	r0, [pc, #3928]	; 37588 <ccmr4GetConfigValue+0x40>
   3662c:	e300c10a 	movw	ip, #266	; 0x10a
   36630:	e580c000 	str	ip, [r0]
   36634:	e59f0f50 	ldr	r0, [pc, #3920]	; 3758c <ccmr4GetConfigValue+0x44>
   36638:	e590c000 	ldr	ip, [r0]
   3663c:	e22cc001 	eor	ip, ip, #1
   36640:	e580c000 	str	ip, [r0]
   36644:	e59f0f3c 	ldr	r0, [pc, #3900]	; 37588 <ccmr4GetConfigValue+0x40>
   36648:	e59dc004 	ldr	ip, [sp, #4]
   3664c:	e580c000 	str	ip, [r0]
   36650:	e8bd800e 	pop	{r1, r2, r3, pc}
   36654:	ffffe580 	.word	0xffffe580
   36658:	ffffe564 	.word	0xffffe564

0003665c <adc1ParityCheck>:
   3665c:	e92d400e 	push	{r1, r2, r3, lr}
   36660:	e3a0c000 	mov	ip, #0
   36664:	e58dc000 	str	ip, [sp]
   36668:	e59fcf28 	ldr	ip, [pc, #3880]	; 37598 <ccmr4GetConfigValue+0x50>
   3666c:	e59cc000 	ldr	ip, [ip]
   36670:	e58dc004 	str	ip, [sp, #4]
   36674:	e59f0f1c 	ldr	r0, [pc, #3868]	; 37598 <ccmr4GetConfigValue+0x50>
   36678:	e300c10a 	movw	ip, #266	; 0x10a
   3667c:	e580c000 	str	ip, [r0]
   36680:	e59fcf14 	ldr	ip, [pc, #3860]	; 3759c <ccmr4GetConfigValue+0x54>
   36684:	e59f0f10 	ldr	r0, [pc, #3856]	; 3759c <ccmr4GetConfigValue+0x54>
   36688:	e59cc000 	ldr	ip, [ip]
   3668c:	e1e0c00c 	mvn	ip, ip
   36690:	e580c000 	str	ip, [r0]
   36694:	e59f0efc 	ldr	r0, [pc, #3836]	; 37598 <ccmr4GetConfigValue+0x50>
   36698:	e3a0c00a 	mov	ip, #10
   3669c:	e580c000 	str	ip, [r0]
   366a0:	e59fcef8 	ldr	ip, [pc, #3832]	; 375a0 <ccmr4GetConfigValue+0x58>
   366a4:	e59cc000 	ldr	ip, [ip]
   366a8:	e58dc000 	str	ip, [sp]
   366ac:	e51fc2c8 	ldr	ip, [pc, #-712]	; 363ec <het1ParityCheck+0xa0>
   366b0:	e59cc000 	ldr	ip, [ip]
   366b4:	e31c0702 	tst	ip, #524288	; 0x80000
   366b8:	1a000002 	bne	366c8 <adc1ParityCheck+0x6c>
   366bc:	e3a00012 	mov	r0, #18
   366c0:	ebfffb3e 	bl	353c0 <selftestFailNotification>
   366c4:	ea00000a 	b	366f4 <adc1ParityCheck+0x98>
   366c8:	e51f02e4 	ldr	r0, [pc, #-740]	; 363ec <het1ParityCheck+0xa0>
   366cc:	e3a0c702 	mov	ip, #524288	; 0x80000
   366d0:	e580c000 	str	ip, [r0]
   366d4:	e59f0ebc 	ldr	r0, [pc, #3772]	; 37598 <ccmr4GetConfigValue+0x50>
   366d8:	e300c10a 	movw	ip, #266	; 0x10a
   366dc:	e580c000 	str	ip, [r0]
   366e0:	e59fceb4 	ldr	ip, [pc, #3764]	; 3759c <ccmr4GetConfigValue+0x54>
   366e4:	e59f0eb0 	ldr	r0, [pc, #3760]	; 3759c <ccmr4GetConfigValue+0x54>
   366e8:	e59cc000 	ldr	ip, [ip]
   366ec:	e1e0c00c 	mvn	ip, ip
   366f0:	e580c000 	str	ip, [r0]
   366f4:	e59f0e9c 	ldr	r0, [pc, #3740]	; 37598 <ccmr4GetConfigValue+0x50>
   366f8:	e59dc004 	ldr	ip, [sp, #4]
   366fc:	e580c000 	str	ip, [r0]
   36700:	e8bd800e 	pop	{r1, r2, r3, pc}
   36704:	ffffe560 	.word	0xffffe560
   36708:	ffffe400 	.word	0xffffe400
   3670c:	ffffe440 	.word	0xffffe440
   36710:	ffffe404 	.word	0xffffe404
   36714:	ffffe444 	.word	0xffffe444
   36718:	ffffe408 	.word	0xffffe408
   3671c:	ffffe448 	.word	0xffffe448
   36720:	ffffe40c 	.word	0xffffe40c
   36724:	4c000004 	.word	0x4c000004
   36728:	ffffe44c 	.word	0xffffe44c
   3672c:	ffffe410 	.word	0xffffe410
   36730:	4c000005 	.word	0x4c000005
   36734:	ffffe450 	.word	0xffffe450
   36738:	ffffe414 	.word	0xffffe414
   3673c:	4c000006 	.word	0x4c000006
   36740:	ffffe454 	.word	0xffffe454
   36744:	ffffe418 	.word	0xffffe418
   36748:	ffffe458 	.word	0xffffe458
   3674c:	ffffe56c 	.word	0xffffe56c
   36750:	ffffe590 	.word	0xffffe590

00036754 <adc2ParityCheck>:
   36754:	e92d400e 	push	{r1, r2, r3, lr}
   36758:	e3a0c000 	mov	ip, #0
   3675c:	e58dc000 	str	ip, [sp]
   36760:	e59fce3c 	ldr	ip, [pc, #3644]	; 375a4 <ccmr4GetConfigValue+0x5c>
   36764:	e59cc000 	ldr	ip, [ip]
   36768:	e58dc004 	str	ip, [sp, #4]
   3676c:	e59f0e30 	ldr	r0, [pc, #3632]	; 375a4 <ccmr4GetConfigValue+0x5c>
   36770:	e300c10a 	movw	ip, #266	; 0x10a
   36774:	e580c000 	str	ip, [r0]
   36778:	e59fce28 	ldr	ip, [pc, #3624]	; 375a8 <ccmr4GetConfigValue+0x60>
   3677c:	e59f0e24 	ldr	r0, [pc, #3620]	; 375a8 <ccmr4GetConfigValue+0x60>
   36780:	e59cc000 	ldr	ip, [ip]
   36784:	e1e0c00c 	mvn	ip, ip
   36788:	e580c000 	str	ip, [r0]
   3678c:	e59f0e10 	ldr	r0, [pc, #3600]	; 375a4 <ccmr4GetConfigValue+0x5c>
   36790:	e3a0c00a 	mov	ip, #10
   36794:	e580c000 	str	ip, [r0]
   36798:	e59fce0c 	ldr	ip, [pc, #3596]	; 375ac <ccmr4GetConfigValue+0x64>
   3679c:	e59cc000 	ldr	ip, [ip]
   367a0:	e58dc000 	str	ip, [sp]
   367a4:	e51fc3c0 	ldr	ip, [pc, #-960]	; 363ec <het1ParityCheck+0xa0>
   367a8:	e59cc000 	ldr	ip, [ip]
   367ac:	e31c0002 	tst	ip, #2
   367b0:	1a000002 	bne	367c0 <adc2ParityCheck+0x6c>
   367b4:	e3a00013 	mov	r0, #19
   367b8:	ebfffb00 	bl	353c0 <selftestFailNotification>
   367bc:	ea00000a 	b	367ec <adc2ParityCheck+0x98>
   367c0:	e51f03dc 	ldr	r0, [pc, #-988]	; 363ec <het1ParityCheck+0xa0>
   367c4:	e3a0c002 	mov	ip, #2
   367c8:	e580c000 	str	ip, [r0]
   367cc:	e59f0dd0 	ldr	r0, [pc, #3536]	; 375a4 <ccmr4GetConfigValue+0x5c>
   367d0:	e300c10a 	movw	ip, #266	; 0x10a
   367d4:	e580c000 	str	ip, [r0]
   367d8:	e59fcdc8 	ldr	ip, [pc, #3528]	; 375a8 <ccmr4GetConfigValue+0x60>
   367dc:	e59f0dc4 	ldr	r0, [pc, #3524]	; 375a8 <ccmr4GetConfigValue+0x60>
   367e0:	e59cc000 	ldr	ip, [ip]
   367e4:	e1e0c00c 	mvn	ip, ip
   367e8:	e580c000 	str	ip, [r0]
   367ec:	e59f0db0 	ldr	r0, [pc, #3504]	; 375a4 <ccmr4GetConfigValue+0x5c>
   367f0:	e59dc004 	ldr	ip, [sp, #4]
   367f4:	e580c000 	str	ip, [r0]
   367f8:	e8bd800e 	pop	{r1, r2, r3, pc}
   367fc:	ffffe5c4 	.word	0xffffe5c4
   36800:	ffffe5c8 	.word	0xffffe5c8
   36804:	ffffe5cc 	.word	0xffffe5cc
   36808:	ffffe588 	.word	0xffffe588
   3680c:	ffffe5c0 	.word	0xffffe5c0
   36810:	fff8c03c 	.word	0xfff8c03c

00036814 <checkRAMECC>:
   36814:	e92d4000 	stmfd	sp!, {lr}
   36818:	e24dd034 	sub	sp, sp, #52	; 0x34
   3681c:	e3a00000 	mov	r0, #0
   36820:	e3a01000 	mov	r1, #0
   36824:	e88d0003 	stm	sp, {r0, r1}
   36828:	e3a0c000 	mov	ip, #0
   3682c:	e58dc028 	str	ip, [sp, #40]	; 0x28
   36830:	e3a0c000 	mov	ip, #0
   36834:	e58dc030 	str	ip, [sp, #48]	; 0x30
   36838:	e3a0c302 	mov	ip, #134217728	; 0x8000000
   3683c:	e89c0003 	ldm	ip, {r0, r1}
   36840:	e28dc008 	add	ip, sp, #8
   36844:	e88c0003 	stm	ip, {r0, r1}
   36848:	e59fc658 	ldr	ip, [pc, #1624]	; 36ea8 <checkPLL2Slip+0xb0>
   3684c:	e89c0003 	ldm	ip, {r0, r1}
   36850:	e28dc010 	add	ip, sp, #16
   36854:	e88c0003 	stm	ip, {r0, r1}
   36858:	e59fc470 	ldr	ip, [pc, #1136]	; 36cd0 <checkFlashEEPROMECC+0x184>
   3685c:	e89c0003 	ldm	ip, {r0, r1}
   36860:	e28dc018 	add	ip, sp, #24
   36864:	e88c0003 	stm	ip, {r0, r1}
   36868:	e59fc63c 	ldr	ip, [pc, #1596]	; 36eac <checkPLL2Slip+0xb4>
   3686c:	e89c0003 	ldm	ip, {r0, r1}
   36870:	e28dc020 	add	ip, sp, #32
   36874:	e88c0003 	stm	ip, {r0, r1}
   36878:	e59f0d30 	ldr	r0, [pc, #3376]	; 375b0 <ccmr4GetConfigValue+0x68>
   3687c:	e3a0c000 	mov	ip, #0
   36880:	e580c000 	str	ip, [r0]
   36884:	e59f0d28 	ldr	r0, [pc, #3368]	; 375b4 <ccmr4GetConfigValue+0x6c>
   36888:	e3a0c000 	mov	ip, #0
   3688c:	e580c000 	str	ip, [r0]
   36890:	e59f0448 	ldr	r0, [pc, #1096]	; 36ce0 <checkFlashEEPROMECC+0x194>
   36894:	e3a0c001 	mov	ip, #1
   36898:	e580c000 	str	ip, [r0]
   3689c:	e59f0440 	ldr	r0, [pc, #1088]	; 36ce4 <checkFlashEEPROMECC+0x198>
   368a0:	e3a0c001 	mov	ip, #1
   368a4:	e580c000 	str	ip, [r0]
   368a8:	e59f0438 	ldr	r0, [pc, #1080]	; 36ce8 <checkFlashEEPROMECC+0x19c>
   368ac:	e3a0c001 	mov	ip, #1
   368b0:	e580c000 	str	ip, [r0]
   368b4:	e59f0430 	ldr	r0, [pc, #1072]	; 36cec <checkFlashEEPROMECC+0x1a0>
   368b8:	e3a0c001 	mov	ip, #1
   368bc:	e580c000 	str	ip, [r0]
   368c0:	e59f040c 	ldr	r0, [pc, #1036]	; 36cd4 <checkFlashEEPROMECC+0x188>
   368c4:	e59fc40c 	ldr	ip, [pc, #1036]	; 36cd8 <checkFlashEEPROMECC+0x18c>
   368c8:	e580c000 	str	ip, [r0]
   368cc:	e59f0408 	ldr	r0, [pc, #1032]	; 36cdc <checkFlashEEPROMECC+0x190>
   368d0:	e59fc400 	ldr	ip, [pc, #1024]	; 36cd8 <checkFlashEEPROMECC+0x18c>
   368d4:	e580c000 	str	ip, [r0]
   368d8:	eb002c04 	bl	418f0 <_coreDisableRamEcc_>
   368dc:	e3a00521 	mov	r0, #138412032	; 0x8400000
   368e0:	e590c000 	ldr	ip, [r0]
   368e4:	e22cc001 	eor	ip, ip, #1
   368e8:	e580c000 	str	ip, [r0]
   368ec:	e59f05bc 	ldr	r0, [pc, #1468]	; 36eb0 <checkPLL2Slip+0xb8>
   368f0:	e590c000 	ldr	ip, [r0]
   368f4:	e22cc001 	eor	ip, ip, #1
   368f8:	e580c000 	str	ip, [r0]
   368fc:	eb002bf7 	bl	418e0 <_coreEnableRamEcc_>
   36900:	e3a0c302 	mov	ip, #134217728	; 0x8000000
   36904:	e89c0003 	ldm	ip, {r0, r1}
   36908:	e88d0003 	stm	sp, {r0, r1}
   3690c:	e59fc594 	ldr	ip, [pc, #1428]	; 36ea8 <checkPLL2Slip+0xb0>
   36910:	e89c0003 	ldm	ip, {r0, r1}
   36914:	e88d0003 	stm	sp, {r0, r1}
   36918:	e59fc3d4 	ldr	ip, [pc, #980]	; 36cf4 <checkFlashEEPROMECC+0x1a8>
   3691c:	e59cc000 	ldr	ip, [ip]
   36920:	e20cc001 	and	ip, ip, #1
   36924:	e58dc02c 	str	ip, [sp, #44]	; 0x2c
   36928:	e59fc3c8 	ldr	ip, [pc, #968]	; 36cf8 <checkFlashEEPROMECC+0x1ac>
   3692c:	e59cc000 	ldr	ip, [ip]
   36930:	e20cc001 	and	ip, ip, #1
   36934:	e58dc030 	str	ip, [sp, #48]	; 0x30
   36938:	e59dc02c 	ldr	ip, [sp, #44]	; 0x2c
   3693c:	e35c0000 	cmp	ip, #0
   36940:	0a000002 	beq	36950 <checkRAMECC+0x13c>
   36944:	e59dc030 	ldr	ip, [sp, #48]	; 0x30
   36948:	e35c0000 	cmp	ip, #0
   3694c:	1a000002 	bne	3695c <checkRAMECC+0x148>
   36950:	e3a0001a 	mov	r0, #26
   36954:	ebfffa99 	bl	353c0 <selftestFailNotification>
   36958:	ea000010 	b	369a0 <checkRAMECC+0x18c>
   3695c:	e51fc578 	ldr	ip, [pc, #-1400]	; 363ec <het1ParityCheck+0xa0>
   36960:	e59cc000 	ldr	ip, [ip]
   36964:	e20cc305 	and	ip, ip, #335544320	; 0x14000000
   36968:	e37c033b 	cmn	ip, #-335544320	; 0xec000000
   3696c:	0a000002 	beq	3697c <checkRAMECC+0x168>
   36970:	e3a0001b 	mov	r0, #27
   36974:	ebfffa91 	bl	353c0 <selftestFailNotification>
   36978:	ea000008 	b	369a0 <checkRAMECC+0x18c>
   3697c:	e59f0370 	ldr	r0, [pc, #880]	; 36cf4 <checkFlashEEPROMECC+0x1a8>
   36980:	e3a0c001 	mov	ip, #1
   36984:	e580c000 	str	ip, [r0]
   36988:	e59f0368 	ldr	r0, [pc, #872]	; 36cf8 <checkFlashEEPROMECC+0x1ac>
   3698c:	e3a0c001 	mov	ip, #1
   36990:	e580c000 	str	ip, [r0]
   36994:	e51f05b0 	ldr	r0, [pc, #-1456]	; 363ec <het1ParityCheck+0xa0>
   36998:	e3a0c305 	mov	ip, #335544320	; 0x14000000
   3699c:	e580c000 	str	ip, [r0]
   369a0:	eb002bd2 	bl	418f0 <_coreDisableRamEcc_>
   369a4:	e59f0440 	ldr	r0, [pc, #1088]	; 36dec <checkPLL1Slip+0xf0>
   369a8:	e590c000 	ldr	ip, [r0]
   369ac:	e22cc003 	eor	ip, ip, #3
   369b0:	e580c000 	str	ip, [r0]
   369b4:	e59f05ec 	ldr	r0, [pc, #1516]	; 36fa8 <checkRAMAddrParity+0xf4>
   369b8:	e590c000 	ldr	ip, [r0]
   369bc:	e22cc003 	eor	ip, ip, #3
   369c0:	e580c000 	str	ip, [r0]
   369c4:	eb002bc5 	bl	418e0 <_coreEnableRamEcc_>
   369c8:	e59fc300 	ldr	ip, [pc, #768]	; 36cd0 <checkFlashEEPROMECC+0x184>
   369cc:	e89c0003 	ldm	ip, {r0, r1}
   369d0:	e88d0003 	stm	sp, {r0, r1}
   369d4:	e59fc4d0 	ldr	ip, [pc, #1232]	; 36eac <checkPLL2Slip+0xb4>
   369d8:	e89c0003 	ldm	ip, {r0, r1}
   369dc:	e88d0003 	stm	sp, {r0, r1}
   369e0:	e59fc408 	ldr	ip, [pc, #1032]	; 36df0 <checkPLL1Slip+0xf4>
   369e4:	e59cc000 	ldr	ip, [ip]
   369e8:	e58dc028 	str	ip, [sp, #40]	; 0x28
   369ec:	e59fc400 	ldr	ip, [pc, #1024]	; 36df4 <checkPLL1Slip+0xf8>
   369f0:	e59cc000 	ldr	ip, [ip]
   369f4:	e58dc028 	str	ip, [sp, #40]	; 0x28
   369f8:	e59f02d4 	ldr	r0, [pc, #724]	; 36cd4 <checkFlashEEPROMECC+0x188>
   369fc:	e59fc2ec 	ldr	ip, [pc, #748]	; 36cf0 <checkFlashEEPROMECC+0x1a4>
   36a00:	e580c000 	str	ip, [r0]
   36a04:	e59f02d0 	ldr	r0, [pc, #720]	; 36cdc <checkFlashEEPROMECC+0x190>
   36a08:	e59fc2e0 	ldr	ip, [pc, #736]	; 36cf0 <checkFlashEEPROMECC+0x1a4>
   36a0c:	e580c000 	str	ip, [r0]
   36a10:	e28dc008 	add	ip, sp, #8
   36a14:	e89c0003 	ldm	ip, {r0, r1}
   36a18:	e3a0c302 	mov	ip, #134217728	; 0x8000000
   36a1c:	e88c0003 	stm	ip, {r0, r1}
   36a20:	e28dc010 	add	ip, sp, #16
   36a24:	e89c0003 	ldm	ip, {r0, r1}
   36a28:	e59fc478 	ldr	ip, [pc, #1144]	; 36ea8 <checkPLL2Slip+0xb0>
   36a2c:	e88c0003 	stm	ip, {r0, r1}
   36a30:	e28dc018 	add	ip, sp, #24
   36a34:	e89c0003 	ldm	ip, {r0, r1}
   36a38:	e59fc290 	ldr	ip, [pc, #656]	; 36cd0 <checkFlashEEPROMECC+0x184>
   36a3c:	e88c0003 	stm	ip, {r0, r1}
   36a40:	e28dc020 	add	ip, sp, #32
   36a44:	e89c0003 	ldm	ip, {r0, r1}
   36a48:	e59fc45c 	ldr	ip, [pc, #1116]	; 36eac <checkPLL2Slip+0xb4>
   36a4c:	e88c0003 	stm	ip, {r0, r1}
   36a50:	e28dd034 	add	sp, sp, #52	; 0x34
   36a54:	e8bd8000 	ldmfd	sp!, {pc}
   36a58:	fff8c01c 	.word	0xfff8c01c
   36a5c:	fff8c02c 	.word	0xfff8c02c
   36a60:	fffff558 	.word	0xfffff558
   36a64:	fffff520 	.word	0xfffff520

00036a68 <checkClockMonitor>:
   36a68:	e92d4008 	push	{r3, lr}
   36a6c:	e3e00073 	mvn	r0, #115	; 0x73
   36a70:	e590c000 	ldr	ip, [r0]
   36a74:	e38cc403 	orr	ip, ip, #50331648	; 0x3000000
   36a78:	e580c000 	str	ip, [r0]
   36a7c:	e3e0c0b7 	mvn	ip, #183	; 0xb7
   36a80:	e59cc000 	ldr	ip, [ip]
   36a84:	e58dc000 	str	ip, [sp]
   36a88:	e3e000b7 	mvn	r0, #183	; 0xb7
   36a8c:	e59fce90 	ldr	ip, [pc, #3728]	; 37924 <disableParity+0x4>
   36a90:	e580c000 	str	ip, [r0]
   36a94:	e3e000cb 	mvn	r0, #203	; 0xcb
   36a98:	e3a0c001 	mov	ip, #1
   36a9c:	e580c000 	str	ip, [r0]
   36aa0:	e3e0c013 	mvn	ip, #19
   36aa4:	e59cc000 	ldr	ip, [ip]
   36aa8:	e31c0001 	tst	ip, #1
   36aac:	0afffffb 	beq	36aa0 <checkClockMonitor+0x38>
   36ab0:	e51fc6cc 	ldr	ip, [pc, #-1740]	; 363ec <het1ParityCheck+0xa0>
   36ab4:	e59cc000 	ldr	ip, [ip]
   36ab8:	e31c0b02 	tst	ip, #2048	; 0x800
   36abc:	1a000002 	bne	36acc <checkClockMonitor+0x64>
   36ac0:	e3a0001c 	mov	r0, #28
   36ac4:	ebfffa3d 	bl	353c0 <selftestFailNotification>
   36ac8:	ea000013 	b	36b1c <checkClockMonitor+0xb4>
   36acc:	e51f06e8 	ldr	r0, [pc, #-1768]	; 363ec <het1ParityCheck+0xa0>
   36ad0:	e3a0cb02 	mov	ip, #2048	; 0x800
   36ad4:	e580c000 	str	ip, [r0]
   36ad8:	e3e00073 	mvn	r0, #115	; 0x73
   36adc:	e590c000 	ldr	ip, [r0]
   36ae0:	e3ccc403 	bic	ip, ip, #50331648	; 0x3000000
   36ae4:	e580c000 	str	ip, [r0]
   36ae8:	e3e000c7 	mvn	r0, #199	; 0xc7
   36aec:	e3a0c001 	mov	ip, #1
   36af0:	e580c000 	str	ip, [r0]
   36af4:	e3e0c0ab 	mvn	ip, #171	; 0xab
   36af8:	e59cc000 	ldr	ip, [ip]
   36afc:	e31c0003 	tst	ip, #3
   36b00:	0afffffb 	beq	36af4 <checkClockMonitor+0x8c>
   36b04:	e3e00013 	mvn	r0, #19
   36b08:	e300c301 	movw	ip, #769	; 0x301
   36b0c:	e580c000 	str	ip, [r0]
   36b10:	e3e000b7 	mvn	r0, #183	; 0xb7
   36b14:	e59dc000 	ldr	ip, [sp]
   36b18:	e580c000 	str	ip, [r0]
   36b1c:	e8bd8008 	pop	{r3, pc}
   36b20:	fff8c048 	.word	0xfff8c048
   36b24:	fff8c04c 	.word	0xfff8c04c
   36b28:	5362f97f 	.word	0x5362f97f
   36b2c:	fff87008 	.word	0xfff87008
   36b30:	000a060a 	.word	0x000a060a
   36b34:	f00803f0 	.word	0xf00803f0
   36b38:	fff8701c 	.word	0xfff8701c
   36b3c:	00010006 	.word	0x00010006
   36b40:	f00803f8 	.word	0xf00803f8
   36b44:	fff87020 	.word	0xfff87020
   36b48:	00020100 	.word	0x00020100

00036b4c <checkFlashEEPROMECC>:
   36b4c:	e92d400e 	push	{r1, r2, r3, lr}
   36b50:	e59f0dd0 	ldr	r0, [pc, #3536]	; 37928 <disableParity+0x8>
   36b54:	e590c000 	ldr	ip, [r0]
   36b58:	e38cc001 	orr	ip, ip, #1
   36b5c:	e580c000 	str	ip, [r0]
   36b60:	e59f0dc4 	ldr	r0, [pc, #3524]	; 3792c <disableParity+0xc>
   36b64:	e590c000 	ldr	ip, [r0]
   36b68:	e38ccc01 	orr	ip, ip, #256	; 0x100
   36b6c:	e580c000 	str	ip, [r0]
   36b70:	e59f0db8 	ldr	r0, [pc, #3512]	; 37930 <disableParity+0x10>
   36b74:	e59fcdb8 	ldr	ip, [pc, #3512]	; 37934 <disableParity+0x14>
   36b78:	e580c000 	str	ip, [r0]
   36b7c:	e59f0db4 	ldr	r0, [pc, #3508]	; 37938 <disableParity+0x18>
   36b80:	e3a0c000 	mov	ip, #0
   36b84:	e580c000 	str	ip, [r0]
   36b88:	e59f0dac 	ldr	r0, [pc, #3500]	; 3793c <disableParity+0x1c>
   36b8c:	e3a0c000 	mov	ip, #0
   36b90:	e580c000 	str	ip, [r0]
   36b94:	e59fcda4 	ldr	ip, [pc, #3492]	; 37940 <disableParity+0x20>
   36b98:	e59cc000 	ldr	ip, [ip]
   36b9c:	e58dc000 	str	ip, [sp]
   36ba0:	e59f0d90 	ldr	r0, [pc, #3472]	; 37938 <disableParity+0x18>
   36ba4:	e3a0c000 	mov	ip, #0
   36ba8:	e580c000 	str	ip, [r0]
   36bac:	e59f0d88 	ldr	r0, [pc, #3464]	; 3793c <disableParity+0x1c>
   36bb0:	e3a0c001 	mov	ip, #1
   36bb4:	e580c000 	str	ip, [r0]
   36bb8:	e59f03ec 	ldr	r0, [pc, #1004]	; 36fac <checkRAMAddrParity+0xf8>
   36bbc:	e59fcd80 	ldr	ip, [pc, #3456]	; 37944 <disableParity+0x24>
   36bc0:	e580c000 	str	ip, [r0]
   36bc4:	e59f0d74 	ldr	r0, [pc, #3444]	; 37940 <disableParity+0x20>
   36bc8:	e59dc000 	ldr	ip, [sp]
   36bcc:	e580c000 	str	ip, [r0]
   36bd0:	e59f03d4 	ldr	r0, [pc, #980]	; 36fac <checkRAMAddrParity+0xf8>
   36bd4:	e590c000 	ldr	ip, [r0]
   36bd8:	e38cc401 	orr	ip, ip, #16777216	; 0x1000000
   36bdc:	e580c000 	str	ip, [r0]
   36be0:	e59fcd60 	ldr	ip, [pc, #3424]	; 37948 <disableParity+0x28>
   36be4:	e59cc000 	ldr	ip, [ip]
   36be8:	e31c0001 	tst	ip, #1
   36bec:	1a000002 	bne	36bfc <checkFlashEEPROMECC+0xb0>
   36bf0:	e3a0001d 	mov	r0, #29
   36bf4:	ebfff9f1 	bl	353c0 <selftestFailNotification>
   36bf8:	ea00000c 	b	36c30 <checkFlashEEPROMECC+0xe4>
   36bfc:	e51fc1a4 	ldr	ip, [pc, #-420]	; 36a60 <checkRAMECC+0x24c>
   36c00:	e59cc000 	ldr	ip, [ip]
   36c04:	e31c0008 	tst	ip, #8
   36c08:	1a000002 	bne	36c18 <checkFlashEEPROMECC+0xcc>
   36c0c:	e3a0001f 	mov	r0, #31
   36c10:	ebfff9ea 	bl	353c0 <selftestFailNotification>
   36c14:	ea000005 	b	36c30 <checkFlashEEPROMECC+0xe4>
   36c18:	e59f0d28 	ldr	r0, [pc, #3368]	; 37948 <disableParity+0x28>
   36c1c:	e3a0c00f 	mov	ip, #15
   36c20:	e580c000 	str	ip, [r0]
   36c24:	e51f01cc 	ldr	r0, [pc, #-460]	; 36a60 <checkRAMECC+0x24c>
   36c28:	e3a0c008 	mov	ip, #8
   36c2c:	e580c000 	str	ip, [r0]
   36c30:	e59f0d00 	ldr	r0, [pc, #3328]	; 37938 <disableParity+0x18>
   36c34:	e3a0c000 	mov	ip, #0
   36c38:	e580c000 	str	ip, [r0]
   36c3c:	e59f0cf8 	ldr	r0, [pc, #3320]	; 3793c <disableParity+0x1c>
   36c40:	e3a0c003 	mov	ip, #3
   36c44:	e580c000 	str	ip, [r0]
   36c48:	e59f035c 	ldr	r0, [pc, #860]	; 36fac <checkRAMAddrParity+0xf8>
   36c4c:	e59fccf0 	ldr	ip, [pc, #3312]	; 37944 <disableParity+0x24>
   36c50:	e580c000 	str	ip, [r0]
   36c54:	e59f0ce4 	ldr	r0, [pc, #3300]	; 37940 <disableParity+0x20>
   36c58:	e59dc000 	ldr	ip, [sp]
   36c5c:	e580c000 	str	ip, [r0]
   36c60:	e59f0344 	ldr	r0, [pc, #836]	; 36fac <checkRAMAddrParity+0xf8>
   36c64:	e590c000 	ldr	ip, [r0]
   36c68:	e38cc401 	orr	ip, ip, #16777216	; 0x1000000
   36c6c:	e580c000 	str	ip, [r0]
   36c70:	e59fccd0 	ldr	ip, [pc, #3280]	; 37948 <disableParity+0x28>
   36c74:	e59cc000 	ldr	ip, [ip]
   36c78:	e31c0c01 	tst	ip, #256	; 0x100
   36c7c:	1a000002 	bne	36c8c <checkFlashEEPROMECC+0x140>
   36c80:	e3a00020 	mov	r0, #32
   36c84:	ebfff9cd 	bl	353c0 <selftestFailNotification>
   36c88:	ea00000f 	b	36ccc <checkFlashEEPROMECC+0x180>
   36c8c:	e51fc234 	ldr	ip, [pc, #-564]	; 36a60 <checkRAMECC+0x24c>
   36c90:	e59cc000 	ldr	ip, [ip]
   36c94:	e31c0010 	tst	ip, #16
   36c98:	1a000002 	bne	36ca8 <checkFlashEEPROMECC+0x15c>
   36c9c:	e3a00021 	mov	r0, #33	; 0x21
   36ca0:	ebfff9c6 	bl	353c0 <selftestFailNotification>
   36ca4:	ea000008 	b	36ccc <checkFlashEEPROMECC+0x180>
   36ca8:	e59f0c98 	ldr	r0, [pc, #3224]	; 37948 <disableParity+0x28>
   36cac:	e3a0cc11 	mov	ip, #4352	; 0x1100
   36cb0:	e580c000 	str	ip, [r0]
   36cb4:	e59fcc90 	ldr	ip, [pc, #3216]	; 3794c <disableParity+0x2c>
   36cb8:	e59cc000 	ldr	ip, [ip]
   36cbc:	e58dc004 	str	ip, [sp, #4]
   36cc0:	e51f0268 	ldr	r0, [pc, #-616]	; 36a60 <checkRAMECC+0x24c>
   36cc4:	e3a0c010 	mov	ip, #16
   36cc8:	e580c000 	str	ip, [r0]
   36ccc:	e8bd800e 	pop	{r1, r2, r3, pc}
   36cd0:	08000010 	.word	0x08000010
   36cd4:	fffff800 	.word	0xfffff800
   36cd8:	0005010a 	.word	0x0005010a
   36cdc:	fffff900 	.word	0xfffff900
   36ce0:	fffff804 	.word	0xfffff804
   36ce4:	fffff904 	.word	0xfffff904
   36ce8:	fffff80c 	.word	0xfffff80c
   36cec:	fffff90c 	.word	0xfffff90c
   36cf0:	0005000a 	.word	0x0005000a
   36cf4:	fffff810 	.word	0xfffff810
   36cf8:	fffff910 	.word	0xfffff910

00036cfc <checkPLL1Slip>:
   36cfc:	e92d400e 	push	{r1, r2, r3, lr}
   36d00:	e3e0c0b7 	mvn	ip, #183	; 0xb7
   36d04:	e59cc000 	ldr	ip, [ip]
   36d08:	e58dc000 	str	ip, [sp]
   36d0c:	e3e0c08f 	mvn	ip, #143	; 0x8f
   36d10:	e59cc000 	ldr	ip, [ip]
   36d14:	e58dc004 	str	ip, [sp, #4]
   36d18:	e3e000b7 	mvn	r0, #183	; 0xb7
   36d1c:	e3a0c000 	mov	ip, #0
   36d20:	e580c000 	str	ip, [r0]
   36d24:	e3e0008f 	mvn	r0, #143	; 0x8f
   36d28:	e590c000 	ldr	ip, [r0]
   36d2c:	e3ccc20e 	bic	ip, ip, #-536870912	; 0xe0000000
   36d30:	e580c000 	str	ip, [r0]
   36d34:	e3e0008f 	mvn	r0, #143	; 0x8f
   36d38:	e590c000 	ldr	ip, [r0]
   36d3c:	e22cc902 	eor	ip, ip, #32768	; 0x8000
   36d40:	e580c000 	str	ip, [r0]
   36d44:	e3e0c013 	mvn	ip, #19
   36d48:	e59cc000 	ldr	ip, [ip]
   36d4c:	e31c0c03 	tst	ip, #768	; 0x300
   36d50:	0afffffb 	beq	36d44 <checkPLL1Slip+0x48>
   36d54:	e51fc970 	ldr	ip, [pc, #-2416]	; 363ec <het1ParityCheck+0xa0>
   36d58:	e59cc000 	ldr	ip, [ip]
   36d5c:	e31c0b01 	tst	ip, #1024	; 0x400
   36d60:	1a000002 	bne	36d70 <checkPLL1Slip+0x74>
   36d64:	e3a00022 	mov	r0, #34	; 0x22
   36d68:	ebfff994 	bl	353c0 <selftestFailNotification>
   36d6c:	ea00001d 	b	36de8 <checkPLL1Slip+0xec>
   36d70:	e3e000cb 	mvn	r0, #203	; 0xcb
   36d74:	e3a0c002 	mov	ip, #2
   36d78:	e580c000 	str	ip, [r0]
   36d7c:	e3e0c0cf 	mvn	ip, #207	; 0xcf
   36d80:	e59cc000 	ldr	ip, [ip]
   36d84:	e31c0002 	tst	ip, #2
   36d88:	0afffffb 	beq	36d7c <checkPLL1Slip+0x80>
   36d8c:	e3e0008f 	mvn	r0, #143	; 0x8f
   36d90:	e590c000 	ldr	ip, [r0]
   36d94:	e22cc902 	eor	ip, ip, #32768	; 0x8000
   36d98:	e580c000 	str	ip, [r0]
   36d9c:	e3e000c7 	mvn	r0, #199	; 0xc7
   36da0:	e3a0c002 	mov	ip, #2
   36da4:	e580c000 	str	ip, [r0]
   36da8:	e3e0c0cf 	mvn	ip, #207	; 0xcf
   36dac:	e59cc000 	ldr	ip, [ip]
   36db0:	e31c0002 	tst	ip, #2
   36db4:	1afffffb 	bne	36da8 <checkPLL1Slip+0xac>
   36db8:	e3e000b7 	mvn	r0, #183	; 0xb7
   36dbc:	e59dc000 	ldr	ip, [sp]
   36dc0:	e580c000 	str	ip, [r0]
   36dc4:	e3e00013 	mvn	r0, #19
   36dc8:	e3a0cc03 	mov	ip, #768	; 0x300
   36dcc:	e580c000 	str	ip, [r0]
   36dd0:	e51f09ec 	ldr	r0, [pc, #-2540]	; 363ec <het1ParityCheck+0xa0>
   36dd4:	e3a0cb01 	mov	ip, #1024	; 0x400
   36dd8:	e580c000 	str	ip, [r0]
   36ddc:	e3e0008f 	mvn	r0, #143	; 0x8f
   36de0:	e59dc004 	ldr	ip, [sp, #4]
   36de4:	e580c000 	str	ip, [r0]
   36de8:	e8bd800e 	pop	{r1, r2, r3, pc}
   36dec:	08400010 	.word	0x08400010
   36df0:	fffff81c 	.word	0xfffff81c
   36df4:	fffff91c 	.word	0xfffff91c

00036df8 <checkPLL2Slip>:
   36df8:	e24dd008 	sub	sp, sp, #8
   36dfc:	e3e0c0b7 	mvn	ip, #183	; 0xb7
   36e00:	e59cc000 	ldr	ip, [ip]
   36e04:	e58dc000 	str	ip, [sp]
   36e08:	e3e000b7 	mvn	r0, #183	; 0xb7
   36e0c:	e3a0c000 	mov	ip, #0
   36e10:	e580c000 	str	ip, [r0]
   36e14:	e59f0b34 	ldr	r0, [pc, #2868]	; 37950 <disableParity+0x30>
   36e18:	e590c000 	ldr	ip, [r0]
   36e1c:	e22cc902 	eor	ip, ip, #32768	; 0x8000
   36e20:	e580c000 	str	ip, [r0]
   36e24:	e51fc3cc 	ldr	ip, [pc, #-972]	; 36a60 <checkRAMECC+0x24c>
   36e28:	e59cc000 	ldr	ip, [ip]
   36e2c:	e31c0b01 	tst	ip, #1024	; 0x400
   36e30:	0afffffb 	beq	36e24 <checkPLL2Slip+0x2c>
   36e34:	e3e000cb 	mvn	r0, #203	; 0xcb
   36e38:	e3a0c040 	mov	ip, #64	; 0x40
   36e3c:	e580c000 	str	ip, [r0]
   36e40:	e3e0c0cf 	mvn	ip, #207	; 0xcf
   36e44:	e59cc000 	ldr	ip, [ip]
   36e48:	e31c0040 	tst	ip, #64	; 0x40
   36e4c:	0afffffb 	beq	36e40 <checkPLL2Slip+0x48>
   36e50:	e59f0af8 	ldr	r0, [pc, #2808]	; 37950 <disableParity+0x30>
   36e54:	e590c000 	ldr	ip, [r0]
   36e58:	e22cc902 	eor	ip, ip, #32768	; 0x8000
   36e5c:	e580c000 	str	ip, [r0]
   36e60:	e3e000c7 	mvn	r0, #199	; 0xc7
   36e64:	e3a0c040 	mov	ip, #64	; 0x40
   36e68:	e580c000 	str	ip, [r0]
   36e6c:	e3e0c0cf 	mvn	ip, #207	; 0xcf
   36e70:	e59cc000 	ldr	ip, [ip]
   36e74:	e31c0040 	tst	ip, #64	; 0x40
   36e78:	1afffffb 	bne	36e6c <checkPLL2Slip+0x74>
   36e7c:	e3e000b7 	mvn	r0, #183	; 0xb7
   36e80:	e59dc000 	ldr	ip, [sp]
   36e84:	e580c000 	str	ip, [r0]
   36e88:	e3e00013 	mvn	r0, #19
   36e8c:	e3a0cc03 	mov	ip, #768	; 0x300
   36e90:	e580c000 	str	ip, [r0]
   36e94:	e51f043c 	ldr	r0, [pc, #-1084]	; 36a60 <checkRAMECC+0x24c>
   36e98:	e3a0cb01 	mov	ip, #1024	; 0x400
   36e9c:	e580c000 	str	ip, [r0]
   36ea0:	e28dd008 	add	sp, sp, #8
   36ea4:	e12fff1e 	bx	lr
   36ea8:	08000008 	.word	0x08000008
   36eac:	08000018 	.word	0x08000018
   36eb0:	08400008 	.word	0x08400008

00036eb4 <checkRAMAddrParity>:
   36eb4:	e92d400e 	push	{r1, r2, r3, lr}
   36eb8:	e51f01ec 	ldr	r0, [pc, #-492]	; 36cd4 <checkFlashEEPROMECC+0x188>
   36ebc:	e59fca90 	ldr	ip, [pc, #2704]	; 37954 <disableParity+0x34>
   36ec0:	e580c000 	str	ip, [r0]
   36ec4:	e51f01f0 	ldr	r0, [pc, #-496]	; 36cdc <checkFlashEEPROMECC+0x190>
   36ec8:	e59fca84 	ldr	ip, [pc, #2692]	; 37954 <disableParity+0x34>
   36ecc:	e580c000 	str	ip, [r0]
   36ed0:	e3a0c302 	mov	ip, #134217728	; 0x8000000
   36ed4:	e89c0003 	ldm	ip, {r0, r1}
   36ed8:	e51fc038 	ldr	ip, [pc, #-56]	; 36ea8 <checkPLL2Slip+0xb0>
   36edc:	e89c0003 	ldm	ip, {r0, r1}
   36ee0:	e51f0214 	ldr	r0, [pc, #-532]	; 36cd4 <checkFlashEEPROMECC+0x188>
   36ee4:	e51fc1fc 	ldr	ip, [pc, #-508]	; 36cf0 <checkFlashEEPROMECC+0x1a4>
   36ee8:	e580c000 	str	ip, [r0]
   36eec:	e51f0218 	ldr	r0, [pc, #-536]	; 36cdc <checkFlashEEPROMECC+0x190>
   36ef0:	e51fc208 	ldr	ip, [pc, #-520]	; 36cf0 <checkFlashEEPROMECC+0x1a4>
   36ef4:	e580c000 	str	ip, [r0]
   36ef8:	e51fc20c 	ldr	ip, [pc, #-524]	; 36cf4 <checkFlashEEPROMECC+0x1a8>
   36efc:	e59cc000 	ldr	ip, [ip]
   36f00:	e20ccc01 	and	ip, ip, #256	; 0x100
   36f04:	e58dc004 	str	ip, [sp, #4]
   36f08:	e51fc218 	ldr	ip, [pc, #-536]	; 36cf8 <checkFlashEEPROMECC+0x1ac>
   36f0c:	e59cc000 	ldr	ip, [ip]
   36f10:	e20ccc01 	and	ip, ip, #256	; 0x100
   36f14:	e58dc008 	str	ip, [sp, #8]
   36f18:	e59dc004 	ldr	ip, [sp, #4]
   36f1c:	e35c0000 	cmp	ip, #0
   36f20:	0a000002 	beq	36f30 <checkRAMAddrParity+0x7c>
   36f24:	e59dc008 	ldr	ip, [sp, #8]
   36f28:	e35c0000 	cmp	ip, #0
   36f2c:	1a000002 	bne	36f3c <checkRAMAddrParity+0x88>
   36f30:	e3a00023 	mov	r0, #35	; 0x23
   36f34:	ebfff921 	bl	353c0 <selftestFailNotification>
   36f38:	ea000019 	b	36fa4 <checkRAMAddrParity+0xf0>
   36f3c:	e51fcb54 	ldr	ip, [pc, #-2900]	; 363f0 <het1ParityCheck+0xa4>
   36f40:	e59cc000 	ldr	ip, [ip]
   36f44:	e20ccb05 	and	ip, ip, #5120	; 0x1400
   36f48:	e35c0b05 	cmp	ip, #5120	; 0x1400
   36f4c:	0a000002 	beq	36f5c <checkRAMAddrParity+0xa8>
   36f50:	e3a00024 	mov	r0, #36	; 0x24
   36f54:	ebfff919 	bl	353c0 <selftestFailNotification>
   36f58:	ea000011 	b	36fa4 <checkRAMAddrParity+0xf0>
   36f5c:	e51f0270 	ldr	r0, [pc, #-624]	; 36cf4 <checkFlashEEPROMECC+0x1a8>
   36f60:	e3a0cc03 	mov	ip, #768	; 0x300
   36f64:	e580c000 	str	ip, [r0]
   36f68:	e51f0278 	ldr	r0, [pc, #-632]	; 36cf8 <checkFlashEEPROMECC+0x1ac>
   36f6c:	e3a0cc03 	mov	ip, #768	; 0x300
   36f70:	e580c000 	str	ip, [r0]
   36f74:	e51f0b8c 	ldr	r0, [pc, #-2956]	; 363f0 <het1ParityCheck+0xa4>
   36f78:	e3a0cb05 	mov	ip, #5120	; 0x1400
   36f7c:	e580c000 	str	ip, [r0]
   36f80:	e51f0ae0 	ldr	r0, [pc, #-2784]	; 364a8 <htu1ParityCheck+0xac>
   36f84:	e3a0c005 	mov	ip, #5
   36f88:	e580c000 	str	ip, [r0]
   36f8c:	e59fc9c4 	ldr	ip, [pc, #2500]	; 37958 <disableParity+0x38>
   36f90:	e59cc000 	ldr	ip, [ip]
   36f94:	e58dc000 	str	ip, [sp]
   36f98:	e59fc9bc 	ldr	ip, [pc, #2492]	; 3795c <disableParity+0x3c>
   36f9c:	e59cc000 	ldr	ip, [ip]
   36fa0:	e58dc000 	str	ip, [sp]
   36fa4:	e8bd800e 	pop	{r1, r2, r3, pc}
   36fa8:	08400018 	.word	0x08400018
   36fac:	fff8706c 	.word	0xfff8706c
   36fb0:	00050007 	.word	0x00050007
   36fb4:	fff8707c 	.word	0xfff8707c
   36fb8:	000a0007 	.word	0x000a0007

00036fbc <checkRAMUERRTest>:
   36fbc:	e92d400e 	push	{r1, r2, r3, lr}
   36fc0:	e3a0c000 	mov	ip, #0
   36fc4:	e58dc004 	str	ip, [sp, #4]
   36fc8:	e59f0990 	ldr	r0, [pc, #2448]	; 37960 <disableParity+0x40>
   36fcc:	e300c18a 	movw	ip, #394	; 0x18a
   36fd0:	e580c000 	str	ip, [r0]
   36fd4:	e59f0988 	ldr	r0, [pc, #2440]	; 37964 <disableParity+0x44>
   36fd8:	e300c18a 	movw	ip, #394	; 0x18a
   36fdc:	e580c000 	str	ip, [r0]
   36fe0:	e59fc978 	ldr	ip, [pc, #2424]	; 37960 <disableParity+0x40>
   36fe4:	e59cc000 	ldr	ip, [ip]
   36fe8:	e35c008a 	cmp	ip, #138	; 0x8a
   36fec:	1afffffb 	bne	36fe0 <checkRAMUERRTest+0x24>
   36ff0:	e59fc96c 	ldr	ip, [pc, #2412]	; 37964 <disableParity+0x44>
   36ff4:	e59cc000 	ldr	ip, [ip]
   36ff8:	e35c008a 	cmp	ip, #138	; 0x8a
   36ffc:	1afffffb 	bne	36ff0 <checkRAMUERRTest+0x34>
   37000:	e51fc314 	ldr	ip, [pc, #-788]	; 36cf4 <checkFlashEEPROMECC+0x1a8>
   37004:	e59cc000 	ldr	ip, [ip]
   37008:	e20cc010 	and	ip, ip, #16
   3700c:	e58dc000 	str	ip, [sp]
   37010:	e51fc320 	ldr	ip, [pc, #-800]	; 36cf8 <checkFlashEEPROMECC+0x1ac>
   37014:	e59cc000 	ldr	ip, [ip]
   37018:	e20cc010 	and	ip, ip, #16
   3701c:	e58dc004 	str	ip, [sp, #4]
   37020:	e59dc000 	ldr	ip, [sp]
   37024:	e35c0010 	cmp	ip, #16
   37028:	0a000002 	beq	37038 <checkRAMUERRTest+0x7c>
   3702c:	e59dc004 	ldr	ip, [sp, #4]
   37030:	e35c0010 	cmp	ip, #16
   37034:	1a000001 	bne	37040 <checkRAMUERRTest+0x84>
   37038:	e3a00025 	mov	r0, #37	; 0x25
   3703c:	ebfff8df 	bl	353c0 <selftestFailNotification>
   37040:	e59f0918 	ldr	r0, [pc, #2328]	; 37960 <disableParity+0x40>
   37044:	e300c14a 	movw	ip, #330	; 0x14a
   37048:	e580c000 	str	ip, [r0]
   3704c:	e59f0910 	ldr	r0, [pc, #2320]	; 37964 <disableParity+0x44>
   37050:	e300c14a 	movw	ip, #330	; 0x14a
   37054:	e580c000 	str	ip, [r0]
   37058:	e59fc900 	ldr	ip, [pc, #2304]	; 37960 <disableParity+0x40>
   3705c:	e59cc000 	ldr	ip, [ip]
   37060:	e35c004a 	cmp	ip, #74	; 0x4a
   37064:	1afffffb 	bne	37058 <checkRAMUERRTest+0x9c>
   37068:	e59fc8f4 	ldr	ip, [pc, #2292]	; 37964 <disableParity+0x44>
   3706c:	e59cc000 	ldr	ip, [ip]
   37070:	e35c004a 	cmp	ip, #74	; 0x4a
   37074:	1afffffb 	bne	37068 <checkRAMUERRTest+0xac>
   37078:	e51fc38c 	ldr	ip, [pc, #-908]	; 36cf4 <checkFlashEEPROMECC+0x1a8>
   3707c:	e59cc000 	ldr	ip, [ip]
   37080:	e20cc010 	and	ip, ip, #16
   37084:	e58dc000 	str	ip, [sp]
   37088:	e51fc398 	ldr	ip, [pc, #-920]	; 36cf8 <checkFlashEEPROMECC+0x1ac>
   3708c:	e59cc000 	ldr	ip, [ip]
   37090:	e20cc010 	and	ip, ip, #16
   37094:	e58dc004 	str	ip, [sp, #4]
   37098:	e59dc000 	ldr	ip, [sp]
   3709c:	e35c0010 	cmp	ip, #16
   370a0:	0a000002 	beq	370b0 <checkRAMUERRTest+0xf4>
   370a4:	e59dc004 	ldr	ip, [sp, #4]
   370a8:	e35c0010 	cmp	ip, #16
   370ac:	1a000002 	bne	370bc <checkRAMUERRTest+0x100>
   370b0:	e3a00026 	mov	r0, #38	; 0x26
   370b4:	ebfff8c1 	bl	353c0 <selftestFailNotification>
   370b8:	ea00000e 	b	370f8 <checkRAMUERRTest+0x13c>
   370bc:	e51f03d0 	ldr	r0, [pc, #-976]	; 36cf4 <checkFlashEEPROMECC+0x1a8>
   370c0:	e3a0c004 	mov	ip, #4
   370c4:	e580c000 	str	ip, [r0]
   370c8:	e51f03d8 	ldr	r0, [pc, #-984]	; 36cf8 <checkFlashEEPROMECC+0x1ac>
   370cc:	e3a0c004 	mov	ip, #4
   370d0:	e580c000 	str	ip, [r0]
   370d4:	e51f0cec 	ldr	r0, [pc, #-3308]	; 363f0 <het1ParityCheck+0xa4>
   370d8:	e3a0cd05 	mov	ip, #320	; 0x140
   370dc:	e580c000 	str	ip, [r0]
   370e0:	e51f0cf0 	ldr	r0, [pc, #-3312]	; 363f8 <het1ParityCheck+0xac>
   370e4:	e3a0cd05 	mov	ip, #320	; 0x140
   370e8:	e580c000 	str	ip, [r0]
   370ec:	e51f0c4c 	ldr	r0, [pc, #-3148]	; 364a8 <htu1ParityCheck+0xac>
   370f0:	e3a0c005 	mov	ip, #5
   370f4:	e580c000 	str	ip, [r0]
   370f8:	e59f0860 	ldr	r0, [pc, #2144]	; 37960 <disableParity+0x40>
   370fc:	e3a0c005 	mov	ip, #5
   37100:	e580c000 	str	ip, [r0]
   37104:	e59f0858 	ldr	r0, [pc, #2136]	; 37964 <disableParity+0x44>
   37108:	e3a0c005 	mov	ip, #5
   3710c:	e580c000 	str	ip, [r0]
   37110:	e8bd800e 	pop	{r1, r2, r3, pc}
   37114:	20000010 	.word	0x20000010
   37118:	fffffdf0 	.word	0xfffffdf0
   3711c:	fff82400 	.word	0xfff82400
   37120:	fff82000 	.word	0xfff82000

00037124 <fmcBus1ParityCheck>:
   37124:	e92d400e 	push	{r1, r2, r3, lr}
   37128:	e3a0c000 	mov	ip, #0
   3712c:	e58dc008 	str	ip, [sp, #8]
   37130:	e51fc184 	ldr	ip, [pc, #-388]	; 36fb4 <checkRAMAddrParity+0x100>
   37134:	e59cc000 	ldr	ip, [ip]
   37138:	e58dc000 	str	ip, [sp]
   3713c:	e51fc198 	ldr	ip, [pc, #-408]	; 36fac <checkRAMAddrParity+0xf8>
   37140:	e59cc000 	ldr	ip, [ip]
   37144:	e58dc004 	str	ip, [sp, #4]
   37148:	e51fc60c 	ldr	ip, [pc, #-1548]	; 36b44 <checkClockMonitor+0xdc>
   3714c:	e59cc000 	ldr	ip, [ip]
   37150:	e58dc008 	str	ip, [sp, #8]
   37154:	e51f0624 	ldr	r0, [pc, #-1572]	; 36b38 <checkClockMonitor+0xd0>
   37158:	e3a0cb01 	mov	ip, #1024	; 0x400
   3715c:	e580c000 	str	ip, [r0]
   37160:	e51f01b4 	ldr	r0, [pc, #-436]	; 36fb4 <checkRAMAddrParity+0x100>
   37164:	e3a0cc5a 	mov	ip, #23040	; 0x5a00
   37168:	e580c000 	str	ip, [r0]
   3716c:	e51f01c8 	ldr	r0, [pc, #-456]	; 36fac <checkRAMAddrParity+0xf8>
   37170:	e51fc1c8 	ldr	ip, [pc, #-456]	; 36fb0 <checkRAMAddrParity+0xfc>
   37174:	e580c000 	str	ip, [r0]
   37178:	e51f01cc 	ldr	r0, [pc, #-460]	; 36fb4 <checkRAMAddrParity+0x100>
   3717c:	e590c000 	ldr	ip, [r0]
   37180:	e38ccc01 	orr	ip, ip, #256	; 0x100
   37184:	e580c000 	str	ip, [r0]
   37188:	e51f01e4 	ldr	r0, [pc, #-484]	; 36fac <checkRAMAddrParity+0xf8>
   3718c:	e590c000 	ldr	ip, [r0]
   37190:	e38cc401 	orr	ip, ip, #16777216	; 0x1000000
   37194:	e580c000 	str	ip, [r0]
   37198:	e51fc1f4 	ldr	ip, [pc, #-500]	; 36fac <checkRAMAddrParity+0xf8>
   3719c:	e59cc000 	ldr	ip, [ip]
   371a0:	e31c0401 	tst	ip, #16777216	; 0x1000000
   371a4:	1afffffb 	bne	37198 <fmcBus1ParityCheck+0x74>
   371a8:	e51fc678 	ldr	ip, [pc, #-1656]	; 36b38 <checkClockMonitor+0xd0>
   371ac:	e59cc000 	ldr	ip, [ip]
   371b0:	e31c0b01 	tst	ip, #1024	; 0x400
   371b4:	1a000002 	bne	371c4 <fmcBus1ParityCheck+0xa0>
   371b8:	e3a00027 	mov	r0, #39	; 0x27
   371bc:	ebfff87f 	bl	353c0 <selftestFailNotification>
   371c0:	ea00001a 	b	37230 <fmcBus1ParityCheck+0x10c>
   371c4:	e51f0694 	ldr	r0, [pc, #-1684]	; 36b38 <checkClockMonitor+0xd0>
   371c8:	e3a0cb01 	mov	ip, #1024	; 0x400
   371cc:	e580c000 	str	ip, [r0]
   371d0:	e51fcde8 	ldr	ip, [pc, #-3560]	; 363f0 <het1ParityCheck+0xa4>
   371d4:	e59cc000 	ldr	ip, [ip]
   371d8:	e31c0010 	tst	ip, #16
   371dc:	1a000002 	bne	371ec <fmcBus1ParityCheck+0xc8>
   371e0:	e3a00028 	mov	r0, #40	; 0x28
   371e4:	ebfff875 	bl	353c0 <selftestFailNotification>
   371e8:	ea000010 	b	37230 <fmcBus1ParityCheck+0x10c>
   371ec:	e51f0e08 	ldr	r0, [pc, #-3592]	; 363ec <het1ParityCheck+0xa0>
   371f0:	e590c004 	ldr	ip, [r0, #4]
   371f4:	e38cc010 	orr	ip, ip, #16
   371f8:	e580c004 	str	ip, [r0, #4]
   371fc:	e51f0e0c 	ldr	r0, [pc, #-3596]	; 363f8 <het1ParityCheck+0xac>
   37200:	e590c000 	ldr	ip, [r0]
   37204:	e38cc010 	orr	ip, ip, #16
   37208:	e580c000 	str	ip, [r0]
   3720c:	e51f0d6c 	ldr	r0, [pc, #-3436]	; 364a8 <htu1ParityCheck+0xac>
   37210:	e3a0c005 	mov	ip, #5
   37214:	e580c000 	str	ip, [r0]
   37218:	e51f0274 	ldr	r0, [pc, #-628]	; 36fac <checkRAMAddrParity+0xf8>
   3721c:	e59dc004 	ldr	ip, [sp, #4]
   37220:	e580c000 	str	ip, [r0]
   37224:	e51f0278 	ldr	r0, [pc, #-632]	; 36fb4 <checkRAMAddrParity+0x100>
   37228:	e59dc000 	ldr	ip, [sp]
   3722c:	e580c000 	str	ip, [r0]
   37230:	e51fc6f4 	ldr	ip, [pc, #-1780]	; 36b44 <checkClockMonitor+0xdc>
   37234:	e59cc000 	ldr	ip, [ip]
   37238:	e58dc008 	str	ip, [sp, #8]
   3723c:	e8bd800e 	pop	{r1, r2, r3, pc}
   37240:	fffffdec 	.word	0xfffffdec
   37244:	fffff1a8 	.word	0xfffff1a8

00037248 <pbistFail>:
   37248:	e92d400e 	push	{r1, r2, r3, lr}
   3724c:	e51fcb50 	ldr	ip, [pc, #-2896]	; 36704 <adc1ParityCheck+0xa8>
   37250:	e59cc000 	ldr	ip, [ip]
   37254:	e58dc000 	str	ip, [sp]
   37258:	e59fc708 	ldr	ip, [pc, #1800]	; 37968 <disableParity+0x48>
   3725c:	e59cc000 	ldr	ip, [ip]
   37260:	e58dc004 	str	ip, [sp, #4]
   37264:	e59fc700 	ldr	ip, [pc, #1792]	; 3796c <disableParity+0x4c>
   37268:	e59cc000 	ldr	ip, [ip]
   3726c:	e58dc008 	str	ip, [sp, #8]
   37270:	e3a00000 	mov	r0, #0
   37274:	ebfff9cb 	bl	359a8 <pbistPortTestStatus>
   37278:	e3500001 	cmp	r0, #1
   3727c:	0a000009 	beq	372a8 <pbistFail+0x60>
   37280:	e59d0000 	ldr	r0, [sp]
   37284:	e59dc000 	ldr	ip, [sp]
   37288:	e20008ff 	and	r0, r0, #16711680	; 0xff0000
   3728c:	e59d2004 	ldr	r2, [sp, #4]
   37290:	e20cc4ff 	and	ip, ip, #-16777216	; 0xff000000
   37294:	e59d3008 	ldr	r3, [sp, #8]
   37298:	e1a01820 	lsr	r1, r0, #16
   3729c:	e1a00c2c 	lsr	r0, ip, #24
   372a0:	eb002f71 	bl	4306c <memoryPort0TestFailNotification>
   372a4:	ea000000 	b	372ac <pbistFail+0x64>
   372a8:	eafffffe 	b	372a8 <pbistFail+0x60>
   372ac:	e8bd800e 	pop	{r1, r2, r3, pc}
   372b0:	fff80a00 	.word	0xfff80a00
   372b4:	fff80000 	.word	0xfff80000
   372b8:	fffff1ac 	.word	0xfffff1ac
   372bc:	fff7b874 	.word	0xfff7b874
   372c0:	ff462000 	.word	0xff462000
   372c4:	ff460000 	.word	0xff460000

000372c8 <pbistGetConfigValue>:
   372c8:	e24dd008 	sub	sp, sp, #8
   372cc:	e5cd1004 	strb	r1, [sp, #4]
   372d0:	e58d0000 	str	r0, [sp]
   372d4:	e5ddc004 	ldrb	ip, [sp, #4]
   372d8:	e35c0000 	cmp	ip, #0
   372dc:	1a00001e 	bne	3735c <pbistGetConfigValue+0x94>
   372e0:	e59dc000 	ldr	ip, [sp]
   372e4:	e3a00000 	mov	r0, #0
   372e8:	e58c0000 	str	r0, [ip]
   372ec:	e59dc000 	ldr	ip, [sp]
   372f0:	e3a00000 	mov	r0, #0
   372f4:	e58c0004 	str	r0, [ip, #4]
   372f8:	e59dc000 	ldr	ip, [sp]
   372fc:	e3a00000 	mov	r0, #0
   37300:	e58c0008 	str	r0, [ip, #8]
   37304:	e59dc000 	ldr	ip, [sp]
   37308:	e3a00000 	mov	r0, #0
   3730c:	e58c000c 	str	r0, [ip, #12]
   37310:	e59dc000 	ldr	ip, [sp]
   37314:	e3a00000 	mov	r0, #0
   37318:	e58c0010 	str	r0, [ip, #16]
   3731c:	e59dc000 	ldr	ip, [sp]
   37320:	e3a00000 	mov	r0, #0
   37324:	e58c0014 	str	r0, [ip, #20]
   37328:	e59dc000 	ldr	ip, [sp]
   3732c:	e3a00000 	mov	r0, #0
   37330:	e58c0018 	str	r0, [ip, #24]
   37334:	e59dc000 	ldr	ip, [sp]
   37338:	e3a00000 	mov	r0, #0
   3733c:	e58c001c 	str	r0, [ip, #28]
   37340:	e59dc000 	ldr	ip, [sp]
   37344:	e3a00000 	mov	r0, #0
   37348:	e58c0020 	str	r0, [ip, #32]
   3734c:	e59dc000 	ldr	ip, [sp]
   37350:	e3a00000 	mov	r0, #0
   37354:	e58c0024 	str	r0, [ip, #36]	; 0x24
   37358:	ea000027 	b	373fc <pbistGetConfigValue+0x134>
   3735c:	e51fcc60 	ldr	ip, [pc, #-3168]	; 36704 <adc1ParityCheck+0xa8>
   37360:	e59d0000 	ldr	r0, [sp]
   37364:	e59cc000 	ldr	ip, [ip]
   37368:	e580c000 	str	ip, [r0]
   3736c:	e51fcd1c 	ldr	ip, [pc, #-3356]	; 36658 <htu2ParityCheck+0xb0>
   37370:	e59d0000 	ldr	r0, [sp]
   37374:	e59cc000 	ldr	ip, [ip]
   37378:	e580c004 	str	ip, [r0, #4]
   3737c:	e51fcd30 	ldr	ip, [pc, #-3376]	; 36654 <htu2ParityCheck+0xac>
   37380:	e59d0000 	ldr	r0, [sp]
   37384:	e59cc000 	ldr	ip, [ip]
   37388:	e580c008 	str	ip, [r0, #8]
   3738c:	e59fc5dc 	ldr	ip, [pc, #1500]	; 37970 <disableParity+0x50>
   37390:	e59d0000 	ldr	r0, [sp]
   37394:	e59cc000 	ldr	ip, [ip]
   37398:	e580c00c 	str	ip, [r0, #12]
   3739c:	e51fcb9c 	ldr	ip, [pc, #-2972]	; 36808 <adc2ParityCheck+0xb4>
   373a0:	e59d0000 	ldr	r0, [sp]
   373a4:	e59cc000 	ldr	ip, [ip]
   373a8:	e580c010 	str	ip, [r0, #16]
   373ac:	e59fc5c0 	ldr	ip, [pc, #1472]	; 37974 <disableParity+0x54>
   373b0:	e59d0000 	ldr	r0, [sp]
   373b4:	e59cc000 	ldr	ip, [ip]
   373b8:	e580c014 	str	ip, [r0, #20]
   373bc:	e51fcbb8 	ldr	ip, [pc, #-3000]	; 3680c <adc2ParityCheck+0xb8>
   373c0:	e59d0000 	ldr	r0, [sp]
   373c4:	e59cc000 	ldr	ip, [ip]
   373c8:	e580c018 	str	ip, [r0, #24]
   373cc:	e51fcbd8 	ldr	ip, [pc, #-3032]	; 367fc <adc2ParityCheck+0xa8>
   373d0:	e59d0000 	ldr	r0, [sp]
   373d4:	e59cc000 	ldr	ip, [ip]
   373d8:	e580c01c 	str	ip, [r0, #28]
   373dc:	e51fcbe4 	ldr	ip, [pc, #-3044]	; 36800 <adc2ParityCheck+0xac>
   373e0:	e59d0000 	ldr	r0, [sp]
   373e4:	e59cc000 	ldr	ip, [ip]
   373e8:	e580c020 	str	ip, [r0, #32]
   373ec:	e51fcbf0 	ldr	ip, [pc, #-3056]	; 36804 <adc2ParityCheck+0xb0>
   373f0:	e59d0000 	ldr	r0, [sp]
   373f4:	e59cc000 	ldr	ip, [ip]
   373f8:	e580c024 	str	ip, [r0, #36]	; 0x24
   373fc:	e28dd008 	add	sp, sp, #8
   37400:	e12fff1e 	bx	lr
   37404:	fff7a464 	.word	0xfff7a464
   37408:	ff4e0200 	.word	0xff4e0200
   3740c:	ff4e0000 	.word	0xff4e0000
   37410:	fff7a468 	.word	0xfff7a468

00037414 <stcGetConfigValue>:
   37414:	e24dd008 	sub	sp, sp, #8
   37418:	e5cd1004 	strb	r1, [sp, #4]
   3741c:	e58d0000 	str	r0, [sp]
   37420:	e5ddc004 	ldrb	ip, [sp, #4]
   37424:	e35c0000 	cmp	ip, #0
   37428:	1a00000c 	bne	37460 <stcGetConfigValue+0x4c>
   3742c:	e59dc000 	ldr	ip, [sp]
   37430:	e59f0540 	ldr	r0, [pc, #1344]	; 37978 <disableParity+0x58>
   37434:	e58c0000 	str	r0, [ip]
   37438:	e59dc000 	ldr	ip, [sp]
   3743c:	e3a00005 	mov	r0, #5
   37440:	e58c0004 	str	r0, [ip, #4]
   37444:	e59dc000 	ldr	ip, [sp]
   37448:	e3e00000 	mvn	r0, #0
   3744c:	e58c0008 	str	r0, [ip, #8]
   37450:	e59dc000 	ldr	ip, [sp]
   37454:	e3a00005 	mov	r0, #5
   37458:	e58c000c 	str	r0, [ip, #12]
   3745c:	ea00000f 	b	374a0 <stcGetConfigValue+0x8c>
   37460:	e51fcfb8 	ldr	ip, [pc, #-4024]	; 364b0 <htu1ParityCheck+0xb4>
   37464:	e59d0000 	ldr	r0, [sp]
   37468:	e59cc000 	ldr	ip, [ip]
   3746c:	e580c000 	str	ip, [r0]
   37470:	e51fced4 	ldr	ip, [pc, #-3796]	; 365a4 <het2ParityCheck+0xe4>
   37474:	e59d0000 	ldr	r0, [sp]
   37478:	e59cc000 	ldr	ip, [ip]
   3747c:	e580c004 	str	ip, [r0, #4]
   37480:	e51fcfcc 	ldr	ip, [pc, #-4044]	; 364bc <htu1ParityCheck+0xc0>
   37484:	e59d0000 	ldr	r0, [sp]
   37488:	e59cc000 	ldr	ip, [ip]
   3748c:	e580c008 	str	ip, [r0, #8]
   37490:	e51fcfe0 	ldr	ip, [pc, #-4064]	; 364b8 <htu1ParityCheck+0xbc>
   37494:	e59d0000 	ldr	r0, [sp]
   37498:	e59cc000 	ldr	ip, [ip]
   3749c:	e580c00c 	str	ip, [r0, #12]
   374a0:	e28dd008 	add	sp, sp, #8
   374a4:	e12fff1e 	bx	lr
   374a8:	fff7b974 	.word	0xfff7b974
   374ac:	ff442000 	.word	0xff442000
   374b0:	ff440000 	.word	0xff440000

000374b4 <efcGetConfigValue>:
   374b4:	e24dd008 	sub	sp, sp, #8
   374b8:	e5cd1004 	strb	r1, [sp, #4]
   374bc:	e58d0000 	str	r0, [sp]
   374c0:	e5ddc004 	ldrb	ip, [sp, #4]
   374c4:	e35c0000 	cmp	ip, #0
   374c8:	1a00000c 	bne	37500 <efcGetConfigValue+0x4c>
   374cc:	e59dc000 	ldr	ip, [sp]
   374d0:	e302000f 	movw	r0, #8207	; 0x200f
   374d4:	e58c0000 	str	r0, [ip]
   374d8:	e59dc000 	ldr	ip, [sp]
   374dc:	e30802e0 	movw	r0, #33504	; 0x82e0
   374e0:	e58c0004 	str	r0, [ip, #4]
   374e4:	e59dc000 	ldr	ip, [sp]
   374e8:	e3a00f96 	mov	r0, #600	; 0x258
   374ec:	e58c0008 	str	r0, [ip, #8]
   374f0:	e59dc000 	ldr	ip, [sp]
   374f4:	e51f09d4 	ldr	r0, [pc, #-2516]	; 36b28 <checkClockMonitor+0xc0>
   374f8:	e58c000c 	str	r0, [ip, #12]
   374fc:	ea00000f 	b	37540 <efcGetConfigValue+0x8c>
   37500:	e51fcab0 	ldr	ip, [pc, #-2736]	; 36a58 <checkRAMECC+0x244>
   37504:	e59d0000 	ldr	r0, [sp]
   37508:	e59cc000 	ldr	ip, [ip]
   3750c:	e580c000 	str	ip, [r0]
   37510:	e51fcabc 	ldr	ip, [pc, #-2748]	; 36a5c <checkRAMECC+0x248>
   37514:	e59d0000 	ldr	r0, [sp]
   37518:	e59cc000 	ldr	ip, [ip]
   3751c:	e580c004 	str	ip, [r0, #4]
   37520:	e51fca08 	ldr	ip, [pc, #-2568]	; 36b20 <checkClockMonitor+0xb8>
   37524:	e59d0000 	ldr	r0, [sp]
   37528:	e59cc000 	ldr	ip, [ip]
   3752c:	e580c008 	str	ip, [r0, #8]
   37530:	e51fca14 	ldr	ip, [pc, #-2580]	; 36b24 <checkClockMonitor+0xbc>
   37534:	e59d0000 	ldr	r0, [sp]
   37538:	e59cc000 	ldr	ip, [ip]
   3753c:	e580c00c 	str	ip, [r0, #12]
   37540:	e28dd008 	add	sp, sp, #8
   37544:	e12fff1e 	bx	lr

00037548 <ccmr4GetConfigValue>:
   37548:	e24dd008 	sub	sp, sp, #8
   3754c:	e5cd1004 	strb	r1, [sp, #4]
   37550:	e58d0000 	str	r0, [sp]
   37554:	e5ddc004 	ldrb	ip, [sp, #4]
   37558:	e35c0000 	cmp	ip, #0
   3755c:	1a000003 	bne	37570 <ccmr4GetConfigValue+0x28>
   37560:	e59dc000 	ldr	ip, [sp]
   37564:	e3a00000 	mov	r0, #0
   37568:	e58c0000 	str	r0, [ip]
   3756c:	ea000003 	b	37580 <ccmr4GetConfigValue+0x38>
   37570:	e59fc404 	ldr	ip, [pc, #1028]	; 3797c <disableParity+0x5c>
   37574:	e59d0000 	ldr	r0, [sp]
   37578:	e59cc000 	ldr	ip, [ip]
   3757c:	e580c000 	str	ip, [r0]
   37580:	e28dd008 	add	sp, sp, #8
   37584:	e12fff1e 	bx	lr
   37588:	fff7a564 	.word	0xfff7a564
   3758c:	ff4c0200 	.word	0xff4c0200
   37590:	ff4c0000 	.word	0xff4c0000
   37594:	fff7a568 	.word	0xfff7a568
   37598:	fff7c180 	.word	0xfff7c180
   3759c:	ff3e1000 	.word	0xff3e1000
   375a0:	ff3e0000 	.word	0xff3e0000
   375a4:	fff7c380 	.word	0xfff7c380
   375a8:	ff3a1000 	.word	0xff3a1000
   375ac:	ff3a0000 	.word	0xff3a0000
   375b0:	fffff808 	.word	0xfffff808
   375b4:	fffff908 	.word	0xfffff908

000375b8 <errata_PBIST_4>:
   375b8:	e92d4010 	push	{r4, lr}
   375bc:	e24dd018 	sub	sp, sp, #24
   375c0:	e3a0c000 	mov	ip, #0
   375c4:	e58dc000 	str	ip, [sp]
   375c8:	eb0030d7 	bl	4392c <_pmuEnableCountersGlobal_>
   375cc:	eb0030e6 	bl	4396c <_pmuResetCounters_>
   375d0:	e3a00102 	mov	r0, #-2147483648	; 0x80000000
   375d4:	eb0030e8 	bl	4397c <_pmuStartCounters_>
   375d8:	e3a00102 	mov	r0, #-2147483648	; 0x80000000
   375dc:	eb0030e8 	bl	43984 <_pmuStopCounters_>
   375e0:	eb0030ec 	bl	43998 <_pmuGetCycleCount_>
   375e4:	e58d0008 	str	r0, [sp, #8]
   375e8:	e59f0390 	ldr	r0, [pc, #912]	; 37980 <disableParity+0x60>
   375ec:	e3a0c00a 	mov	ip, #10
   375f0:	e580c000 	str	ip, [r0]
   375f4:	e59f0388 	ldr	r0, [pc, #904]	; 37984 <disableParity+0x64>
   375f8:	e30ece0a 	movw	ip, #60938	; 0xee0a
   375fc:	e580c000 	str	ip, [r0]
   37600:	e3a0c000 	mov	ip, #0
   37604:	e5cdc010 	strb	ip, [sp, #16]
   37608:	e5ddc010 	ldrb	ip, [sp, #16]
   3760c:	e35c0002 	cmp	ip, #2
   37610:	2a0000b5 	bcs	378ec <errata_PBIST_4+0x334>
   37614:	e3a0c000 	mov	ip, #0
   37618:	e58dc004 	str	ip, [sp, #4]
   3761c:	e51f0fd0 	ldr	r0, [pc, #-4048]	; 36654 <htu2ParityCheck+0xac>
   37620:	e3a0c000 	mov	ip, #0
   37624:	e580c000 	str	ip, [r0]
   37628:	e51fcfdc 	ldr	ip, [pc, #-4060]	; 36654 <htu2ParityCheck+0xac>
   3762c:	e59cc000 	ldr	ip, [ip]
   37630:	e35c0000 	cmp	ip, #0
   37634:	0a000002 	beq	37644 <errata_PBIST_4+0x8c>
   37638:	e3a0002a 	mov	r0, #42	; 0x2a
   3763c:	ebfff75f 	bl	353c0 <selftestFailNotification>
   37640:	ea0000a3 	b	378d4 <errata_PBIST_4+0x31c>
   37644:	e3e000a7 	mvn	r0, #167	; 0xa7
   37648:	e300c105 	movw	ip, #261	; 0x105
   3764c:	e580c000 	str	ip, [r0]
   37650:	e3e000a3 	mvn	r0, #163	; 0xa3
   37654:	e3a0c005 	mov	ip, #5
   37658:	e580c000 	str	ip, [r0]
   3765c:	e3e000a7 	mvn	r0, #167	; 0xa7
   37660:	e300c10a 	movw	ip, #266	; 0x10a
   37664:	e580c000 	str	ip, [r0]
   37668:	e3e00097 	mvn	r0, #151	; 0x97
   3766c:	e3a0c001 	mov	ip, #1
   37670:	e580c000 	str	ip, [r0]
   37674:	e3e0009f 	mvn	r0, #159	; 0x9f
   37678:	e3a0c001 	mov	ip, #1
   3767c:	e580c000 	str	ip, [r0]
   37680:	e3a0c000 	mov	ip, #0
   37684:	e58dc000 	str	ip, [sp]
   37688:	e59dc000 	ldr	ip, [sp]
   3768c:	e35c0040 	cmp	ip, #64	; 0x40
   37690:	2a000005 	bcs	376ac <errata_PBIST_4+0xf4>
   37694:	e59dc000 	ldr	ip, [sp]
   37698:	e28cc001 	add	ip, ip, #1
   3769c:	e58dc000 	str	ip, [sp]
   376a0:	e59dc000 	ldr	ip, [sp]
   376a4:	e35c0040 	cmp	ip, #64	; 0x40
   376a8:	3afffff9 	bcc	37694 <errata_PBIST_4+0xdc>
   376ac:	e59f0318 	ldr	r0, [pc, #792]	; 379cc <disableParity+0xac>
   376b0:	e3a0c003 	mov	ip, #3
   376b4:	e580c000 	str	ip, [r0]
   376b8:	e59f0310 	ldr	r0, [pc, #784]	; 379d0 <disableParity+0xb0>
   376bc:	e3a0c010 	mov	ip, #16
   376c0:	e580c000 	str	ip, [r0]
   376c4:	e51f0fc4 	ldr	r0, [pc, #-4036]	; 36708 <adc1ParityCheck+0xac>
   376c8:	e3a0c001 	mov	ip, #1
   376cc:	e580c000 	str	ip, [r0]
   376d0:	e51f0fcc 	ldr	r0, [pc, #-4044]	; 3670c <adc1ParityCheck+0xb0>
   376d4:	e3a0c025 	mov	ip, #37	; 0x25
   376d8:	e580c000 	str	ip, [r0]
   376dc:	e51f0fd4 	ldr	r0, [pc, #-4052]	; 36710 <adc1ParityCheck+0xb4>
   376e0:	e59fc2a0 	ldr	ip, [pc, #672]	; 37988 <disableParity+0x68>
   376e4:	e580c000 	str	ip, [r0]
   376e8:	e51f0fdc 	ldr	r0, [pc, #-4060]	; 36714 <adc1ParityCheck+0xb8>
   376ec:	e3a0c004 	mov	ip, #4
   376f0:	e580c000 	str	ip, [r0]
   376f4:	e51f0fe4 	ldr	r0, [pc, #-4068]	; 36718 <adc1ParityCheck+0xbc>
   376f8:	e59fc28c 	ldr	ip, [pc, #652]	; 3798c <disableParity+0x6c>
   376fc:	e580c000 	str	ip, [r0]
   37700:	e51f0fec 	ldr	r0, [pc, #-4076]	; 3671c <adc1ParityCheck+0xc0>
   37704:	e3a0c000 	mov	ip, #0
   37708:	e580c000 	str	ip, [r0]
   3770c:	e51f0ff4 	ldr	r0, [pc, #-4084]	; 36720 <adc1ParityCheck+0xc4>
   37710:	e3a0c004 	mov	ip, #4
   37714:	e580c000 	str	ip, [r0]
   37718:	e59f02bc 	ldr	r0, [pc, #700]	; 379dc <disableParity+0xbc>
   3771c:	e306c860 	movw	ip, #26720	; 0x6860
   37720:	e580c000 	str	ip, [r0]
   37724:	e59f02b4 	ldr	r0, [pc, #692]	; 379e0 <disableParity+0xc0>
   37728:	e3a0c000 	mov	ip, #0
   3772c:	e580c000 	str	ip, [r0]
   37730:	e59f02ac 	ldr	r0, [pc, #684]	; 379e4 <disableParity+0xc4>
   37734:	e3a0c001 	mov	ip, #1
   37738:	e580c000 	str	ip, [r0]
   3773c:	e59f024c 	ldr	r0, [pc, #588]	; 37990 <disableParity+0x70>
   37740:	e3a0cffa 	mov	ip, #1000	; 0x3e8
   37744:	e580c000 	str	ip, [r0]
   37748:	e59f0244 	ldr	r0, [pc, #580]	; 37994 <disableParity+0x74>
   3774c:	e3a0c001 	mov	ip, #1
   37750:	e580c000 	str	ip, [r0]
   37754:	e59f023c 	ldr	r0, [pc, #572]	; 37998 <disableParity+0x78>
   37758:	e3a0c000 	mov	ip, #0
   3775c:	e580c000 	str	ip, [r0]
   37760:	e5ddc010 	ldrb	ip, [sp, #16]
   37764:	e35c0001 	cmp	ip, #1
   37768:	1a000009 	bne	37794 <errata_PBIST_4+0x1dc>
   3776c:	e59f0228 	ldr	r0, [pc, #552]	; 3799c <disableParity+0x7c>
   37770:	e3a0c002 	mov	ip, #2
   37774:	e580c000 	str	ip, [r0]
   37778:	e59f0220 	ldr	r0, [pc, #544]	; 379a0 <disableParity+0x80>
   3777c:	e3a0c000 	mov	ip, #0
   37780:	e580c000 	str	ip, [r0]
   37784:	e59f0248 	ldr	r0, [pc, #584]	; 379d4 <disableParity+0xb4>
   37788:	e59fc214 	ldr	ip, [pc, #532]	; 379a4 <disableParity+0x84>
   3778c:	e580c000 	str	ip, [r0]
   37790:	ea000008 	b	377b8 <errata_PBIST_4+0x200>
   37794:	e59f0200 	ldr	r0, [pc, #512]	; 3799c <disableParity+0x7c>
   37798:	e59fc208 	ldr	ip, [pc, #520]	; 379a8 <disableParity+0x88>
   3779c:	e580c000 	str	ip, [r0]
   377a0:	e59f01f8 	ldr	r0, [pc, #504]	; 379a0 <disableParity+0x80>
   377a4:	e59fc200 	ldr	ip, [pc, #512]	; 379ac <disableParity+0x8c>
   377a8:	e580c000 	str	ip, [r0]
   377ac:	e59f0220 	ldr	r0, [pc, #544]	; 379d4 <disableParity+0xb4>
   377b0:	e59fc1f8 	ldr	ip, [pc, #504]	; 379b0 <disableParity+0x90>
   377b4:	e580c000 	str	ip, [r0]
   377b8:	e59f01f4 	ldr	r0, [pc, #500]	; 379b4 <disableParity+0x94>
   377bc:	e3a0c001 	mov	ip, #1
   377c0:	e580c000 	str	ip, [r0]
   377c4:	e59f01ec 	ldr	r0, [pc, #492]	; 379b8 <disableParity+0x98>
   377c8:	e3a0c003 	mov	ip, #3
   377cc:	e580c000 	str	ip, [r0]
   377d0:	eb003065 	bl	4396c <_pmuResetCounters_>
   377d4:	e3a00102 	mov	r0, #-2147483648	; 0x80000000
   377d8:	eb003067 	bl	4397c <_pmuStartCounters_>
   377dc:	e59f01f4 	ldr	r0, [pc, #500]	; 379d8 <disableParity+0xb8>
   377e0:	e3a0c001 	mov	ip, #1
   377e4:	e580c000 	str	ip, [r0]
   377e8:	e3e0c097 	mvn	ip, #151	; 0x97
   377ec:	e59cc000 	ldr	ip, [ip]
   377f0:	e31c0001 	tst	ip, #1
   377f4:	0afffffb 	beq	377e8 <errata_PBIST_4+0x230>
   377f8:	e3a00102 	mov	r0, #-2147483648	; 0x80000000
   377fc:	eb003060 	bl	43984 <_pmuStopCounters_>
   37800:	eb003064 	bl	43998 <_pmuGetCycleCount_>
   37804:	e58d000c 	str	r0, [sp, #12]
   37808:	e59dc008 	ldr	ip, [sp, #8]
   3780c:	e59d000c 	ldr	r0, [sp, #12]
   37810:	e040c00c 	sub	ip, r0, ip
   37814:	e58dc00c 	str	ip, [sp, #12]
   37818:	e59dc00c 	ldr	ip, [sp, #12]
   3781c:	e08ccfac 	add	ip, ip, ip, lsr #31
   37820:	e1a0c0cc 	asr	ip, ip, #1
   37824:	e24ccffa 	sub	ip, ip, #1000	; 0x3e8
   37828:	e58dc004 	str	ip, [sp, #4]
   3782c:	e59fc134 	ldr	ip, [pc, #308]	; 37968 <disableParity+0x48>
   37830:	e59f0190 	ldr	r0, [pc, #400]	; 379c8 <disableParity+0xa8>
   37834:	e59f1130 	ldr	r1, [pc, #304]	; 3796c <disableParity+0x4c>
   37838:	e59f2184 	ldr	r2, [pc, #388]	; 379c4 <disableParity+0xa4>
   3783c:	e59f3130 	ldr	r3, [pc, #304]	; 37974 <disableParity+0x54>
   37840:	e59f4174 	ldr	r4, [pc, #372]	; 379bc <disableParity+0x9c>
   37844:	e59fe174 	ldr	lr, [pc, #372]	; 379c0 <disableParity+0xa0>
   37848:	e59cc000 	ldr	ip, [ip]
   3784c:	e5900000 	ldr	r0, [r0]
   37850:	e5911000 	ldr	r1, [r1]
   37854:	e5922000 	ldr	r2, [r2]
   37858:	e180c00c 	orr	ip, r0, ip
   3785c:	e5930000 	ldr	r0, [r3]
   37860:	e181c00c 	orr	ip, r1, ip
   37864:	e59e1000 	ldr	r1, [lr]
   37868:	e182c00c 	orr	ip, r2, ip
   3786c:	e5942000 	ldr	r2, [r4]
   37870:	e180c00c 	orr	ip, r0, ip
   37874:	e181c00c 	orr	ip, r1, ip
   37878:	e192c00c 	orrs	ip, r2, ip
   3787c:	0a000001 	beq	37888 <errata_PBIST_4+0x2d0>
   37880:	e3a00005 	mov	r0, #5
   37884:	ebfff6cd 	bl	353c0 <selftestFailNotification>
   37888:	e59dc004 	ldr	ip, [sp, #4]
   3788c:	e35c0014 	cmp	ip, #20
   37890:	da000002 	ble	378a0 <errata_PBIST_4+0x2e8>
   37894:	e59dc004 	ldr	ip, [sp, #4]
   37898:	e35c00c8 	cmp	ip, #200	; 0xc8
   3789c:	ba000001 	blt	378a8 <errata_PBIST_4+0x2f0>
   378a0:	e3a00029 	mov	r0, #41	; 0x29
   378a4:	ebfff6c5 	bl	353c0 <selftestFailNotification>
   378a8:	e59f011c 	ldr	r0, [pc, #284]	; 379cc <disableParity+0xac>
   378ac:	e3a0c000 	mov	ip, #0
   378b0:	e580c000 	str	ip, [r0]
   378b4:	e3e000a7 	mvn	r0, #167	; 0xa7
   378b8:	e590c000 	ldr	ip, [r0]
   378bc:	e3ccc00f 	bic	ip, ip, #15
   378c0:	e580c000 	str	ip, [r0]
   378c4:	e3e000a7 	mvn	r0, #167	; 0xa7
   378c8:	e590c000 	ldr	ip, [r0]
   378cc:	e38cc005 	orr	ip, ip, #5
   378d0:	e580c000 	str	ip, [r0]
   378d4:	e5ddc010 	ldrb	ip, [sp, #16]
   378d8:	e28cc001 	add	ip, ip, #1
   378dc:	e5cdc010 	strb	ip, [sp, #16]
   378e0:	e5ddc010 	ldrb	ip, [sp, #16]
   378e4:	e35c0002 	cmp	ip, #2
   378e8:	3affff49 	bcc	37614 <errata_PBIST_4+0x5c>
   378ec:	e59f0090 	ldr	r0, [pc, #144]	; 37984 <disableParity+0x64>
   378f0:	e30aca0a 	movw	ip, #43530	; 0xaa0a
   378f4:	e580c000 	str	ip, [r0]
   378f8:	e59f0084 	ldr	r0, [pc, #132]	; 37984 <disableParity+0x64>
   378fc:	e30aca05 	movw	ip, #43525	; 0xaa05
   37900:	e580c000 	str	ip, [r0]
   37904:	e59f0074 	ldr	r0, [pc, #116]	; 37980 <disableParity+0x60>
   37908:	e3a0c005 	mov	ip, #5
   3790c:	e580c000 	str	ip, [r0]
   37910:	eb003009 	bl	4393c <_pmuDisableCountersGlobal_>
   37914:	e28dd018 	add	sp, sp, #24
   37918:	e8bd8010 	pop	{r4, pc}

0003791c <enableParity>:
   3791c:	e12fff1e 	bx	lr

00037920 <disableParity>:
   37920:	e12fff1e 	bx	lr
   37924:	05050005 	.word	0x05050005
   37928:	fff8730c 	.word	0xfff8730c
   3792c:	fff87308 	.word	0xfff87308
   37930:	fff87068 	.word	0xfff87068
   37934:	f0200000 	.word	0xf0200000
   37938:	fff87058 	.word	0xfff87058
   3793c:	fff8705c 	.word	0xfff8705c
   37940:	fff87060 	.word	0xfff87060
   37944:	00055001 	.word	0x00055001
   37948:	fff8731c 	.word	0xfff8731c
   3794c:	fff87320 	.word	0xfff87320
   37950:	ffffe100 	.word	0xffffe100
   37954:	0d05000a 	.word	0x0d05000a
   37958:	fffff83c 	.word	0xfffff83c
   3795c:	fffff93c 	.word	0xfffff93c
   37960:	fffff830 	.word	0xfffff830
   37964:	fffff930 	.word	0xfffff930
   37968:	ffffe5a0 	.word	0xffffe5a0
   3796c:	ffffe5a8 	.word	0xffffe5a8
   37970:	ffffe584 	.word	0xffffe584
   37974:	ffffe5b0 	.word	0xffffe5b0
   37978:	ffff0000 	.word	0xffff0000
   3797c:	fffff604 	.word	0xfffff604
   37980:	ffff0400 	.word	0xffff0400
   37984:	ffff040c 	.word	0xffff040c
   37988:	62400001 	.word	0x62400001
   3798c:	00068003 	.word	0x00068003
   37990:	ffffe540 	.word	0xffffe540
   37994:	ffffe550 	.word	0xffffe550
   37998:	ffffe530 	.word	0xffffe530
   3799c:	ffffe520 	.word	0xffffe520
   379a0:	ffffe524 	.word	0xffffe524
   379a4:	01002008 	.word	0x01002008
   379a8:	fff0007c 	.word	0xfff0007c
   379ac:	0a63ffff 	.word	0x0a63ffff
   379b0:	02002008 	.word	0x02002008
   379b4:	ffffe578 	.word	0xffffe578
   379b8:	ffffe568 	.word	0xffffe568
   379bc:	ffffe5b8 	.word	0xffffe5b8
   379c0:	ffffe5b4 	.word	0xffffe5b4
   379c4:	ffffe5ac 	.word	0xffffe5ac
   379c8:	ffffe5a4 	.word	0xffffe5a4
   379cc:	ffffe580 	.word	0xffffe580
   379d0:	ffffe564 	.word	0xffffe564
   379d4:	ffffe560 	.word	0xffffe560
   379d8:	ffffe56c 	.word	0xffffe56c
   379dc:	ffffe44c 	.word	0xffffe44c
   379e0:	ffffe410 	.word	0xffffe410
   379e4:	ffffe450 	.word	0xffffe450

000379e8 <initNN>:
   379e8:	e24dd008 	sub	sp, sp, #8
   379ec:	e3a0c000 	mov	ip, #0
   379f0:	e58dc000 	str	ip, [sp]
   379f4:	e3a0c000 	mov	ip, #0
   379f8:	e58dc004 	str	ip, [sp, #4]
   379fc:	e59f0f50 	ldr	r0, [pc, #3920]	; 38954 <init_NN+0xa8>
   37a00:	e3a0c000 	mov	ip, #0
   37a04:	e5c0c000 	strb	ip, [r0]
   37a08:	e59f0f48 	ldr	r0, [pc, #3912]	; 38958 <init_NN+0xac>
   37a0c:	e3a0c000 	mov	ip, #0
   37a10:	e580c000 	str	ip, [r0]
   37a14:	e59f0f40 	ldr	r0, [pc, #3904]	; 3895c <init_NN+0xb0>
   37a18:	e3a0c01c 	mov	ip, #28
   37a1c:	e1c0c0b0 	strh	ip, [r0]
   37a20:	e59f0f38 	ldr	r0, [pc, #3896]	; 38960 <init_NN+0xb4>
   37a24:	e3a0c001 	mov	ip, #1
   37a28:	e1c0c0b0 	strh	ip, [r0]
   37a2c:	e59f1f30 	ldr	r1, [pc, #3888]	; 38964 <init_NN+0xb8>
   37a30:	e59f0f30 	ldr	r0, [pc, #3888]	; 38968 <init_NN+0xbc>
   37a34:	e59dc000 	ldr	ip, [sp]
   37a38:	e080c00c 	add	ip, r0, ip
   37a3c:	e581c000 	str	ip, [r1]
   37a40:	e59f1f24 	ldr	r1, [pc, #3876]	; 3896c <init_NN+0xc0>
   37a44:	e59f0f24 	ldr	r0, [pc, #3876]	; 38970 <init_NN+0xc4>
   37a48:	e59dc000 	ldr	ip, [sp]
   37a4c:	e080c00c 	add	ip, r0, ip
   37a50:	e581c000 	str	ip, [r1]
   37a54:	e59f0f18 	ldr	r0, [pc, #3864]	; 38974 <init_NN+0xc8>
   37a58:	e3a0c00c 	mov	ip, #12
   37a5c:	e1c0c0b0 	strh	ip, [r0]
   37a60:	e59f0f10 	ldr	r0, [pc, #3856]	; 38978 <init_NN+0xcc>
   37a64:	e3a0c005 	mov	ip, #5
   37a68:	e1c0c0b0 	strh	ip, [r0]
   37a6c:	e59f0f08 	ldr	r0, [pc, #3848]	; 3897c <init_NN+0xd0>
   37a70:	e3a0c000 	mov	ip, #0
   37a74:	e1c0c0b0 	strh	ip, [r0]
   37a78:	e59f0f00 	ldr	r0, [pc, #3840]	; 38980 <init_NN+0xd4>
   37a7c:	e3a0c002 	mov	ip, #2
   37a80:	e1c0c0b0 	strh	ip, [r0]
   37a84:	e59f1ef8 	ldr	r1, [pc, #3832]	; 38984 <init_NN+0xd8>
   37a88:	e59f0ef8 	ldr	r0, [pc, #3832]	; 38988 <init_NN+0xdc>
   37a8c:	e59dc000 	ldr	ip, [sp]
   37a90:	e080c00c 	add	ip, r0, ip
   37a94:	e581c000 	str	ip, [r1]
   37a98:	e59f1eec 	ldr	r1, [pc, #3820]	; 3898c <init_NN+0xe0>
   37a9c:	e59f0eec 	ldr	r0, [pc, #3820]	; 38990 <init_NN+0xe4>
   37aa0:	e59dc000 	ldr	ip, [sp]
   37aa4:	e080c00c 	add	ip, r0, ip
   37aa8:	e581c000 	str	ip, [r1]
   37aac:	e59f0ee0 	ldr	r0, [pc, #3808]	; 38994 <init_NN+0xe8>
   37ab0:	e3a0c007 	mov	ip, #7
   37ab4:	e1c0c0b0 	strh	ip, [r0]
   37ab8:	e59f0fe4 	ldr	r0, [pc, #4068]	; 38aa4 <run_nn+0x10c>
   37abc:	e3a0c007 	mov	ip, #7
   37ac0:	e1c0c0b0 	strh	ip, [r0]
   37ac4:	e59f0fdc 	ldr	r0, [pc, #4060]	; 38aa8 <run_nn+0x110>
   37ac8:	e59fcfdc 	ldr	ip, [pc, #4060]	; 38aac <run_nn+0x114>
   37acc:	e580c000 	str	ip, [r0]
   37ad0:	e59f0fd8 	ldr	r0, [pc, #4056]	; 38ab0 <run_nn+0x118>
   37ad4:	e3a0c00c 	mov	ip, #12
   37ad8:	e1c0c0b0 	strh	ip, [r0]
   37adc:	e59f0fd0 	ldr	r0, [pc, #4048]	; 38ab4 <run_nn+0x11c>
   37ae0:	e59fcfd0 	ldr	ip, [pc, #4048]	; 38ab8 <run_nn+0x120>
   37ae4:	e580c000 	str	ip, [r0]
   37ae8:	e59f0fcc 	ldr	r0, [pc, #4044]	; 38abc <run_nn+0x124>
   37aec:	e3a0c000 	mov	ip, #0
   37af0:	e580c000 	str	ip, [r0]
   37af4:	e59f0fc4 	ldr	r0, [pc, #4036]	; 38ac0 <run_nn+0x128>
   37af8:	e3a0cd1b 	mov	ip, #1728	; 0x6c0
   37afc:	e580c000 	str	ip, [r0]
   37b00:	e59f0fbc 	ldr	r0, [pc, #4028]	; 38ac4 <run_nn+0x12c>
   37b04:	e3a0cf4e 	mov	ip, #312	; 0x138
   37b08:	e1c0c0b0 	strh	ip, [r0]
   37b0c:	e59f1fb4 	ldr	r1, [pc, #4020]	; 38ac8 <run_nn+0x130>
   37b10:	e59dc004 	ldr	ip, [sp, #4]
   37b14:	e59f0fb0 	ldr	r0, [pc, #4016]	; 38acc <run_nn+0x134>
   37b18:	e080c10c 	add	ip, r0, ip, lsl #2
   37b1c:	e581c000 	str	ip, [r1]
   37b20:	e59dc004 	ldr	ip, [sp, #4]
   37b24:	e28cc00c 	add	ip, ip, #12
   37b28:	e58dc004 	str	ip, [sp, #4]
   37b2c:	e59f0f9c 	ldr	r0, [pc, #3996]	; 38ad0 <run_nn+0x138>
   37b30:	e3a0c000 	mov	ip, #0
   37b34:	e580c000 	str	ip, [r0]
   37b38:	e59f0f94 	ldr	r0, [pc, #3988]	; 38ad4 <run_nn+0x13c>
   37b3c:	e59fcf68 	ldr	ip, [pc, #3944]	; 38aac <run_nn+0x114>
   37b40:	e580c000 	str	ip, [r0]
   37b44:	e59dc000 	ldr	ip, [sp]
   37b48:	e28ccf4e 	add	ip, ip, #312	; 0x138
   37b4c:	e58dc000 	str	ip, [sp]
   37b50:	e59f0f80 	ldr	r0, [pc, #3968]	; 38ad8 <run_nn+0x140>
   37b54:	e3a0c003 	mov	ip, #3
   37b58:	e5c0c000 	strb	ip, [r0]
   37b5c:	e59f0f78 	ldr	r0, [pc, #3960]	; 38adc <run_nn+0x144>
   37b60:	e59fcf44 	ldr	ip, [pc, #3908]	; 38aac <run_nn+0x114>
   37b64:	e580c000 	str	ip, [r0]
   37b68:	e59f0f70 	ldr	r0, [pc, #3952]	; 38ae0 <run_nn+0x148>
   37b6c:	e59fcf70 	ldr	ip, [pc, #3952]	; 38ae4 <run_nn+0x14c>
   37b70:	e580c000 	str	ip, [r0]
   37b74:	e59f0f6c 	ldr	r0, [pc, #3948]	; 38ae8 <run_nn+0x150>
   37b78:	e3a0c034 	mov	ip, #52	; 0x34
   37b7c:	e5c0c000 	strb	ip, [r0]
   37b80:	e59f0f64 	ldr	r0, [pc, #3940]	; 38aec <run_nn+0x154>
   37b84:	e3a0cd1b 	mov	ip, #1728	; 0x6c0
   37b88:	e1c0c0b0 	strh	ip, [r0]
   37b8c:	e59f0f5c 	ldr	r0, [pc, #3932]	; 38af0 <run_nn+0x158>
   37b90:	e3a0cd1b 	mov	ip, #1728	; 0x6c0
   37b94:	e580c000 	str	ip, [r0]
   37b98:	e59f0f54 	ldr	r0, [pc, #3924]	; 38af4 <run_nn+0x15c>
   37b9c:	e59fcf08 	ldr	ip, [pc, #3848]	; 38aac <run_nn+0x114>
   37ba0:	e580c000 	str	ip, [r0]
   37ba4:	e59f0f4c 	ldr	r0, [pc, #3916]	; 38af8 <run_nn+0x160>
   37ba8:	e59fcf34 	ldr	ip, [pc, #3892]	; 38ae4 <run_nn+0x14c>
   37bac:	e580c000 	str	ip, [r0]
   37bb0:	e59f0f44 	ldr	r0, [pc, #3908]	; 38afc <run_nn+0x164>
   37bb4:	e3a0c001 	mov	ip, #1
   37bb8:	e5c0c000 	strb	ip, [r0]
   37bbc:	e59f0f3c 	ldr	r0, [pc, #3900]	; 38b00 <run_nn+0x168>
   37bc0:	e59fcf1c 	ldr	ip, [pc, #3868]	; 38ae4 <run_nn+0x14c>
   37bc4:	e580c000 	str	ip, [r0]
   37bc8:	e59f0fe4 	ldr	r0, [pc, #4068]	; 38bb4 <init_array+0xb0>
   37bcc:	e3a0c00c 	mov	ip, #12
   37bd0:	e1c0c0b0 	strh	ip, [r0]
   37bd4:	e59f0fdc 	ldr	r0, [pc, #4060]	; 38bb8 <init_array+0xb4>
   37bd8:	e3a0c00c 	mov	ip, #12
   37bdc:	e1c0c0b0 	strh	ip, [r0]
   37be0:	e59f0fd4 	ldr	r0, [pc, #4052]	; 38bbc <init_array+0xb8>
   37be4:	e3a0c003 	mov	ip, #3
   37be8:	e1c0c0b0 	strh	ip, [r0]
   37bec:	e59f0fcc 	ldr	r0, [pc, #4044]	; 38bc0 <init_array+0xbc>
   37bf0:	e3a0c000 	mov	ip, #0
   37bf4:	e1c0c0b0 	strh	ip, [r0]
   37bf8:	e59f0fc4 	ldr	r0, [pc, #4036]	; 38bc4 <init_array+0xc0>
   37bfc:	e3a0c001 	mov	ip, #1
   37c00:	e1c0c0b0 	strh	ip, [r0]
   37c04:	e59f0fbc 	ldr	r0, [pc, #4028]	; 38bc8 <init_array+0xc4>
   37c08:	e3a0c00a 	mov	ip, #10
   37c0c:	e1c0c0b0 	strh	ip, [r0]
   37c10:	e59f0fb4 	ldr	r0, [pc, #4020]	; 38bcc <init_array+0xc8>
   37c14:	e59fce9c 	ldr	ip, [pc, #3740]	; 38ab8 <run_nn+0x120>
   37c18:	e580c000 	str	ip, [r0]
   37c1c:	e59f0fac 	ldr	r0, [pc, #4012]	; 38bd0 <init_array+0xcc>
   37c20:	e59fce84 	ldr	ip, [pc, #3716]	; 38aac <run_nn+0x114>
   37c24:	e580c000 	str	ip, [r0]
   37c28:	e59f0fa4 	ldr	r0, [pc, #4004]	; 38bd4 <init_array+0xd0>
   37c2c:	e3a0ce4b 	mov	ip, #1200	; 0x4b0
   37c30:	e580c000 	str	ip, [r0]
   37c34:	e59f0f9c 	ldr	r0, [pc, #3996]	; 38bd8 <init_array+0xd4>
   37c38:	e59fcea4 	ldr	ip, [pc, #3748]	; 38ae4 <run_nn+0x14c>
   37c3c:	e580c000 	str	ip, [r0]
   37c40:	e59f0fe0 	ldr	r0, [pc, #4064]	; 38c28 <init_qsort+0x4c>
   37c44:	e59fce60 	ldr	ip, [pc, #3680]	; 38aac <run_nn+0x114>
   37c48:	e580c000 	str	ip, [r0]
   37c4c:	e59f0fd8 	ldr	r0, [pc, #4056]	; 38c2c <init_qsort+0x50>
   37c50:	e3a0c000 	mov	ip, #0
   37c54:	e5c0c000 	strb	ip, [r0]
   37c58:	e59f0fd0 	ldr	r0, [pc, #4048]	; 38c30 <init_qsort+0x54>
   37c5c:	e59fce48 	ldr	ip, [pc, #3656]	; 38aac <run_nn+0x114>
   37c60:	e580c000 	str	ip, [r0]
   37c64:	e59f0fc8 	ldr	r0, [pc, #4040]	; 38c34 <init_qsort+0x58>
   37c68:	e3a0c00a 	mov	ip, #10
   37c6c:	e1c0c0b0 	strh	ip, [r0]
   37c70:	e59f0fc0 	ldr	r0, [pc, #4032]	; 38c38 <init_qsort+0x5c>
   37c74:	e3a0c00c 	mov	ip, #12
   37c78:	e1c0c0b0 	strh	ip, [r0]
   37c7c:	e59f1fb8 	ldr	r1, [pc, #4024]	; 38c3c <init_qsort+0x60>
   37c80:	e59f0ce0 	ldr	r0, [pc, #3296]	; 38968 <init_NN+0xbc>
   37c84:	e59dc000 	ldr	ip, [sp]
   37c88:	e080c00c 	add	ip, r0, ip
   37c8c:	e581c000 	str	ip, [r1]
   37c90:	e59f1fa8 	ldr	r1, [pc, #4008]	; 38c40 <init_qsort+0x64>
   37c94:	e59f0cd4 	ldr	r0, [pc, #3284]	; 38970 <init_NN+0xc4>
   37c98:	e59dc000 	ldr	ip, [sp]
   37c9c:	e080c00c 	add	ip, r0, ip
   37ca0:	e581c000 	str	ip, [r1]
   37ca4:	e59f0f98 	ldr	r0, [pc, #3992]	; 38c44 <init_qsort+0x68>
   37ca8:	e3a0c018 	mov	ip, #24
   37cac:	e1c0c0b0 	strh	ip, [r0]
   37cb0:	e59f0f90 	ldr	r0, [pc, #3984]	; 38c48 <init_qsort+0x6c>
   37cb4:	e3a0c003 	mov	ip, #3
   37cb8:	e1c0c0b0 	strh	ip, [r0]
   37cbc:	e59f0f88 	ldr	r0, [pc, #3976]	; 38c4c <init_qsort+0x70>
   37cc0:	e3a0c000 	mov	ip, #0
   37cc4:	e1c0c0b0 	strh	ip, [r0]
   37cc8:	e59f0f80 	ldr	r0, [pc, #3968]	; 38c50 <init_qsort+0x74>
   37ccc:	e3a0c001 	mov	ip, #1
   37cd0:	e1c0c0b0 	strh	ip, [r0]
   37cd4:	e59f1f78 	ldr	r1, [pc, #3960]	; 38c54 <init_qsort+0x78>
   37cd8:	e59f0f78 	ldr	r0, [pc, #3960]	; 38c58 <init_qsort+0x7c>
   37cdc:	e59dc000 	ldr	ip, [sp]
   37ce0:	e080c00c 	add	ip, r0, ip
   37ce4:	e581c000 	str	ip, [r1]
   37ce8:	e59f1f6c 	ldr	r1, [pc, #3948]	; 38c5c <init_qsort+0x80>
   37cec:	e59f0f6c 	ldr	r0, [pc, #3948]	; 38c60 <init_qsort+0x84>
   37cf0:	e59dc000 	ldr	ip, [sp]
   37cf4:	e080c00c 	add	ip, r0, ip
   37cf8:	e581c000 	str	ip, [r1]
   37cfc:	e59f0f60 	ldr	r0, [pc, #3936]	; 38c64 <init_qsort+0x88>
   37d00:	e3a0c005 	mov	ip, #5
   37d04:	e1c0c0b0 	strh	ip, [r0]
   37d08:	e59f0f58 	ldr	r0, [pc, #3928]	; 38c68 <init_qsort+0x8c>
   37d0c:	e3a0c006 	mov	ip, #6
   37d10:	e1c0c0b0 	strh	ip, [r0]
   37d14:	e59f0f50 	ldr	r0, [pc, #3920]	; 38c6c <init_qsort+0x90>
   37d18:	e59fcdc4 	ldr	ip, [pc, #3524]	; 38ae4 <run_nn+0x14c>
   37d1c:	e580c000 	str	ip, [r0]
   37d20:	e59f0f48 	ldr	r0, [pc, #3912]	; 38c70 <init_qsort+0x94>
   37d24:	e3a0c008 	mov	ip, #8
   37d28:	e1c0c0b0 	strh	ip, [r0]
   37d2c:	e59f0f40 	ldr	r0, [pc, #3904]	; 38c74 <init_qsort+0x98>
   37d30:	e59fcd80 	ldr	ip, [pc, #3456]	; 38ab8 <run_nn+0x120>
   37d34:	e580c000 	str	ip, [r0]
   37d38:	e59f0f38 	ldr	r0, [pc, #3896]	; 38c78 <init_qsort+0x9c>
   37d3c:	e3a0c000 	mov	ip, #0
   37d40:	e580c000 	str	ip, [r0]
   37d44:	e59f0f30 	ldr	r0, [pc, #3888]	; 38c7c <init_qsort+0xa0>
   37d48:	e3a0cc06 	mov	ip, #1536	; 0x600
   37d4c:	e580c000 	str	ip, [r0]
   37d50:	e59f0f28 	ldr	r0, [pc, #3880]	; 38c80 <init_qsort+0xa4>
   37d54:	e300ca38 	movw	ip, #2616	; 0xa38
   37d58:	e1c0c0b0 	strh	ip, [r0]
   37d5c:	e59f1f20 	ldr	r1, [pc, #3872]	; 38c84 <init_qsort+0xa8>
   37d60:	e59dc004 	ldr	ip, [sp, #4]
   37d64:	e59f0d60 	ldr	r0, [pc, #3424]	; 38acc <run_nn+0x134>
   37d68:	e080c10c 	add	ip, r0, ip, lsl #2
   37d6c:	e581c000 	str	ip, [r1]
   37d70:	e59dc004 	ldr	ip, [sp, #4]
   37d74:	e28cc018 	add	ip, ip, #24
   37d78:	e58dc004 	str	ip, [sp, #4]
   37d7c:	e59f0f04 	ldr	r0, [pc, #3844]	; 38c88 <init_qsort+0xac>
   37d80:	e59fcd24 	ldr	ip, [pc, #3364]	; 38aac <run_nn+0x114>
   37d84:	e580c000 	str	ip, [r0]
   37d88:	e59f0efc 	ldr	r0, [pc, #3836]	; 38c8c <init_qsort+0xb0>
   37d8c:	e59fcd50 	ldr	ip, [pc, #3408]	; 38ae4 <run_nn+0x14c>
   37d90:	e580c000 	str	ip, [r0]
   37d94:	e59dc000 	ldr	ip, [sp]
   37d98:	e3000a38 	movw	r0, #2616	; 0xa38
   37d9c:	e080c00c 	add	ip, r0, ip
   37da0:	e58dc000 	str	ip, [sp]
   37da4:	e59f0ee4 	ldr	r0, [pc, #3812]	; 38c90 <init_qsort+0xb4>
   37da8:	e3a0c003 	mov	ip, #3
   37dac:	e5c0c000 	strb	ip, [r0]
   37db0:	e59f0d2c 	ldr	r0, [pc, #3372]	; 38ae4 <run_nn+0x14c>
   37db4:	e59fced8 	ldr	ip, [pc, #3800]	; 38c94 <init_qsort+0xb8>
   37db8:	e58c0000 	str	r0, [ip]
   37dbc:	e59f0ed4 	ldr	r0, [pc, #3796]	; 38c98 <init_qsort+0xbc>
   37dc0:	e59fcce4 	ldr	ip, [pc, #3300]	; 38aac <run_nn+0x114>
   37dc4:	e580c000 	str	ip, [r0]
   37dc8:	e59f0ecc 	ldr	r0, [pc, #3788]	; 38c9c <init_qsort+0xc0>
   37dcc:	e3a0c034 	mov	ip, #52	; 0x34
   37dd0:	e5c0c000 	strb	ip, [r0]
   37dd4:	e59f0ec4 	ldr	r0, [pc, #3780]	; 38ca0 <init_qsort+0xc4>
   37dd8:	e3a0cc06 	mov	ip, #1536	; 0x600
   37ddc:	e1c0c0b0 	strh	ip, [r0]
   37de0:	e59f0ebc 	ldr	r0, [pc, #3772]	; 38ca4 <init_qsort+0xc8>
   37de4:	e3a0cc06 	mov	ip, #1536	; 0x600
   37de8:	e580c000 	str	ip, [r0]
   37dec:	e59f0ff8 	ldr	r0, [pc, #4088]	; 38dec <quick_sort+0x144>
   37df0:	e59fccec 	ldr	ip, [pc, #3308]	; 38ae4 <run_nn+0x14c>
   37df4:	e580c000 	str	ip, [r0]
   37df8:	e59f0ff0 	ldr	r0, [pc, #4080]	; 38df0 <quick_sort+0x148>
   37dfc:	e59fcca8 	ldr	ip, [pc, #3240]	; 38aac <run_nn+0x114>
   37e00:	e580c000 	str	ip, [r0]
   37e04:	e59f0fe8 	ldr	r0, [pc, #4072]	; 38df4 <quick_sort+0x14c>
   37e08:	e3a0c001 	mov	ip, #1
   37e0c:	e5c0c000 	strb	ip, [r0]
   37e10:	e59f0fe0 	ldr	r0, [pc, #4064]	; 38df8 <quick_sort+0x150>
   37e14:	e59fcc90 	ldr	ip, [pc, #3216]	; 38aac <run_nn+0x114>
   37e18:	e580c000 	str	ip, [r0]
   37e1c:	e59f0fd8 	ldr	r0, [pc, #4056]	; 38dfc <quick_sort+0x154>
   37e20:	e3a0c008 	mov	ip, #8
   37e24:	e1c0c0b0 	strh	ip, [r0]
   37e28:	e59f0fd0 	ldr	r0, [pc, #4048]	; 38e00 <quick_sort+0x158>
   37e2c:	e3a0c018 	mov	ip, #24
   37e30:	e1c0c0b0 	strh	ip, [r0]
   37e34:	e59f0fc8 	ldr	r0, [pc, #4040]	; 38e04 <quick_sort+0x15c>
   37e38:	e3a0c002 	mov	ip, #2
   37e3c:	e1c0c0b0 	strh	ip, [r0]
   37e40:	e59f0fc0 	ldr	r0, [pc, #4032]	; 38e08 <quick_sort+0x160>
   37e44:	e3a0c000 	mov	ip, #0
   37e48:	e1c0c0b0 	strh	ip, [r0]
   37e4c:	e59f0fb8 	ldr	r0, [pc, #4024]	; 38e0c <quick_sort+0x164>
   37e50:	e3a0c001 	mov	ip, #1
   37e54:	e1c0c0b0 	strh	ip, [r0]
   37e58:	e59f0fb0 	ldr	r0, [pc, #4016]	; 38e10 <quick_sort+0x168>
   37e5c:	e3a0c007 	mov	ip, #7
   37e60:	e1c0c0b0 	strh	ip, [r0]
   37e64:	e59f0fa8 	ldr	r0, [pc, #4008]	; 38e14 <quick_sort+0x16c>
   37e68:	e59fcc48 	ldr	ip, [pc, #3144]	; 38ab8 <run_nn+0x120>
   37e6c:	e580c000 	str	ip, [r0]
   37e70:	e59f0fa0 	ldr	r0, [pc, #4000]	; 38e18 <quick_sort+0x170>
   37e74:	e59fcc68 	ldr	ip, [pc, #3176]	; 38ae4 <run_nn+0x14c>
   37e78:	e580c000 	str	ip, [r0]
   37e7c:	e59f0f98 	ldr	r0, [pc, #3992]	; 38e1c <quick_sort+0x174>
   37e80:	e300c498 	movw	ip, #1176	; 0x498
   37e84:	e580c000 	str	ip, [r0]
   37e88:	e59f0f90 	ldr	r0, [pc, #3984]	; 38e20 <quick_sort+0x178>
   37e8c:	e59fcc18 	ldr	ip, [pc, #3096]	; 38aac <run_nn+0x114>
   37e90:	e580c000 	str	ip, [r0]
   37e94:	e59f0f88 	ldr	r0, [pc, #3976]	; 38e24 <quick_sort+0x17c>
   37e98:	e59fcc44 	ldr	ip, [pc, #3140]	; 38ae4 <run_nn+0x14c>
   37e9c:	e580c000 	str	ip, [r0]
   37ea0:	e59f0f80 	ldr	r0, [pc, #3968]	; 38e28 <quick_sort+0x180>
   37ea4:	e3a0c000 	mov	ip, #0
   37ea8:	e5c0c000 	strb	ip, [r0]
   37eac:	e59f0f78 	ldr	r0, [pc, #3960]	; 38e2c <quick_sort+0x184>
   37eb0:	e59fcc2c 	ldr	ip, [pc, #3116]	; 38ae4 <run_nn+0x14c>
   37eb4:	e580c000 	str	ip, [r0]
   37eb8:	e59f0f70 	ldr	r0, [pc, #3952]	; 38e30 <quick_sort+0x188>
   37ebc:	e3a0c007 	mov	ip, #7
   37ec0:	e1c0c0b0 	strh	ip, [r0]
   37ec4:	e59f0f68 	ldr	r0, [pc, #3944]	; 38e34 <quick_sort+0x18c>
   37ec8:	e3a0c018 	mov	ip, #24
   37ecc:	e1c0c0b0 	strh	ip, [r0]
   37ed0:	e59f1f60 	ldr	r1, [pc, #3936]	; 38e38 <quick_sort+0x190>
   37ed4:	e59dc000 	ldr	ip, [sp]
   37ed8:	e59f0a88 	ldr	r0, [pc, #2696]	; 38968 <init_NN+0xbc>
   37edc:	e080c00c 	add	ip, r0, ip
   37ee0:	e581c000 	str	ip, [r1]
   37ee4:	e59f1f50 	ldr	r1, [pc, #3920]	; 38e3c <quick_sort+0x194>
   37ee8:	e59dc000 	ldr	ip, [sp]
   37eec:	e59f0a7c 	ldr	r0, [pc, #2684]	; 38970 <init_NN+0xc4>
   37ef0:	e080c00c 	add	ip, r0, ip
   37ef4:	e581c000 	str	ip, [r1]
   37ef8:	e59f0fd4 	ldr	r0, [pc, #4052]	; 38ed4 <test_qsort+0x94>
   37efc:	e3a0c030 	mov	ip, #48	; 0x30
   37f00:	e1c0c0b0 	strh	ip, [r0]
   37f04:	e59f0fcc 	ldr	r0, [pc, #4044]	; 38ed8 <test_qsort+0x98>
   37f08:	e3a0c002 	mov	ip, #2
   37f0c:	e1c0c0b0 	strh	ip, [r0]
   37f10:	e59f0fc4 	ldr	r0, [pc, #4036]	; 38edc <test_qsort+0x9c>
   37f14:	e3a0c000 	mov	ip, #0
   37f18:	e1c0c0b0 	strh	ip, [r0]
   37f1c:	e59f0fbc 	ldr	r0, [pc, #4028]	; 38ee0 <test_qsort+0xa0>
   37f20:	e3a0c001 	mov	ip, #1
   37f24:	e1c0c0b0 	strh	ip, [r0]
   37f28:	e59f1fb4 	ldr	r1, [pc, #4020]	; 38ee4 <test_qsort+0xa4>
   37f2c:	e59dc000 	ldr	ip, [sp]
   37f30:	e59f0fb0 	ldr	r0, [pc, #4016]	; 38ee8 <test_qsort+0xa8>
   37f34:	e080c00c 	add	ip, r0, ip
   37f38:	e581c000 	str	ip, [r1]
   37f3c:	e59f1fa8 	ldr	r1, [pc, #4008]	; 38eec <test_qsort+0xac>
   37f40:	e59dc000 	ldr	ip, [sp]
   37f44:	e59f0fa4 	ldr	r0, [pc, #4004]	; 38ef0 <test_qsort+0xb0>
   37f48:	e080c00c 	add	ip, r0, ip
   37f4c:	e581c000 	str	ip, [r1]
   37f50:	e59f0f9c 	ldr	r0, [pc, #3996]	; 38ef4 <test_qsort+0xb4>
   37f54:	e3a0c004 	mov	ip, #4
   37f58:	e1c0c0b0 	strh	ip, [r0]
   37f5c:	e59f0f94 	ldr	r0, [pc, #3988]	; 38ef8 <test_qsort+0xb8>
   37f60:	e3a0c005 	mov	ip, #5
   37f64:	e1c0c0b0 	strh	ip, [r0]
   37f68:	e59f0fdc 	ldr	r0, [pc, #4060]	; 38f4c <init_crc+0x50>
   37f6c:	e59fcb38 	ldr	ip, [pc, #2872]	; 38aac <run_nn+0x114>
   37f70:	e580c000 	str	ip, [r0]
   37f74:	e59f0fd4 	ldr	r0, [pc, #4052]	; 38f50 <init_crc+0x54>
   37f78:	e3a0c006 	mov	ip, #6
   37f7c:	e1c0c0b0 	strh	ip, [r0]
   37f80:	e59f0fcc 	ldr	r0, [pc, #4044]	; 38f54 <init_crc+0x58>
   37f84:	e59fcb2c 	ldr	ip, [pc, #2860]	; 38ab8 <run_nn+0x120>
   37f88:	e580c000 	str	ip, [r0]
   37f8c:	e59f0fc4 	ldr	r0, [pc, #4036]	; 38f58 <init_crc+0x5c>
   37f90:	e3a0c000 	mov	ip, #0
   37f94:	e580c000 	str	ip, [r0]
   37f98:	e59f0fbc 	ldr	r0, [pc, #4028]	; 38f5c <init_crc+0x60>
   37f9c:	e3a0cd1b 	mov	ip, #1728	; 0x6c0
   37fa0:	e580c000 	str	ip, [r0]
   37fa4:	e59f0fb4 	ldr	r0, [pc, #4020]	; 38f60 <init_crc+0x64>
   37fa8:	e301c230 	movw	ip, #4656	; 0x1230
   37fac:	e1c0c0b0 	strh	ip, [r0]
   37fb0:	e59dc004 	ldr	ip, [sp, #4]
   37fb4:	e59f1fa8 	ldr	r1, [pc, #4008]	; 38f64 <init_crc+0x68>
   37fb8:	e59f0b0c 	ldr	r0, [pc, #2828]	; 38acc <run_nn+0x134>
   37fbc:	e080c10c 	add	ip, r0, ip, lsl #2
   37fc0:	e581c000 	str	ip, [r1]
   37fc4:	e59dc004 	ldr	ip, [sp, #4]
   37fc8:	e28cc030 	add	ip, ip, #48	; 0x30
   37fcc:	e58dc004 	str	ip, [sp, #4]
   37fd0:	e59f0f90 	ldr	r0, [pc, #3984]	; 38f68 <init_crc+0x6c>
   37fd4:	e59fcb08 	ldr	ip, [pc, #2824]	; 38ae4 <run_nn+0x14c>
   37fd8:	e580c000 	str	ip, [r0]
   37fdc:	e59f0f88 	ldr	r0, [pc, #3976]	; 38f6c <init_crc+0x70>
   37fe0:	e59fcac4 	ldr	ip, [pc, #2756]	; 38aac <run_nn+0x114>
   37fe4:	e580c000 	str	ip, [r0]
   37fe8:	e59dc000 	ldr	ip, [sp]
   37fec:	e3010230 	movw	r0, #4656	; 0x1230
   37ff0:	e080c00c 	add	ip, r0, ip
   37ff4:	e58dc000 	str	ip, [sp]
   37ff8:	e59f0f70 	ldr	r0, [pc, #3952]	; 38f70 <init_crc+0x74>
   37ffc:	e3a0c003 	mov	ip, #3
   38000:	e5c0c000 	strb	ip, [r0]
   38004:	e59f0f68 	ldr	r0, [pc, #3944]	; 38f74 <init_crc+0x78>
   38008:	e59fca9c 	ldr	ip, [pc, #2716]	; 38aac <run_nn+0x114>
   3800c:	e580c000 	str	ip, [r0]
   38010:	e59f0f60 	ldr	r0, [pc, #3936]	; 38f78 <init_crc+0x7c>
   38014:	e59fcac8 	ldr	ip, [pc, #2760]	; 38ae4 <run_nn+0x14c>
   38018:	e580c000 	str	ip, [r0]
   3801c:	e59f0f58 	ldr	r0, [pc, #3928]	; 38f7c <init_crc+0x80>
   38020:	e3a0c052 	mov	ip, #82	; 0x52
   38024:	e5c0c000 	strb	ip, [r0]
   38028:	e59f0fdc 	ldr	r0, [pc, #4060]	; 3900c <crc16+0x8c>
   3802c:	e3a0cd1b 	mov	ip, #1728	; 0x6c0
   38030:	e1c0c0b0 	strh	ip, [r0]
   38034:	e59f0fd4 	ldr	r0, [pc, #4052]	; 39010 <crc16+0x90>
   38038:	e3a0cd1b 	mov	ip, #1728	; 0x6c0
   3803c:	e580c000 	str	ip, [r0]
   38040:	e59f0fcc 	ldr	r0, [pc, #4044]	; 39014 <crc16+0x94>
   38044:	e59fca60 	ldr	ip, [pc, #2656]	; 38aac <run_nn+0x114>
   38048:	e580c000 	str	ip, [r0]
   3804c:	e59f0fc4 	ldr	r0, [pc, #4036]	; 39018 <crc16+0x98>
   38050:	e59fca8c 	ldr	ip, [pc, #2700]	; 38ae4 <run_nn+0x14c>
   38054:	e580c000 	str	ip, [r0]
   38058:	e59f0fbc 	ldr	r0, [pc, #4028]	; 3901c <crc16+0x9c>
   3805c:	e3a0c000 	mov	ip, #0
   38060:	e5c0c000 	strb	ip, [r0]
   38064:	e59f0fb4 	ldr	r0, [pc, #4020]	; 39020 <crc16+0xa0>
   38068:	e59fca74 	ldr	ip, [pc, #2676]	; 38ae4 <run_nn+0x14c>
   3806c:	e580c000 	str	ip, [r0]
   38070:	e59f0fac 	ldr	r0, [pc, #4012]	; 39024 <crc16+0xa4>
   38074:	e3a0c006 	mov	ip, #6
   38078:	e1c0c0b0 	strh	ip, [r0]
   3807c:	e59f0fa4 	ldr	r0, [pc, #4004]	; 39028 <crc16+0xa8>
   38080:	e3a0c030 	mov	ip, #48	; 0x30
   38084:	e1c0c0b0 	strh	ip, [r0]
   38088:	e59f1f9c 	ldr	r1, [pc, #3996]	; 3902c <crc16+0xac>
   3808c:	e59f08d4 	ldr	r0, [pc, #2260]	; 38968 <init_NN+0xbc>
   38090:	e59dc000 	ldr	ip, [sp]
   38094:	e080c00c 	add	ip, r0, ip
   38098:	e581c000 	str	ip, [r1]
   3809c:	e59f1f8c 	ldr	r1, [pc, #3980]	; 39030 <crc16+0xb0>
   380a0:	e59f08c8 	ldr	r0, [pc, #2248]	; 38970 <init_NN+0xc4>
   380a4:	e59dc000 	ldr	ip, [sp]
   380a8:	e080c00c 	add	ip, r0, ip
   380ac:	e581c000 	str	ip, [r1]
   380b0:	e59f0fbc 	ldr	r0, [pc, #4028]	; 39074 <test_crc+0x40>
   380b4:	e3a0c030 	mov	ip, #48	; 0x30
   380b8:	e1c0c0b0 	strh	ip, [r0]
   380bc:	e59f0fb4 	ldr	r0, [pc, #4020]	; 39078 <test_crc+0x44>
   380c0:	e3a0c002 	mov	ip, #2
   380c4:	e1c0c0b0 	strh	ip, [r0]
   380c8:	e59f0fac 	ldr	r0, [pc, #4012]	; 3907c <test_crc+0x48>
   380cc:	e3a0c000 	mov	ip, #0
   380d0:	e1c0c0b0 	strh	ip, [r0]
   380d4:	e59f0fa4 	ldr	r0, [pc, #4004]	; 39080 <test_crc+0x4c>
   380d8:	e3a0c001 	mov	ip, #1
   380dc:	e1c0c0b0 	strh	ip, [r0]
   380e0:	e59f1f9c 	ldr	r1, [pc, #3996]	; 39084 <test_crc+0x50>
   380e4:	e59f0f9c 	ldr	r0, [pc, #3996]	; 39088 <test_crc+0x54>
   380e8:	e59dc000 	ldr	ip, [sp]
   380ec:	e080c00c 	add	ip, r0, ip
   380f0:	e581c000 	str	ip, [r1]
   380f4:	e59f1f90 	ldr	r1, [pc, #3984]	; 3908c <test_crc+0x58>
   380f8:	e59f0f90 	ldr	r0, [pc, #3984]	; 39090 <test_crc+0x5c>
   380fc:	e59dc000 	ldr	ip, [sp]
   38100:	e080c00c 	add	ip, r0, ip
   38104:	e581c000 	str	ip, [r1]
   38108:	e59f0f84 	ldr	r0, [pc, #3972]	; 39094 <test_crc+0x60>
   3810c:	e3a0c004 	mov	ip, #4
   38110:	e1c0c0b0 	strh	ip, [r0]
   38114:	e59f0f7c 	ldr	r0, [pc, #3964]	; 39098 <test_crc+0x64>
   38118:	e3a0c006 	mov	ip, #6
   3811c:	e1c0c0b0 	strh	ip, [r0]
   38120:	e59f0f74 	ldr	r0, [pc, #3956]	; 3909c <test_crc+0x68>
   38124:	e59fc980 	ldr	ip, [pc, #2432]	; 38aac <run_nn+0x114>
   38128:	e580c000 	str	ip, [r0]
   3812c:	e59f0f6c 	ldr	r0, [pc, #3948]	; 390a0 <test_crc+0x6c>
   38130:	e3a0c005 	mov	ip, #5
   38134:	e1c0c0b0 	strh	ip, [r0]
   38138:	e59f0f64 	ldr	r0, [pc, #3940]	; 390a4 <test_crc+0x70>
   3813c:	e59fc974 	ldr	ip, [pc, #2420]	; 38ab8 <run_nn+0x120>
   38140:	e580c000 	str	ip, [r0]
   38144:	e59f0f5c 	ldr	r0, [pc, #3932]	; 390a8 <test_crc+0x74>
   38148:	e3a0c000 	mov	ip, #0
   3814c:	e580c000 	str	ip, [r0]
   38150:	e59f0f54 	ldr	r0, [pc, #3924]	; 390ac <test_crc+0x78>
   38154:	e3a0ce4b 	mov	ip, #1200	; 0x4b0
   38158:	e580c000 	str	ip, [r0]
   3815c:	e59f0f4c 	ldr	r0, [pc, #3916]	; 390b0 <test_crc+0x7c>
   38160:	e302c430 	movw	ip, #9264	; 0x2430
   38164:	e1c0c0b0 	strh	ip, [r0]
   38168:	e59f1f44 	ldr	r1, [pc, #3908]	; 390b4 <test_crc+0x80>
   3816c:	e59dc004 	ldr	ip, [sp, #4]
   38170:	e59f0954 	ldr	r0, [pc, #2388]	; 38acc <run_nn+0x134>
   38174:	e080c10c 	add	ip, r0, ip, lsl #2
   38178:	e581c000 	str	ip, [r1]
   3817c:	e59dc004 	ldr	ip, [sp, #4]
   38180:	e28cc030 	add	ip, ip, #48	; 0x30
   38184:	e58dc004 	str	ip, [sp, #4]
   38188:	e59f0f28 	ldr	r0, [pc, #3880]	; 390b8 <test_crc+0x84>
   3818c:	e59fc950 	ldr	ip, [pc, #2384]	; 38ae4 <run_nn+0x14c>
   38190:	e580c000 	str	ip, [r0]
   38194:	e59f0f20 	ldr	r0, [pc, #3872]	; 390bc <test_crc+0x88>
   38198:	e59fc90c 	ldr	ip, [pc, #2316]	; 38aac <run_nn+0x114>
   3819c:	e580c000 	str	ip, [r0]
   381a0:	e59dc000 	ldr	ip, [sp]
   381a4:	e3020430 	movw	r0, #9264	; 0x2430
   381a8:	e080c00c 	add	ip, r0, ip
   381ac:	e58dc000 	str	ip, [sp]
   381b0:	e59f0f08 	ldr	r0, [pc, #3848]	; 390c0 <test_crc+0x8c>
   381b4:	e3a0c003 	mov	ip, #3
   381b8:	e5c0c000 	strb	ip, [r0]
   381bc:	e59f0f00 	ldr	r0, [pc, #3840]	; 390c4 <test_crc+0x90>
   381c0:	e59fc8e4 	ldr	ip, [pc, #2276]	; 38aac <run_nn+0x114>
   381c4:	e580c000 	str	ip, [r0]
   381c8:	e59f0ef8 	ldr	r0, [pc, #3832]	; 390c8 <test_crc+0x94>
   381cc:	e59fc910 	ldr	ip, [pc, #2320]	; 38ae4 <run_nn+0x14c>
   381d0:	e580c000 	str	ip, [r0]
   381d4:	e59f0ef0 	ldr	r0, [pc, #3824]	; 390cc <test_crc+0x98>
   381d8:	e3a0c034 	mov	ip, #52	; 0x34
   381dc:	e5c0c000 	strb	ip, [r0]
   381e0:	e59f0ee8 	ldr	r0, [pc, #3816]	; 390d0 <test_crc+0x9c>
   381e4:	e3a0ce4b 	mov	ip, #1200	; 0x4b0
   381e8:	e1c0c0b0 	strh	ip, [r0]
   381ec:	e59f0ee0 	ldr	r0, [pc, #3808]	; 390d4 <test_crc+0xa0>
   381f0:	e3a0ce4b 	mov	ip, #1200	; 0x4b0
   381f4:	e580c000 	str	ip, [r0]
   381f8:	e59f0ed8 	ldr	r0, [pc, #3800]	; 390d8 <test_crc+0xa4>
   381fc:	e59fc8a8 	ldr	ip, [pc, #2216]	; 38aac <run_nn+0x114>
   38200:	e580c000 	str	ip, [r0]
   38204:	e59f0ed0 	ldr	r0, [pc, #3792]	; 390dc <test_crc+0xa8>
   38208:	e59fc8d4 	ldr	ip, [pc, #2260]	; 38ae4 <run_nn+0x14c>
   3820c:	e580c000 	str	ip, [r0]
   38210:	e59f0ec8 	ldr	r0, [pc, #3784]	; 390e0 <test_crc+0xac>
   38214:	e3a0c000 	mov	ip, #0
   38218:	e5c0c000 	strb	ip, [r0]
   3821c:	e59f0ec0 	ldr	r0, [pc, #3776]	; 390e4 <test_crc+0xb0>
   38220:	e59fc8bc 	ldr	ip, [pc, #2236]	; 38ae4 <run_nn+0x14c>
   38224:	e580c000 	str	ip, [r0]
   38228:	e59f0fdc 	ldr	r0, [pc, #4060]	; 3920c <matrix_multiply+0x124>
   3822c:	e3a0c005 	mov	ip, #5
   38230:	e1c0c0b0 	strh	ip, [r0]
   38234:	e59f0fd4 	ldr	r0, [pc, #4052]	; 39210 <matrix_multiply+0x128>
   38238:	e3a0c030 	mov	ip, #48	; 0x30
   3823c:	e1c0c0b0 	strh	ip, [r0]
   38240:	e59f1fcc 	ldr	r1, [pc, #4044]	; 39214 <matrix_multiply+0x12c>
   38244:	e59f071c 	ldr	r0, [pc, #1820]	; 38968 <init_NN+0xbc>
   38248:	e59dc000 	ldr	ip, [sp]
   3824c:	e080c00c 	add	ip, r0, ip
   38250:	e581c000 	str	ip, [r1]
   38254:	e59f1fbc 	ldr	r1, [pc, #4028]	; 39218 <matrix_multiply+0x130>
   38258:	e59f0710 	ldr	r0, [pc, #1808]	; 38970 <init_NN+0xc4>
   3825c:	e59dc000 	ldr	ip, [sp]
   38260:	e080c00c 	add	ip, r0, ip
   38264:	e581c000 	str	ip, [r1]
   38268:	e59f0fac 	ldr	r0, [pc, #4012]	; 3921c <matrix_multiply+0x134>
   3826c:	e3a0c020 	mov	ip, #32
   38270:	e1c0c0b0 	strh	ip, [r0]
   38274:	e59f0fa4 	ldr	r0, [pc, #4004]	; 39220 <matrix_multiply+0x138>
   38278:	e3a0c002 	mov	ip, #2
   3827c:	e1c0c0b0 	strh	ip, [r0]
   38280:	e59f0f9c 	ldr	r0, [pc, #3996]	; 39224 <matrix_multiply+0x13c>
   38284:	e3a0c000 	mov	ip, #0
   38288:	e1c0c0b0 	strh	ip, [r0]
   3828c:	e59f0f94 	ldr	r0, [pc, #3988]	; 39228 <matrix_multiply+0x140>
   38290:	e3a0c001 	mov	ip, #1
   38294:	e1c0c0b0 	strh	ip, [r0]
   38298:	e59f1f8c 	ldr	r1, [pc, #3980]	; 3922c <matrix_multiply+0x144>
   3829c:	e59f0f8c 	ldr	r0, [pc, #3980]	; 39230 <matrix_multiply+0x148>
   382a0:	e59dc000 	ldr	ip, [sp]
   382a4:	e080c00c 	add	ip, r0, ip
   382a8:	e581c000 	str	ip, [r1]
   382ac:	e59f1f80 	ldr	r1, [pc, #3968]	; 39234 <matrix_multiply+0x14c>
   382b0:	e59f0f80 	ldr	r0, [pc, #3968]	; 39238 <matrix_multiply+0x150>
   382b4:	e59dc000 	ldr	ip, [sp]
   382b8:	e080c00c 	add	ip, r0, ip
   382bc:	e581c000 	str	ip, [r1]
   382c0:	e59f0f74 	ldr	r0, [pc, #3956]	; 3923c <matrix_multiply+0x154>
   382c4:	e3a0c003 	mov	ip, #3
   382c8:	e1c0c0b0 	strh	ip, [r0]
   382cc:	e59f0f6c 	ldr	r0, [pc, #3948]	; 39240 <matrix_multiply+0x158>
   382d0:	e3a0c005 	mov	ip, #5
   382d4:	e1c0c0b0 	strh	ip, [r0]
   382d8:	e59f0f64 	ldr	r0, [pc, #3940]	; 39244 <matrix_multiply+0x15c>
   382dc:	e59fc7c8 	ldr	ip, [pc, #1992]	; 38aac <run_nn+0x114>
   382e0:	e580c000 	str	ip, [r0]
   382e4:	e59f0f5c 	ldr	r0, [pc, #3932]	; 39248 <matrix_multiply+0x160>
   382e8:	e3a0c004 	mov	ip, #4
   382ec:	e1c0c0b0 	strh	ip, [r0]
   382f0:	e59f0f54 	ldr	r0, [pc, #3924]	; 3924c <matrix_multiply+0x164>
   382f4:	e59fc7bc 	ldr	ip, [pc, #1980]	; 38ab8 <run_nn+0x120>
   382f8:	e580c000 	str	ip, [r0]
   382fc:	e59f0f4c 	ldr	r0, [pc, #3916]	; 39250 <matrix_multiply+0x168>
   38300:	e3a0c000 	mov	ip, #0
   38304:	e580c000 	str	ip, [r0]
   38308:	e59f0f44 	ldr	r0, [pc, #3908]	; 39254 <matrix_multiply+0x16c>
   3830c:	e3a0cc02 	mov	ip, #512	; 0x200
   38310:	e580c000 	str	ip, [r0]
   38314:	e59f0f3c 	ldr	r0, [pc, #3900]	; 39258 <matrix_multiply+0x170>
   38318:	e301c820 	movw	ip, #6176	; 0x1820
   3831c:	e1c0c0b0 	strh	ip, [r0]
   38320:	e59f1f34 	ldr	r1, [pc, #3892]	; 3925c <matrix_multiply+0x174>
   38324:	e59dc004 	ldr	ip, [sp, #4]
   38328:	e59f079c 	ldr	r0, [pc, #1948]	; 38acc <run_nn+0x134>
   3832c:	e080c10c 	add	ip, r0, ip, lsl #2
   38330:	e581c000 	str	ip, [r1]
   38334:	e59dc004 	ldr	ip, [sp, #4]
   38338:	e28cc020 	add	ip, ip, #32
   3833c:	e58dc004 	str	ip, [sp, #4]
   38340:	e59f0fe4 	ldr	r0, [pc, #4068]	; 3932c <init_mm+0xcc>
   38344:	e59fc798 	ldr	ip, [pc, #1944]	; 38ae4 <run_nn+0x14c>
   38348:	e580c000 	str	ip, [r0]
   3834c:	e59f0fdc 	ldr	r0, [pc, #4060]	; 39330 <init_mm+0xd0>
   38350:	e59fc754 	ldr	ip, [pc, #1876]	; 38aac <run_nn+0x114>
   38354:	e580c000 	str	ip, [r0]
   38358:	e59dc000 	ldr	ip, [sp]
   3835c:	e3010820 	movw	r0, #6176	; 0x1820
   38360:	e080c00c 	add	ip, r0, ip
   38364:	e58dc000 	str	ip, [sp]
   38368:	e59f0fc4 	ldr	r0, [pc, #4036]	; 39334 <init_mm+0xd4>
   3836c:	e3a0c003 	mov	ip, #3
   38370:	e5c0c000 	strb	ip, [r0]
   38374:	e59f0fbc 	ldr	r0, [pc, #4028]	; 39338 <init_mm+0xd8>
   38378:	e59fc72c 	ldr	ip, [pc, #1836]	; 38aac <run_nn+0x114>
   3837c:	e580c000 	str	ip, [r0]
   38380:	e59f0fb4 	ldr	r0, [pc, #4020]	; 3933c <init_mm+0xdc>
   38384:	e59fc758 	ldr	ip, [pc, #1880]	; 38ae4 <run_nn+0x14c>
   38388:	e580c000 	str	ip, [r0]
   3838c:	e59f0fac 	ldr	r0, [pc, #4012]	; 39340 <init_mm+0xe0>
   38390:	e3a0c04c 	mov	ip, #76	; 0x4c
   38394:	e5c0c000 	strb	ip, [r0]
   38398:	e59f0fa4 	ldr	r0, [pc, #4004]	; 39344 <init_mm+0xe4>
   3839c:	e3a0cc02 	mov	ip, #512	; 0x200
   383a0:	e1c0c0b0 	strh	ip, [r0]
   383a4:	e59f0f9c 	ldr	r0, [pc, #3996]	; 39348 <init_mm+0xe8>
   383a8:	e3a0cc02 	mov	ip, #512	; 0x200
   383ac:	e580c000 	str	ip, [r0]
   383b0:	e59f0f94 	ldr	r0, [pc, #3988]	; 3934c <init_mm+0xec>
   383b4:	e59fc6f0 	ldr	ip, [pc, #1776]	; 38aac <run_nn+0x114>
   383b8:	e580c000 	str	ip, [r0]
   383bc:	e59f0f8c 	ldr	r0, [pc, #3980]	; 39350 <init_mm+0xf0>
   383c0:	e59fc71c 	ldr	ip, [pc, #1820]	; 38ae4 <run_nn+0x14c>
   383c4:	e580c000 	str	ip, [r0]
   383c8:	e59f0f84 	ldr	r0, [pc, #3972]	; 39354 <init_mm+0xf4>
   383cc:	e3a0c001 	mov	ip, #1
   383d0:	e5c0c000 	strb	ip, [r0]
   383d4:	e59f0f7c 	ldr	r0, [pc, #3964]	; 39358 <init_mm+0xf8>
   383d8:	e59fc704 	ldr	ip, [pc, #1796]	; 38ae4 <run_nn+0x14c>
   383dc:	e580c000 	str	ip, [r0]
   383e0:	e59f0f74 	ldr	r0, [pc, #3956]	; 3935c <init_mm+0xfc>
   383e4:	e3a0c004 	mov	ip, #4
   383e8:	e1c0c0b0 	strh	ip, [r0]
   383ec:	e59f0f6c 	ldr	r0, [pc, #3948]	; 39360 <init_mm+0x100>
   383f0:	e3a0c020 	mov	ip, #32
   383f4:	e1c0c0b0 	strh	ip, [r0]
   383f8:	e59f0f64 	ldr	r0, [pc, #3940]	; 39364 <init_mm+0x104>
   383fc:	e3a0c002 	mov	ip, #2
   38400:	e1c0c0b0 	strh	ip, [r0]
   38404:	e59f0f5c 	ldr	r0, [pc, #3932]	; 39368 <init_mm+0x108>
   38408:	e3a0c000 	mov	ip, #0
   3840c:	e1c0c0b0 	strh	ip, [r0]
   38410:	e59f0f54 	ldr	r0, [pc, #3924]	; 3936c <init_mm+0x10c>
   38414:	e3a0c001 	mov	ip, #1
   38418:	e1c0c0b0 	strh	ip, [r0]
   3841c:	e59f0f4c 	ldr	r0, [pc, #3916]	; 39370 <init_mm+0x110>
   38420:	e3a0c003 	mov	ip, #3
   38424:	e1c0c0b0 	strh	ip, [r0]
   38428:	e59f0f44 	ldr	r0, [pc, #3908]	; 39374 <init_mm+0x114>
   3842c:	e59fc684 	ldr	ip, [pc, #1668]	; 38ab8 <run_nn+0x120>
   38430:	e580c000 	str	ip, [r0]
   38434:	e59f0f3c 	ldr	r0, [pc, #3900]	; 39378 <init_mm+0x118>
   38438:	e59fc66c 	ldr	ip, [pc, #1644]	; 38aac <run_nn+0x114>
   3843c:	e580c000 	str	ip, [r0]
   38440:	e59f0f34 	ldr	r0, [pc, #3892]	; 3937c <init_mm+0x11c>
   38444:	e3a0ce12 	mov	ip, #288	; 0x120
   38448:	e580c000 	str	ip, [r0]
   3844c:	e59f0f2c 	ldr	r0, [pc, #3884]	; 39380 <init_mm+0x120>
   38450:	e59fc68c 	ldr	ip, [pc, #1676]	; 38ae4 <run_nn+0x14c>
   38454:	e580c000 	str	ip, [r0]
   38458:	e59f0f24 	ldr	r0, [pc, #3876]	; 39384 <init_mm+0x124>
   3845c:	e59fc648 	ldr	ip, [pc, #1608]	; 38aac <run_nn+0x114>
   38460:	e580c000 	str	ip, [r0]
   38464:	e59f0f1c 	ldr	r0, [pc, #3868]	; 39388 <init_mm+0x128>
   38468:	e3a0c004 	mov	ip, #4
   3846c:	e5c0c000 	strb	ip, [r0]
   38470:	e59f0f14 	ldr	r0, [pc, #3860]	; 3938c <init_mm+0x12c>
   38474:	e59fc630 	ldr	ip, [pc, #1584]	; 38aac <run_nn+0x114>
   38478:	e580c000 	str	ip, [r0]
   3847c:	e59f1f0c 	ldr	r1, [pc, #3852]	; 39390 <init_mm+0x130>
   38480:	e59f04e0 	ldr	r0, [pc, #1248]	; 38968 <init_NN+0xbc>
   38484:	e59dc000 	ldr	ip, [sp]
   38488:	e080c00c 	add	ip, r0, ip
   3848c:	e581c000 	str	ip, [r1]
   38490:	e59f1efc 	ldr	r1, [pc, #3836]	; 39394 <init_mm+0x134>
   38494:	e59f04d4 	ldr	r0, [pc, #1236]	; 38970 <init_NN+0xc4>
   38498:	e59dc000 	ldr	ip, [sp]
   3849c:	e080c00c 	add	ip, r0, ip
   384a0:	e581c000 	str	ip, [r1]
   384a4:	e59f0eec 	ldr	r0, [pc, #3820]	; 39398 <init_mm+0x138>
   384a8:	e3a0ce12 	mov	ip, #288	; 0x120
   384ac:	e1c0c0b0 	strh	ip, [r0]
   384b0:	e59f0ee4 	ldr	r0, [pc, #3812]	; 3939c <init_mm+0x13c>
   384b4:	e3a0c040 	mov	ip, #64	; 0x40
   384b8:	e1c0c0b0 	strh	ip, [r0]
   384bc:	e59f0edc 	ldr	r0, [pc, #3804]	; 393a0 <init_mm+0x140>
   384c0:	e3a0c003 	mov	ip, #3
   384c4:	e1c0c0b0 	strh	ip, [r0]
   384c8:	e59f0ed4 	ldr	r0, [pc, #3796]	; 393a4 <init_mm+0x144>
   384cc:	e3a0c006 	mov	ip, #6
   384d0:	e1c0c0b0 	strh	ip, [r0]
   384d4:	e59f1ecc 	ldr	r1, [pc, #3788]	; 393a8 <init_mm+0x148>
   384d8:	e59f0ecc 	ldr	r0, [pc, #3788]	; 393ac <init_mm+0x14c>
   384dc:	e59dc000 	ldr	ip, [sp]
   384e0:	e080c00c 	add	ip, r0, ip
   384e4:	e581c000 	str	ip, [r1]
   384e8:	e59f1ec0 	ldr	r1, [pc, #3776]	; 393b0 <init_mm+0x150>
   384ec:	e59f0ec0 	ldr	r0, [pc, #3776]	; 393b4 <init_mm+0x154>
   384f0:	e59dc000 	ldr	ip, [sp]
   384f4:	e080c00c 	add	ip, r0, ip
   384f8:	e581c000 	str	ip, [r1]
   384fc:	e59f05e0 	ldr	r0, [pc, #1504]	; 38ae4 <run_nn+0x14c>
   38500:	e59fceb0 	ldr	ip, [pc, #3760]	; 393b8 <init_mm+0x158>
   38504:	e58c0000 	str	r0, [ip]
   38508:	e59f0eac 	ldr	r0, [pc, #3756]	; 393bc <init_mm+0x15c>
   3850c:	e3a0c000 	mov	ip, #0
   38510:	e580c000 	str	ip, [r0]
   38514:	e59f0ea4 	ldr	r0, [pc, #3748]	; 393c0 <init_mm+0x160>
   38518:	e3a0c040 	mov	ip, #64	; 0x40
   3851c:	e580c000 	str	ip, [r0]
   38520:	e59f0e9c 	ldr	r0, [pc, #3740]	; 393c4 <init_mm+0x164>
   38524:	e304c840 	movw	ip, #18496	; 0x4840
   38528:	e1c0c0b0 	strh	ip, [r0]
   3852c:	e59f1e94 	ldr	r1, [pc, #3732]	; 393c8 <init_mm+0x168>
   38530:	e59dc004 	ldr	ip, [sp, #4]
   38534:	e59f0590 	ldr	r0, [pc, #1424]	; 38acc <run_nn+0x134>
   38538:	e080c10c 	add	ip, r0, ip, lsl #2
   3853c:	e581c000 	str	ip, [r1]
   38540:	e59dc004 	ldr	ip, [sp, #4]
   38544:	e28cc040 	add	ip, ip, #64	; 0x40
   38548:	e58dc004 	str	ip, [sp, #4]
   3854c:	e59f0e78 	ldr	r0, [pc, #3704]	; 393cc <init_mm+0x16c>
   38550:	e59fc554 	ldr	ip, [pc, #1364]	; 38aac <run_nn+0x114>
   38554:	e580c000 	str	ip, [r0]
   38558:	e59f0e70 	ldr	r0, [pc, #3696]	; 393d0 <init_mm+0x170>
   3855c:	e59fc580 	ldr	ip, [pc, #1408]	; 38ae4 <run_nn+0x14c>
   38560:	e580c000 	str	ip, [r0]
   38564:	e59dc000 	ldr	ip, [sp]
   38568:	e3040840 	movw	r0, #18496	; 0x4840
   3856c:	e080c00c 	add	ip, r0, ip
   38570:	e58dc000 	str	ip, [sp]
   38574:	e59f0ff0 	ldr	r0, [pc, #4080]	; 3956c <test_mm+0x198>
   38578:	e3a0c003 	mov	ip, #3
   3857c:	e5c0c000 	strb	ip, [r0]
   38580:	e59f0fe8 	ldr	r0, [pc, #4072]	; 39570 <test_mm+0x19c>
   38584:	e59fc558 	ldr	ip, [pc, #1368]	; 38ae4 <run_nn+0x14c>
   38588:	e580c000 	str	ip, [r0]
   3858c:	e59f0fe0 	ldr	r0, [pc, #4064]	; 39574 <test_mm+0x1a0>
   38590:	e59fc514 	ldr	ip, [pc, #1300]	; 38aac <run_nn+0x114>
   38594:	e580c000 	str	ip, [r0]
   38598:	e59f0fd8 	ldr	r0, [pc, #4056]	; 39578 <test_mm+0x1a4>
   3859c:	e3a0c052 	mov	ip, #82	; 0x52
   385a0:	e5c0c000 	strb	ip, [r0]
   385a4:	e59f0fd0 	ldr	r0, [pc, #4048]	; 3957c <test_mm+0x1a8>
   385a8:	e3a0c040 	mov	ip, #64	; 0x40
   385ac:	e1c0c0b0 	strh	ip, [r0]
   385b0:	e59f0fc8 	ldr	r0, [pc, #4040]	; 39580 <test_mm+0x1ac>
   385b4:	e3a0c040 	mov	ip, #64	; 0x40
   385b8:	e580c000 	str	ip, [r0]
   385bc:	e59f0fc0 	ldr	r0, [pc, #4032]	; 39584 <test_mm+0x1b0>
   385c0:	e59fc51c 	ldr	ip, [pc, #1308]	; 38ae4 <run_nn+0x14c>
   385c4:	e580c000 	str	ip, [r0]
   385c8:	e59f0fb8 	ldr	r0, [pc, #4024]	; 39588 <test_mm+0x1b4>
   385cc:	e59fc4d8 	ldr	ip, [pc, #1240]	; 38aac <run_nn+0x114>
   385d0:	e580c000 	str	ip, [r0]
   385d4:	e59f0fb0 	ldr	r0, [pc, #4016]	; 3958c <test_mm+0x1b8>
   385d8:	e3a0c004 	mov	ip, #4
   385dc:	e5c0c000 	strb	ip, [r0]
   385e0:	e59f0fa8 	ldr	r0, [pc, #4008]	; 39590 <test_mm+0x1bc>
   385e4:	e59fc4c0 	ldr	ip, [pc, #1216]	; 38aac <run_nn+0x114>
   385e8:	e580c000 	str	ip, [r0]
   385ec:	e59f1fa0 	ldr	r1, [pc, #4000]	; 39594 <test_mm+0x1c0>
   385f0:	e59f0370 	ldr	r0, [pc, #880]	; 38968 <init_NN+0xbc>
   385f4:	e59dc000 	ldr	ip, [sp]
   385f8:	e080c00c 	add	ip, r0, ip
   385fc:	e581c000 	str	ip, [r1]
   38600:	e59f1f90 	ldr	r1, [pc, #3984]	; 39598 <test_mm+0x1c4>
   38604:	e59f0364 	ldr	r0, [pc, #868]	; 38970 <init_NN+0xc4>
   38608:	e59dc000 	ldr	ip, [sp]
   3860c:	e080c00c 	add	ip, r0, ip
   38610:	e581c000 	str	ip, [r1]
   38614:	e59f0f80 	ldr	r0, [pc, #3968]	; 3959c <test_mm+0x1c8>
   38618:	e3a0c040 	mov	ip, #64	; 0x40
   3861c:	e1c0c0b0 	strh	ip, [r0]
   38620:	e59f0f78 	ldr	r0, [pc, #3960]	; 395a0 <test_mm+0x1cc>
   38624:	e3a0c040 	mov	ip, #64	; 0x40
   38628:	e1c0c0b0 	strh	ip, [r0]
   3862c:	e59f0f70 	ldr	r0, [pc, #3952]	; 395a4 <test_mm+0x1d0>
   38630:	e3a0c002 	mov	ip, #2
   38634:	e1c0c0b0 	strh	ip, [r0]
   38638:	e59f0f68 	ldr	r0, [pc, #3944]	; 395a8 <test_mm+0x1d4>
   3863c:	e3a0c005 	mov	ip, #5
   38640:	e1c0c0b0 	strh	ip, [r0]
   38644:	e59f1f60 	ldr	r1, [pc, #3936]	; 395ac <test_mm+0x1d8>
   38648:	e59f0f60 	ldr	r0, [pc, #3936]	; 395b0 <test_mm+0x1dc>
   3864c:	e59dc000 	ldr	ip, [sp]
   38650:	e080c00c 	add	ip, r0, ip
   38654:	e581c000 	str	ip, [r1]
   38658:	e59f1f54 	ldr	r1, [pc, #3924]	; 395b4 <test_mm+0x1e0>
   3865c:	e59f0f54 	ldr	r0, [pc, #3924]	; 395b8 <test_mm+0x1e4>
   38660:	e59dc000 	ldr	ip, [sp]
   38664:	e080c00c 	add	ip, r0, ip
   38668:	e581c000 	str	ip, [r1]
   3866c:	e59f0f48 	ldr	r0, [pc, #3912]	; 395bc <test_mm+0x1e8>
   38670:	e59fc46c 	ldr	ip, [pc, #1132]	; 38ae4 <run_nn+0x14c>
   38674:	e580c000 	str	ip, [r0]
   38678:	e59f0f40 	ldr	r0, [pc, #3904]	; 395c0 <test_mm+0x1ec>
   3867c:	e3a0c000 	mov	ip, #0
   38680:	e580c000 	str	ip, [r0]
   38684:	e59f0f38 	ldr	r0, [pc, #3896]	; 395c4 <test_mm+0x1f0>
   38688:	e3a0c040 	mov	ip, #64	; 0x40
   3868c:	e580c000 	str	ip, [r0]
   38690:	e59f0f30 	ldr	r0, [pc, #3888]	; 395c8 <test_mm+0x1f4>
   38694:	e3a0cd41 	mov	ip, #4160	; 0x1040
   38698:	e1c0c0b0 	strh	ip, [r0]
   3869c:	e59f1f28 	ldr	r1, [pc, #3880]	; 395cc <test_mm+0x1f8>
   386a0:	e59dc004 	ldr	ip, [sp, #4]
   386a4:	e59f0420 	ldr	r0, [pc, #1056]	; 38acc <run_nn+0x134>
   386a8:	e080c10c 	add	ip, r0, ip, lsl #2
   386ac:	e581c000 	str	ip, [r1]
   386b0:	e59dc004 	ldr	ip, [sp, #4]
   386b4:	e28cc040 	add	ip, ip, #64	; 0x40
   386b8:	e58dc004 	str	ip, [sp, #4]
   386bc:	e59f0f0c 	ldr	r0, [pc, #3852]	; 395d0 <test_mm+0x1fc>
   386c0:	e59fc3e4 	ldr	ip, [pc, #996]	; 38aac <run_nn+0x114>
   386c4:	e580c000 	str	ip, [r0]
   386c8:	e59f0f04 	ldr	r0, [pc, #3844]	; 395d4 <test_mm+0x200>
   386cc:	e59fc410 	ldr	ip, [pc, #1040]	; 38ae4 <run_nn+0x14c>
   386d0:	e580c000 	str	ip, [r0]
   386d4:	e59dc000 	ldr	ip, [sp]
   386d8:	e28ccd41 	add	ip, ip, #4160	; 0x1040
   386dc:	e58dc000 	str	ip, [sp]
   386e0:	e59f0ef0 	ldr	r0, [pc, #3824]	; 395d8 <test_mm+0x204>
   386e4:	e3a0c003 	mov	ip, #3
   386e8:	e5c0c000 	strb	ip, [r0]
   386ec:	e59f0ee8 	ldr	r0, [pc, #3816]	; 395dc <test_mm+0x208>
   386f0:	e59fc3ec 	ldr	ip, [pc, #1004]	; 38ae4 <run_nn+0x14c>
   386f4:	e580c000 	str	ip, [r0]
   386f8:	e59f0ee0 	ldr	r0, [pc, #3808]	; 395e0 <test_mm+0x20c>
   386fc:	e59fc3a8 	ldr	ip, [pc, #936]	; 38aac <run_nn+0x114>
   38700:	e580c000 	str	ip, [r0]
   38704:	e59f0ed8 	ldr	r0, [pc, #3800]	; 395e4 <test_mm+0x210>
   38708:	e3a0c052 	mov	ip, #82	; 0x52
   3870c:	e5c0c000 	strb	ip, [r0]
   38710:	e59f0ed0 	ldr	r0, [pc, #3792]	; 395e8 <test_mm+0x214>
   38714:	e3a0c040 	mov	ip, #64	; 0x40
   38718:	e1c0c0b0 	strh	ip, [r0]
   3871c:	e59f0ec8 	ldr	r0, [pc, #3784]	; 395ec <test_mm+0x218>
   38720:	e3a0c040 	mov	ip, #64	; 0x40
   38724:	e580c000 	str	ip, [r0]
   38728:	e59f0ec0 	ldr	r0, [pc, #3776]	; 395f0 <test_mm+0x21c>
   3872c:	e59fc3b0 	ldr	ip, [pc, #944]	; 38ae4 <run_nn+0x14c>
   38730:	e580c000 	str	ip, [r0]
   38734:	e59f0eb8 	ldr	r0, [pc, #3768]	; 395f4 <test_mm+0x220>
   38738:	e59fc36c 	ldr	ip, [pc, #876]	; 38aac <run_nn+0x114>
   3873c:	e580c000 	str	ip, [r0]
   38740:	e59f0eb0 	ldr	r0, [pc, #3760]	; 395f8 <test_mm+0x224>
   38744:	e3a0c004 	mov	ip, #4
   38748:	e5c0c000 	strb	ip, [r0]
   3874c:	e59f0ea8 	ldr	r0, [pc, #3752]	; 395fc <test_mm+0x228>
   38750:	e59fc354 	ldr	ip, [pc, #852]	; 38aac <run_nn+0x114>
   38754:	e580c000 	str	ip, [r0]
   38758:	e59f1ea0 	ldr	r1, [pc, #3744]	; 39600 <test_mm+0x22c>
   3875c:	e59f0204 	ldr	r0, [pc, #516]	; 38968 <init_NN+0xbc>
   38760:	e59dc000 	ldr	ip, [sp]
   38764:	e080c00c 	add	ip, r0, ip
   38768:	e581c000 	str	ip, [r1]
   3876c:	e59f1e90 	ldr	r1, [pc, #3728]	; 39604 <test_mm+0x230>
   38770:	e59f01f8 	ldr	r0, [pc, #504]	; 38970 <init_NN+0xc4>
   38774:	e59dc000 	ldr	ip, [sp]
   38778:	e080c00c 	add	ip, r0, ip
   3877c:	e581c000 	str	ip, [r1]
   38780:	e59f0e80 	ldr	r0, [pc, #3712]	; 39608 <test_mm+0x234>
   38784:	e3a0c040 	mov	ip, #64	; 0x40
   38788:	e1c0c0b0 	strh	ip, [r0]
   3878c:	e59f0e78 	ldr	r0, [pc, #3704]	; 3960c <test_mm+0x238>
   38790:	e3a0c02f 	mov	ip, #47	; 0x2f
   38794:	e1c0c0b0 	strh	ip, [r0]
   38798:	e59f0e70 	ldr	r0, [pc, #3696]	; 39610 <test_mm+0x23c>
   3879c:	e3a0c002 	mov	ip, #2
   387a0:	e1c0c0b0 	strh	ip, [r0]
   387a4:	e59f0e68 	ldr	r0, [pc, #3688]	; 39614 <test_mm+0x240>
   387a8:	e3a0c006 	mov	ip, #6
   387ac:	e1c0c0b0 	strh	ip, [r0]
   387b0:	e59f1e60 	ldr	r1, [pc, #3680]	; 39618 <test_mm+0x244>
   387b4:	e59f0e60 	ldr	r0, [pc, #3680]	; 3961c <test_mm+0x248>
   387b8:	e59dc000 	ldr	ip, [sp]
   387bc:	e080c00c 	add	ip, r0, ip
   387c0:	e581c000 	str	ip, [r1]
   387c4:	e59f1e54 	ldr	r1, [pc, #3668]	; 39620 <test_mm+0x24c>
   387c8:	e59f0e54 	ldr	r0, [pc, #3668]	; 39624 <test_mm+0x250>
   387cc:	e59dc000 	ldr	ip, [sp]
   387d0:	e080c00c 	add	ip, r0, ip
   387d4:	e581c000 	str	ip, [r1]
   387d8:	e59f0e48 	ldr	r0, [pc, #3656]	; 39628 <test_mm+0x254>
   387dc:	e59fc300 	ldr	ip, [pc, #768]	; 38ae4 <run_nn+0x14c>
   387e0:	e580c000 	str	ip, [r0]
   387e4:	e59f0e40 	ldr	r0, [pc, #3648]	; 3962c <test_mm+0x258>
   387e8:	e3a0c000 	mov	ip, #0
   387ec:	e580c000 	str	ip, [r0]
   387f0:	e59f0e38 	ldr	r0, [pc, #3640]	; 39630 <test_mm+0x25c>
   387f4:	e3a0c02f 	mov	ip, #47	; 0x2f
   387f8:	e580c000 	str	ip, [r0]
   387fc:	e59f0e30 	ldr	r0, [pc, #3632]	; 39634 <test_mm+0x260>
   38800:	e300cbef 	movw	ip, #3055	; 0xbef
   38804:	e1c0c0b0 	strh	ip, [r0]
   38808:	e59f1e28 	ldr	r1, [pc, #3624]	; 39638 <test_mm+0x264>
   3880c:	e59dc004 	ldr	ip, [sp, #4]
   38810:	e59f02b4 	ldr	r0, [pc, #692]	; 38acc <run_nn+0x134>
   38814:	e080c10c 	add	ip, r0, ip, lsl #2
   38818:	e581c000 	str	ip, [r1]
   3881c:	e59dc004 	ldr	ip, [sp, #4]
   38820:	e28cc02f 	add	ip, ip, #47	; 0x2f
   38824:	e58dc004 	str	ip, [sp, #4]
   38828:	e59f0e0c 	ldr	r0, [pc, #3596]	; 3963c <test_mm+0x268>
   3882c:	e59fc278 	ldr	ip, [pc, #632]	; 38aac <run_nn+0x114>
   38830:	e580c000 	str	ip, [r0]
   38834:	e59f0e04 	ldr	r0, [pc, #3588]	; 39640 <test_mm+0x26c>
   38838:	e59fc2a4 	ldr	ip, [pc, #676]	; 38ae4 <run_nn+0x14c>
   3883c:	e580c000 	str	ip, [r0]
   38840:	e59dc000 	ldr	ip, [sp]
   38844:	e3000bef 	movw	r0, #3055	; 0xbef
   38848:	e080c00c 	add	ip, r0, ip
   3884c:	e58dc000 	str	ip, [sp]
   38850:	e59f0dec 	ldr	r0, [pc, #3564]	; 39644 <test_mm+0x270>
   38854:	e3a0c005 	mov	ip, #5
   38858:	e5c0c000 	strb	ip, [r0]
   3885c:	e59f0de4 	ldr	r0, [pc, #3556]	; 39648 <test_mm+0x274>
   38860:	e59fc27c 	ldr	ip, [pc, #636]	; 38ae4 <run_nn+0x14c>
   38864:	e580c000 	str	ip, [r0]
   38868:	e59f0ddc 	ldr	r0, [pc, #3548]	; 3964c <test_mm+0x278>
   3886c:	e3a0c02f 	mov	ip, #47	; 0x2f
   38870:	e1c0c0b0 	strh	ip, [r0]
   38874:	e59f0dd4 	ldr	r0, [pc, #3540]	; 39650 <test_mm+0x27c>
   38878:	e3a0c000 	mov	ip, #0
   3887c:	e580c000 	str	ip, [r0]
   38880:	e59f0dcc 	ldr	r0, [pc, #3532]	; 39654 <test_mm+0x280>
   38884:	e3a0c02f 	mov	ip, #47	; 0x2f
   38888:	e580c000 	str	ip, [r0]
   3888c:	e59f0dc4 	ldr	r0, [pc, #3524]	; 39658 <test_mm+0x284>
   38890:	e59fc24c 	ldr	ip, [pc, #588]	; 38ae4 <run_nn+0x14c>
   38894:	e580c000 	str	ip, [r0]
   38898:	e59f0dbc 	ldr	r0, [pc, #3516]	; 3965c <test_mm+0x288>
   3889c:	e3a0c000 	mov	ip, #0
   388a0:	e580c000 	str	ip, [r0]
   388a4:	e28dd008 	add	sp, sp, #8
   388a8:	e12fff1e 	bx	lr

000388ac <init_NN>:
   388ac:	e24dd010 	sub	sp, sp, #16
   388b0:	e58d1004 	str	r1, [sp, #4]
   388b4:	e58d0000 	str	r0, [sp]
   388b8:	e3a0c000 	mov	ip, #0
   388bc:	e58dc008 	str	ip, [sp, #8]
   388c0:	e59d0008 	ldr	r0, [sp, #8]
   388c4:	e59dc004 	ldr	ip, [sp, #4]
   388c8:	e15c0000 	cmp	ip, r0
   388cc:	da00001e 	ble	3894c <init_NN+0xa0>
   388d0:	e59d0008 	ldr	r0, [sp, #8]
   388d4:	e3a010d4 	mov	r1, #212	; 0xd4
   388d8:	e59dc000 	ldr	ip, [sp]
   388dc:	e02cc091 	mla	ip, r1, r0, ip
   388e0:	e3a0003c 	mov	r0, #60	; 0x3c
   388e4:	e5cc00c4 	strb	r0, [ip, #196]	; 0xc4
   388e8:	e59d0008 	ldr	r0, [sp, #8]
   388ec:	e3a010d4 	mov	r1, #212	; 0xd4
   388f0:	e59dc000 	ldr	ip, [sp]
   388f4:	e02cc091 	mla	ip, r1, r0, ip
   388f8:	e3a0003c 	mov	r0, #60	; 0x3c
   388fc:	e5cc00c5 	strb	r0, [ip, #197]	; 0xc5
   38900:	e59d0008 	ldr	r0, [sp, #8]
   38904:	e3a010d4 	mov	r1, #212	; 0xd4
   38908:	e59dc000 	ldr	ip, [sp]
   3890c:	e02cc091 	mla	ip, r1, r0, ip
   38910:	e3a00000 	mov	r0, #0
   38914:	e58c00c8 	str	r0, [ip, #200]	; 0xc8
   38918:	e59d0008 	ldr	r0, [sp, #8]
   3891c:	e3a010d4 	mov	r1, #212	; 0xd4
   38920:	e59dc000 	ldr	ip, [sp]
   38924:	e02cc091 	mla	ip, r1, r0, ip
   38928:	e3a00000 	mov	r0, #0
   3892c:	e58c00cc 	str	r0, [ip, #204]	; 0xcc
   38930:	e59dc008 	ldr	ip, [sp, #8]
   38934:	e28cc001 	add	ip, ip, #1
   38938:	e58dc008 	str	ip, [sp, #8]
   3893c:	e59dc004 	ldr	ip, [sp, #4]
   38940:	e59d0008 	ldr	r0, [sp, #8]
   38944:	e15c0000 	cmp	ip, r0
   38948:	caffffe0 	bgt	388d0 <init_NN+0x24>
   3894c:	e28dd010 	add	sp, sp, #16
   38950:	e12fff1e 	bx	lr
   38954:	0800d784 	.word	0x0800d784
   38958:	0800d788 	.word	0x0800d788
   3895c:	0800d78c 	.word	0x0800d78c
   38960:	0800d78e 	.word	0x0800d78e
   38964:	0800d790 	.word	0x0800d790
   38968:	08001800 	.word	0x08001800
   3896c:	0800d794 	.word	0x0800d794
   38970:	00028710 	.word	0x00028710
   38974:	0800d798 	.word	0x0800d798
   38978:	0800d79a 	.word	0x0800d79a
   3897c:	0800d79c 	.word	0x0800d79c
   38980:	0800d79e 	.word	0x0800d79e
   38984:	0800d7a0 	.word	0x0800d7a0
   38988:	0800192c 	.word	0x0800192c
   3898c:	0800d7a4 	.word	0x0800d7a4
   38990:	0002883c 	.word	0x0002883c
   38994:	0800d7a8 	.word	0x0800d7a8

00038998 <run_nn>:
   38998:	e92d4000 	stmfd	sp!, {lr}
   3899c:	e24dd02c 	sub	sp, sp, #44	; 0x2c
   389a0:	e58d300c 	str	r3, [sp, #12]
   389a4:	e58d2008 	str	r2, [sp, #8]
   389a8:	e58d1004 	str	r1, [sp, #4]
   389ac:	e58d0000 	str	r0, [sp]
   389b0:	e3a0c000 	mov	ip, #0
   389b4:	e58dc010 	str	ip, [sp, #16]
   389b8:	e3a0c000 	mov	ip, #0
   389bc:	e58dc01c 	str	ip, [sp, #28]
   389c0:	e59fc108 	ldr	ip, [pc, #264]	; 38ad0 <run_nn+0x138>
   389c4:	e58dc020 	str	ip, [sp, #32]
   389c8:	e59d0020 	ldr	r0, [sp, #32]
   389cc:	e59dc000 	ldr	ip, [sp]
   389d0:	e580c000 	str	ip, [r0]
   389d4:	e59d0020 	ldr	r0, [sp, #32]
   389d8:	e59dc004 	ldr	ip, [sp, #4]
   389dc:	e580ceec 	str	ip, [r0, #3820]	; 0xeec
   389e0:	e59f0c78 	ldr	r0, [pc, #3192]	; 39660 <test_mm+0x28c>
   389e4:	e3a0c000 	mov	ip, #0
   389e8:	e5c0c000 	strb	ip, [r0]
   389ec:	e3a0c000 	mov	ip, #0
   389f0:	e58dc014 	str	ip, [sp, #20]
   389f4:	e3a0c000 	mov	ip, #0
   389f8:	e58dc014 	str	ip, [sp, #20]
   389fc:	e59dc014 	ldr	ip, [sp, #20]
   38a00:	e35c0013 	cmp	ip, #19
   38a04:	aa000023 	bge	38a98 <run_nn+0x100>
   38a08:	e3a0c000 	mov	ip, #0
   38a0c:	e58dc018 	str	ip, [sp, #24]
   38a10:	e59d0014 	ldr	r0, [sp, #20]
   38a14:	e3a010d4 	mov	r1, #212	; 0xd4
   38a18:	e59dc020 	ldr	ip, [sp, #32]
   38a1c:	e02cc091 	mla	ip, r1, r0, ip
   38a20:	e5dcc008 	ldrb	ip, [ip, #8]
   38a24:	e5cdc028 	strb	ip, [sp, #40]	; 0x28
   38a28:	e59d0014 	ldr	r0, [sp, #20]
   38a2c:	e3a010d4 	mov	r1, #212	; 0xd4
   38a30:	e59dc020 	ldr	ip, [sp, #32]
   38a34:	e02cc091 	mla	ip, r1, r0, ip
   38a38:	e58dc024 	str	ip, [sp, #36]	; 0x24
   38a3c:	e59d0024 	ldr	r0, [sp, #36]	; 0x24
   38a40:	eb00086b 	bl	3abf4 <handle_nn>
   38a44:	e3500000 	cmp	r0, #0
   38a48:	0a000004 	beq	38a60 <run_nn+0xc8>
   38a4c:	e59d1014 	ldr	r1, [sp, #20]
   38a50:	e28f0fdf 	add	r0, pc, #892	; 0x37c
   38a54:	fa002d1c 	blx	43ecc <printf>
   38a58:	e3e00000 	mvn	r0, #0
   38a5c:	ea00000e 	b	38a9c <run_nn+0x104>
   38a60:	e59fcbf8 	ldr	ip, [pc, #3064]	; 39660 <test_mm+0x28c>
   38a64:	e5dcc000 	ldrb	ip, [ip]
   38a68:	e35c0012 	cmp	ip, #18
   38a6c:	aa000003 	bge	38a80 <run_nn+0xe8>
   38a70:	e59f0be8 	ldr	r0, [pc, #3048]	; 39660 <test_mm+0x28c>
   38a74:	e5d0c000 	ldrb	ip, [r0]
   38a78:	e28cc001 	add	ip, ip, #1
   38a7c:	e5c0c000 	strb	ip, [r0]
   38a80:	e59dc014 	ldr	ip, [sp, #20]
   38a84:	e28cc001 	add	ip, ip, #1
   38a88:	e58dc014 	str	ip, [sp, #20]
   38a8c:	e59dc014 	ldr	ip, [sp, #20]
   38a90:	e35c0013 	cmp	ip, #19
   38a94:	baffffdb 	blt	38a08 <run_nn+0x70>
   38a98:	e59d0010 	ldr	r0, [sp, #16]
   38a9c:	e28dd02c 	add	sp, sp, #44	; 0x2c
   38aa0:	e8bd8000 	ldmfd	sp!, {pc}
   38aa4:	0800d7aa 	.word	0x0800d7aa
   38aa8:	0800d7ac 	.word	0x0800d7ac
   38aac:	08010a68 	.word	0x08010a68
   38ab0:	0800d7b0 	.word	0x0800d7b0
   38ab4:	0800d7b4 	.word	0x0800d7b4
   38ab8:	080117e8 	.word	0x080117e8
   38abc:	0800d7b8 	.word	0x0800d7b8
   38ac0:	0800d830 	.word	0x0800d830
   38ac4:	0800d7c0 	.word	0x0800d7c0
   38ac8:	0800d83c 	.word	0x0800d83c
   38acc:	00034570 	.word	0x00034570
   38ad0:	0800d77c 	.word	0x0800d77c
   38ad4:	0800d780 	.word	0x0800d780
   38ad8:	0800d858 	.word	0x0800d858
   38adc:	0800d8e8 	.word	0x0800d8e8
   38ae0:	0800d8e0 	.word	0x0800d8e0
   38ae4:	08011128 	.word	0x08011128
   38ae8:	0800d8ec 	.word	0x0800d8ec
   38aec:	0800d8e4 	.word	0x0800d8e4
   38af0:	0800d904 	.word	0x0800d904
   38af4:	0800d850 	.word	0x0800d850
   38af8:	0800d854 	.word	0x0800d854
   38afc:	0800d92c 	.word	0x0800d92c
   38b00:	0800d998 	.word	0x0800d998

00038b04 <init_array>:
   38b04:	e92d400e 	push	{r1, r2, r3, lr}
   38b08:	e3a0c000 	mov	ip, #0
   38b0c:	e58dc000 	str	ip, [sp]
   38b10:	e59fcb4c 	ldr	ip, [pc, #2892]	; 39664 <test_mm+0x290>
   38b14:	e59cc000 	ldr	ip, [ip]
   38b18:	e37c0001 	cmn	ip, #1
   38b1c:	1a000007 	bne	38b40 <init_array+0x3c>
   38b20:	e59fcb40 	ldr	ip, [pc, #2880]	; 39668 <test_mm+0x294>
   38b24:	e59c0000 	ldr	r0, [ip]
   38b28:	fa002dd7 	blx	4428c <srand>
   38b2c:	e59fcb34 	ldr	ip, [pc, #2868]	; 39668 <test_mm+0x294>
   38b30:	e59f0b2c 	ldr	r0, [pc, #2860]	; 39664 <test_mm+0x290>
   38b34:	e59cc000 	ldr	ip, [ip]
   38b38:	e580c000 	str	ip, [r0]
   38b3c:	ea000002 	b	38b4c <init_array+0x48>
   38b40:	e59fcb1c 	ldr	ip, [pc, #2844]	; 39664 <test_mm+0x290>
   38b44:	e59c0000 	ldr	r0, [ip]
   38b48:	fa002dcf 	blx	4428c <srand>
   38b4c:	e3a0c000 	mov	ip, #0
   38b50:	e58dc000 	str	ip, [sp]
   38b54:	e59dc000 	ldr	ip, [sp]
   38b58:	e35c0f91 	cmp	ip, #580	; 0x244
   38b5c:	aa000013 	bge	38bb0 <init_array+0xac>
   38b60:	fa002db1 	blx	4422c <rand>
   38b64:	e58d0004 	str	r0, [sp, #4]
   38b68:	e59f1afc 	ldr	r1, [pc, #2812]	; 3966c <test_mm+0x298>
   38b6c:	e59d0000 	ldr	r0, [sp]
   38b70:	e59dc004 	ldr	ip, [sp, #4]
   38b74:	e781c100 	str	ip, [r1, r0, lsl #2]
   38b78:	e59d0000 	ldr	r0, [sp]
   38b7c:	e59f1aec 	ldr	r1, [pc, #2796]	; 39670 <test_mm+0x29c>
   38b80:	e59dc004 	ldr	ip, [sp, #4]
   38b84:	e781c100 	str	ip, [r1, r0, lsl #2]
   38b88:	e59d0000 	ldr	r0, [sp]
   38b8c:	e59f1ae0 	ldr	r1, [pc, #2784]	; 39674 <test_mm+0x2a0>
   38b90:	e59dc004 	ldr	ip, [sp, #4]
   38b94:	e781c100 	str	ip, [r1, r0, lsl #2]
   38b98:	e59dc000 	ldr	ip, [sp]
   38b9c:	e28cc001 	add	ip, ip, #1
   38ba0:	e58dc000 	str	ip, [sp]
   38ba4:	e59dc000 	ldr	ip, [sp]
   38ba8:	e35c0f91 	cmp	ip, #580	; 0x244
   38bac:	baffffeb 	blt	38b60 <init_array+0x5c>
   38bb0:	e8bd800e 	pop	{r1, r2, r3, pc}
   38bb4:	0800d99c 	.word	0x0800d99c
   38bb8:	0800d99e 	.word	0x0800d99e
   38bbc:	0800d9a0 	.word	0x0800d9a0
   38bc0:	0800d9a2 	.word	0x0800d9a2
   38bc4:	0800d9a4 	.word	0x0800d9a4
   38bc8:	0800d9a6 	.word	0x0800d9a6
   38bcc:	0800d9a8 	.word	0x0800d9a8
   38bd0:	0800d9ac 	.word	0x0800d9ac
   38bd4:	0800d9d8 	.word	0x0800d9d8
   38bd8:	0800d924 	.word	0x0800d924

00038bdc <init_qsort>:
   38bdc:	e24dd008 	sub	sp, sp, #8
   38be0:	e3a0c000 	mov	ip, #0
   38be4:	e58dc000 	str	ip, [sp]
   38be8:	e59dc000 	ldr	ip, [sp]
   38bec:	e35c0c02 	cmp	ip, #512	; 0x200
   38bf0:	aa00000a 	bge	38c20 <init_qsort+0x44>
   38bf4:	e59d0000 	ldr	r0, [sp]
   38bf8:	e59f1a78 	ldr	r1, [pc, #2680]	; 39678 <test_mm+0x2a4>
   38bfc:	e59dc000 	ldr	ip, [sp]
   38c00:	e26ccc02 	rsb	ip, ip, #512	; 0x200
   38c04:	e781c100 	str	ip, [r1, r0, lsl #2]
   38c08:	e59dc000 	ldr	ip, [sp]
   38c0c:	e28cc001 	add	ip, ip, #1
   38c10:	e58dc000 	str	ip, [sp]
   38c14:	e59dc000 	ldr	ip, [sp]
   38c18:	e35c0c02 	cmp	ip, #512	; 0x200
   38c1c:	bafffff4 	blt	38bf4 <init_qsort+0x18>
   38c20:	e28dd008 	add	sp, sp, #8
   38c24:	e12fff1e 	bx	lr
   38c28:	0800d928 	.word	0x0800d928
   38c2c:	0800da00 	.word	0x0800da00
   38c30:	0800da04 	.word	0x0800da04
   38c34:	0800da08 	.word	0x0800da08
   38c38:	0800da0a 	.word	0x0800da0a
   38c3c:	0800da0c 	.word	0x0800da0c
   38c40:	0800da10 	.word	0x0800da10
   38c44:	0800da14 	.word	0x0800da14
   38c48:	0800da16 	.word	0x0800da16
   38c4c:	0800da18 	.word	0x0800da18
   38c50:	0800da1a 	.word	0x0800da1a
   38c54:	0800da1c 	.word	0x0800da1c
   38c58:	08002220 	.word	0x08002220
   38c5c:	0800da20 	.word	0x0800da20
   38c60:	00029130 	.word	0x00029130
   38c64:	0800da24 	.word	0x0800da24
   38c68:	0800da26 	.word	0x0800da26
   38c6c:	0800da28 	.word	0x0800da28
   38c70:	0800da2c 	.word	0x0800da2c
   38c74:	0800da30 	.word	0x0800da30
   38c78:	0800da34 	.word	0x0800da34
   38c7c:	0800daac 	.word	0x0800daac
   38c80:	0800da3c 	.word	0x0800da3c
   38c84:	0800dab8 	.word	0x0800dab8
   38c88:	0800d9f8 	.word	0x0800d9f8
   38c8c:	0800d9fc 	.word	0x0800d9fc
   38c90:	0800dad4 	.word	0x0800dad4
   38c94:	0800db64 	.word	0x0800db64
   38c98:	0800db5c 	.word	0x0800db5c
   38c9c:	0800db68 	.word	0x0800db68
   38ca0:	0800db60 	.word	0x0800db60
   38ca4:	0800db80 	.word	0x0800db80

00038ca8 <quick_sort>:
   38ca8:	e92d4000 	stmfd	sp!, {lr}
   38cac:	e24dd01c 	sub	sp, sp, #28
   38cb0:	e58d1004 	str	r1, [sp, #4]
   38cb4:	e58d0000 	str	r0, [sp]
   38cb8:	e59dc004 	ldr	ip, [sp, #4]
   38cbc:	e35c0002 	cmp	ip, #2
   38cc0:	ba000041 	blt	38dcc <quick_sort+0x124>
   38cc4:	e59dc004 	ldr	ip, [sp, #4]
   38cc8:	e59d0000 	ldr	r0, [sp]
   38ccc:	e08ccfac 	add	ip, ip, ip, lsr #31
   38cd0:	e1a0c0cc 	asr	ip, ip, #1
   38cd4:	e790c10c 	ldr	ip, [r0, ip, lsl #2]
   38cd8:	e58dc008 	str	ip, [sp, #8]
   38cdc:	e59dc004 	ldr	ip, [sp, #4]
   38ce0:	e3a00000 	mov	r0, #0
   38ce4:	e58d000c 	str	r0, [sp, #12]
   38ce8:	e24cc001 	sub	ip, ip, #1
   38cec:	e58dc010 	str	ip, [sp, #16]
   38cf0:	ea000002 	b	38d00 <quick_sort+0x58>
   38cf4:	e59dc00c 	ldr	ip, [sp, #12]
   38cf8:	e28cc001 	add	ip, ip, #1
   38cfc:	e58dc00c 	str	ip, [sp, #12]
   38d00:	e59d000c 	ldr	r0, [sp, #12]
   38d04:	e59d1000 	ldr	r1, [sp]
   38d08:	e59dc008 	ldr	ip, [sp, #8]
   38d0c:	e7910100 	ldr	r0, [r1, r0, lsl #2]
   38d10:	e15c0000 	cmp	ip, r0
   38d14:	cafffff6 	bgt	38cf4 <quick_sort+0x4c>
   38d18:	ea000002 	b	38d28 <quick_sort+0x80>
   38d1c:	e59dc010 	ldr	ip, [sp, #16]
   38d20:	e24cc001 	sub	ip, ip, #1
   38d24:	e58dc010 	str	ip, [sp, #16]
   38d28:	e59d0010 	ldr	r0, [sp, #16]
   38d2c:	e59d1000 	ldr	r1, [sp]
   38d30:	e59dc008 	ldr	ip, [sp, #8]
   38d34:	e7910100 	ldr	r0, [r1, r0, lsl #2]
   38d38:	e15c0000 	cmp	ip, r0
   38d3c:	bafffff6 	blt	38d1c <quick_sort+0x74>
   38d40:	e59dc010 	ldr	ip, [sp, #16]
   38d44:	e59d000c 	ldr	r0, [sp, #12]
   38d48:	e15c0000 	cmp	ip, r0
   38d4c:	da000014 	ble	38da4 <quick_sort+0xfc>
   38d50:	e59dc00c 	ldr	ip, [sp, #12]
   38d54:	e59d0000 	ldr	r0, [sp]
   38d58:	e790c10c 	ldr	ip, [r0, ip, lsl #2]
   38d5c:	e58dc014 	str	ip, [sp, #20]
   38d60:	e59dc010 	ldr	ip, [sp, #16]
   38d64:	e59d0000 	ldr	r0, [sp]
   38d68:	e59d100c 	ldr	r1, [sp, #12]
   38d6c:	e59d2000 	ldr	r2, [sp]
   38d70:	e790c10c 	ldr	ip, [r0, ip, lsl #2]
   38d74:	e782c101 	str	ip, [r2, r1, lsl #2]
   38d78:	e59d0010 	ldr	r0, [sp, #16]
   38d7c:	e59d1000 	ldr	r1, [sp]
   38d80:	e59dc014 	ldr	ip, [sp, #20]
   38d84:	e781c100 	str	ip, [r1, r0, lsl #2]
   38d88:	e59d000c 	ldr	r0, [sp, #12]
   38d8c:	e59dc010 	ldr	ip, [sp, #16]
   38d90:	e2800001 	add	r0, r0, #1
   38d94:	e58d000c 	str	r0, [sp, #12]
   38d98:	e24cc001 	sub	ip, ip, #1
   38d9c:	e58dc010 	str	ip, [sp, #16]
   38da0:	eaffffd6 	b	38d00 <quick_sort+0x58>
   38da4:	e59d0000 	ldr	r0, [sp]
   38da8:	e59d100c 	ldr	r1, [sp, #12]
   38dac:	ebffffbd 	bl	38ca8 <quick_sort>
   38db0:	e59dc00c 	ldr	ip, [sp, #12]
   38db4:	e59d0004 	ldr	r0, [sp, #4]
   38db8:	e59d200c 	ldr	r2, [sp, #12]
   38dbc:	e59d3000 	ldr	r3, [sp]
   38dc0:	e040100c 	sub	r1, r0, ip
   38dc4:	e0830102 	add	r0, r3, r2, lsl #2
   38dc8:	ebffffb6 	bl	38ca8 <quick_sort>
   38dcc:	e28dd01c 	add	sp, sp, #28
   38dd0:	e8bd8000 	ldmfd	sp!, {pc}
   38dd4:	6d6f6465 	.word	0x6d6f6465
   38dd8:	6c732069 	.word	0x6c732069
   38ddc:	7320696e 	.word	0x7320696e
   38de0:	76616c69 	.word	0x76616c69
   38de4:	643a2564 	.word	0x643a2564
   38de8:	0d0a0000 	.word	0x0d0a0000
   38dec:	0800dacc 	.word	0x0800dacc
   38df0:	0800dad0 	.word	0x0800dad0
   38df4:	0800dba8 	.word	0x0800dba8
   38df8:	0800dc14 	.word	0x0800dc14
   38dfc:	0800dc18 	.word	0x0800dc18
   38e00:	0800dc1a 	.word	0x0800dc1a
   38e04:	0800dc1c 	.word	0x0800dc1c
   38e08:	0800dc1e 	.word	0x0800dc1e
   38e0c:	0800dc20 	.word	0x0800dc20
   38e10:	0800dc22 	.word	0x0800dc22
   38e14:	0800dc24 	.word	0x0800dc24
   38e18:	0800dc28 	.word	0x0800dc28
   38e1c:	0800dc54 	.word	0x0800dc54
   38e20:	0800dba0 	.word	0x0800dba0
   38e24:	0800dba4 	.word	0x0800dba4
   38e28:	0800dc7c 	.word	0x0800dc7c
   38e2c:	0800dc80 	.word	0x0800dc80
   38e30:	0800dc84 	.word	0x0800dc84
   38e34:	0800dc86 	.word	0x0800dc86
   38e38:	0800dc88 	.word	0x0800dc88
   38e3c:	0800dc8c 	.word	0x0800dc8c

00038e40 <test_qsort>:
   38e40:	e92d400e 	push	{r1, r2, r3, lr}
   38e44:	e59f082c 	ldr	r0, [pc, #2092]	; 39678 <test_mm+0x2a4>
   38e48:	e3a01c02 	mov	r1, #512	; 0x200
   38e4c:	ebffff95 	bl	38ca8 <quick_sort>
   38e50:	e3a0c000 	mov	ip, #0
   38e54:	e58dc004 	str	ip, [sp, #4]
   38e58:	e3a0c000 	mov	ip, #0
   38e5c:	e58dc000 	str	ip, [sp]
   38e60:	e59dc000 	ldr	ip, [sp]
   38e64:	e35c0c02 	cmp	ip, #512	; 0x200
   38e68:	aa00000f 	bge	38eac <test_qsort+0x6c>
   38e6c:	e59d0000 	ldr	r0, [sp]
   38e70:	e59f1800 	ldr	r1, [pc, #2048]	; 39678 <test_mm+0x2a4>
   38e74:	e59dc000 	ldr	ip, [sp]
   38e78:	e7910100 	ldr	r0, [r1, r0, lsl #2]
   38e7c:	e28cc001 	add	ip, ip, #1
   38e80:	e15c0000 	cmp	ip, r0
   38e84:	0a000002 	beq	38e94 <test_qsort+0x54>
   38e88:	e59dc004 	ldr	ip, [sp, #4]
   38e8c:	e28cc001 	add	ip, ip, #1
   38e90:	e58dc004 	str	ip, [sp, #4]
   38e94:	e59dc000 	ldr	ip, [sp]
   38e98:	e28cc001 	add	ip, ip, #1
   38e9c:	e58dc000 	str	ip, [sp]
   38ea0:	e59dc000 	ldr	ip, [sp]
   38ea4:	e35c0c02 	cmp	ip, #512	; 0x200
   38ea8:	baffffef 	blt	38e6c <test_qsort+0x2c>
   38eac:	e59dc004 	ldr	ip, [sp, #4]
   38eb0:	e35c0000 	cmp	ip, #0
   38eb4:	0a000003 	beq	38ec8 <test_qsort+0x88>
   38eb8:	e59d1004 	ldr	r1, [sp, #4]
   38ebc:	e28f0fca 	add	r0, pc, #808	; 0x328
   38ec0:	fa002c01 	blx	43ecc <printf>
   38ec4:	eafffffe 	b	38ec4 <test_qsort+0x84>
   38ec8:	e28f0fcb 	add	r0, pc, #812	; 0x32c
   38ecc:	fa002bfe 	blx	43ecc <printf>
   38ed0:	e8bd800e 	pop	{r1, r2, r3, pc}
   38ed4:	0800dc90 	.word	0x0800dc90
   38ed8:	0800dc92 	.word	0x0800dc92
   38edc:	0800dc94 	.word	0x0800dc94
   38ee0:	0800dc96 	.word	0x0800dc96
   38ee4:	0800dc98 	.word	0x0800dc98
   38ee8:	08002a00 	.word	0x08002a00
   38eec:	0800dc9c 	.word	0x0800dc9c
   38ef0:	00029910 	.word	0x00029910
   38ef4:	0800dca0 	.word	0x0800dca0
   38ef8:	0800dca2 	.word	0x0800dca2

00038efc <init_crc>:
   38efc:	e24dd008 	sub	sp, sp, #8
   38f00:	e3a0c000 	mov	ip, #0
   38f04:	e58dc000 	str	ip, [sp]
   38f08:	e59dc000 	ldr	ip, [sp]
   38f0c:	e35c0082 	cmp	ip, #130	; 0x82
   38f10:	aa00000b 	bge	38f44 <init_crc+0x48>
   38f14:	e59dc000 	ldr	ip, [sp]
   38f18:	e59f1760 	ldr	r1, [pc, #1888]	; 39680 <test_mm+0x2ac>
   38f1c:	e59d0000 	ldr	r0, [sp]
   38f20:	e59f2754 	ldr	r2, [pc, #1876]	; 3967c <test_mm+0x2a8>
   38f24:	e7d1c00c 	ldrb	ip, [r1, ip]
   38f28:	e7c2c000 	strb	ip, [r2, r0]
   38f2c:	e59dc000 	ldr	ip, [sp]
   38f30:	e28cc001 	add	ip, ip, #1
   38f34:	e58dc000 	str	ip, [sp]
   38f38:	e59dc000 	ldr	ip, [sp]
   38f3c:	e35c0082 	cmp	ip, #130	; 0x82
   38f40:	bafffff3 	blt	38f14 <init_crc+0x18>
   38f44:	e28dd008 	add	sp, sp, #8
   38f48:	e12fff1e 	bx	lr
   38f4c:	0800dca4 	.word	0x0800dca4
   38f50:	0800dca8 	.word	0x0800dca8
   38f54:	0800dcac 	.word	0x0800dcac
   38f58:	0800dcb0 	.word	0x0800dcb0
   38f5c:	0800dd28 	.word	0x0800dd28
   38f60:	0800dcb8 	.word	0x0800dcb8
   38f64:	0800dd34 	.word	0x0800dd34
   38f68:	0800dc74 	.word	0x0800dc74
   38f6c:	0800dc78 	.word	0x0800dc78
   38f70:	0800dd50 	.word	0x0800dd50
   38f74:	0800dde0 	.word	0x0800dde0
   38f78:	0800ddd8 	.word	0x0800ddd8
   38f7c:	0800dde4 	.word	0x0800dde4

00038f80 <crc16>:
   38f80:	e24dd008 	sub	sp, sp, #8
   38f84:	e5cd1006 	strb	r1, [sp, #6]
   38f88:	e58d0000 	str	r0, [sp]
   38f8c:	e30fcfff 	movw	ip, #65535	; 0xffff
   38f90:	e1cdc0b4 	strh	ip, [sp, #4]
   38f94:	ea000014 	b	38fec <crc16+0x6c>
   38f98:	e59dc000 	ldr	ip, [sp]
   38f9c:	e1dd00b4 	ldrh	r0, [sp, #4]
   38fa0:	e4dc1001 	ldrb	r1, [ip], #1
   38fa4:	e58dc000 	str	ip, [sp]
   38fa8:	e021c440 	eor	ip, r1, r0, asr #8
   38fac:	e5cdc007 	strb	ip, [sp, #7]
   38fb0:	e5ddc007 	ldrb	ip, [sp, #7]
   38fb4:	e5dd0007 	ldrb	r0, [sp, #7]
   38fb8:	e020c24c 	eor	ip, r0, ip, asr #4
   38fbc:	e5cdc007 	strb	ip, [sp, #7]
   38fc0:	e5dd1007 	ldrb	r1, [sp, #7]
   38fc4:	e5ddc007 	ldrb	ip, [sp, #7]
   38fc8:	e1dd00b4 	ldrh	r0, [sp, #4]
   38fcc:	e1a01601 	lsl	r1, r1, #12
   38fd0:	e1a0c28c 	lsl	ip, ip, #5
   38fd4:	e6ff1071 	uxth	r1, r1
   38fd8:	e5dd2007 	ldrb	r2, [sp, #7]
   38fdc:	e0210400 	eor	r0, r1, r0, lsl #8
   38fe0:	e02cc000 	eor	ip, ip, r0
   38fe4:	e022c00c 	eor	ip, r2, ip
   38fe8:	e1cdc0b4 	strh	ip, [sp, #4]
   38fec:	e5ddc006 	ldrb	ip, [sp, #6]
   38ff0:	e24c0001 	sub	r0, ip, #1
   38ff4:	e35c0000 	cmp	ip, #0
   38ff8:	e5cd0006 	strb	r0, [sp, #6]
   38ffc:	1affffe5 	bne	38f98 <crc16+0x18>
   39000:	e1dd00b4 	ldrh	r0, [sp, #4]
   39004:	e28dd008 	add	sp, sp, #8
   39008:	e12fff1e 	bx	lr
   3900c:	0800dddc 	.word	0x0800dddc
   39010:	0800ddfc 	.word	0x0800ddfc
   39014:	0800dd48 	.word	0x0800dd48
   39018:	0800dd4c 	.word	0x0800dd4c
   3901c:	0800de24 	.word	0x0800de24
   39020:	0800de28 	.word	0x0800de28
   39024:	0800de2c 	.word	0x0800de2c
   39028:	0800de2e 	.word	0x0800de2e
   3902c:	0800de30 	.word	0x0800de30
   39030:	0800de34 	.word	0x0800de34

00039034 <test_crc>:
   39034:	e92d4008 	push	{r3, lr}
   39038:	e59f063c 	ldr	r0, [pc, #1596]	; 3967c <test_mm+0x2a8>
   3903c:	e3a01082 	mov	r1, #130	; 0x82
   39040:	ebffffce 	bl	38f80 <crc16>
   39044:	e1cd00b0 	strh	r0, [sp]
   39048:	e1ddc0b0 	ldrh	ip, [sp]
   3904c:	e304095b 	movw	r0, #18779	; 0x495b
   39050:	e150000c 	cmp	r0, ip
   39054:	0a000003 	beq	39068 <test_crc+0x34>
   39058:	e1dd10b0 	ldrh	r1, [sp]
   3905c:	e28f0faa 	add	r0, pc, #680	; 0x2a8
   39060:	fa002b99 	blx	43ecc <printf>
   39064:	eafffffe 	b	39064 <test_crc+0x30>
   39068:	e28f0fab 	add	r0, pc, #684	; 0x2ac
   3906c:	fa002b96 	blx	43ecc <printf>
   39070:	e8bd8008 	pop	{r3, pc}
   39074:	0800de38 	.word	0x0800de38
   39078:	0800de3a 	.word	0x0800de3a
   3907c:	0800de3c 	.word	0x0800de3c
   39080:	0800de3e 	.word	0x0800de3e
   39084:	0800de40 	.word	0x0800de40
   39088:	08003c00 	.word	0x08003c00
   3908c:	0800de44 	.word	0x0800de44
   39090:	0002ab10 	.word	0x0002ab10
   39094:	0800de48 	.word	0x0800de48
   39098:	0800de4a 	.word	0x0800de4a
   3909c:	0800de4c 	.word	0x0800de4c
   390a0:	0800de50 	.word	0x0800de50
   390a4:	0800de54 	.word	0x0800de54
   390a8:	0800de58 	.word	0x0800de58
   390ac:	0800ded0 	.word	0x0800ded0
   390b0:	0800de60 	.word	0x0800de60
   390b4:	0800dedc 	.word	0x0800dedc
   390b8:	0800de1c 	.word	0x0800de1c
   390bc:	0800de20 	.word	0x0800de20
   390c0:	0800def8 	.word	0x0800def8
   390c4:	0800df88 	.word	0x0800df88
   390c8:	0800df80 	.word	0x0800df80
   390cc:	0800df8c 	.word	0x0800df8c
   390d0:	0800df84 	.word	0x0800df84
   390d4:	0800dfa4 	.word	0x0800dfa4
   390d8:	0800def0 	.word	0x0800def0
   390dc:	0800def4 	.word	0x0800def4
   390e0:	0800dfcc 	.word	0x0800dfcc
   390e4:	0800dfd0 	.word	0x0800dfd0

000390e8 <matrix_multiply>:
   390e8:	e92d401f 	push	{r0, r1, r2, r3, r4, lr}
   390ec:	e3a0c000 	mov	ip, #0
   390f0:	e58dc00c 	str	ip, [sp, #12]
   390f4:	e3a0c000 	mov	ip, #0
   390f8:	e58dc000 	str	ip, [sp]
   390fc:	e59dc000 	ldr	ip, [sp]
   39100:	e35c0009 	cmp	ip, #9
   39104:	aa000036 	bge	391e4 <matrix_multiply+0xfc>
   39108:	e3a0c000 	mov	ip, #0
   3910c:	e58dc00c 	str	ip, [sp, #12]
   39110:	e3a0c000 	mov	ip, #0
   39114:	e58dc004 	str	ip, [sp, #4]
   39118:	e59dc004 	ldr	ip, [sp, #4]
   3911c:	e35c0009 	cmp	ip, #9
   39120:	aa000029 	bge	391cc <matrix_multiply+0xe4>
   39124:	e3a0c000 	mov	ip, #0
   39128:	e58dc008 	str	ip, [sp, #8]
   3912c:	e59dc008 	ldr	ip, [sp, #8]
   39130:	e35c0009 	cmp	ip, #9
   39134:	aa000016 	bge	39194 <matrix_multiply+0xac>
   39138:	e59d0000 	ldr	r0, [sp]
   3913c:	e59dc008 	ldr	ip, [sp, #8]
   39140:	e59fe540 	ldr	lr, [pc, #1344]	; 39688 <test_mm+0x2b4>
   39144:	e1a01280 	lsl	r1, r0, #5
   39148:	e59f4534 	ldr	r4, [pc, #1332]	; 39684 <test_mm+0x2b0>
   3914c:	e0811100 	add	r1, r1, r0, lsl #2
   39150:	e59d0008 	ldr	r0, [sp, #8]
   39154:	e1a0328c 	lsl	r3, ip, #5
   39158:	e59d2004 	ldr	r2, [sp, #4]
   3915c:	e08e1001 	add	r1, lr, r1
   39160:	e083c10c 	add	ip, r3, ip, lsl #2
   39164:	e084c00c 	add	ip, r4, ip
   39168:	e7910100 	ldr	r0, [r1, r0, lsl #2]
   3916c:	e79c1102 	ldr	r1, [ip, r2, lsl #2]
   39170:	e59dc00c 	ldr	ip, [sp, #12]
   39174:	e02cc091 	mla	ip, r1, r0, ip
   39178:	e58dc00c 	str	ip, [sp, #12]
   3917c:	e59dc008 	ldr	ip, [sp, #8]
   39180:	e28cc001 	add	ip, ip, #1
   39184:	e58dc008 	str	ip, [sp, #8]
   39188:	e59dc008 	ldr	ip, [sp, #8]
   3918c:	e35c0009 	cmp	ip, #9
   39190:	baffffe8 	blt	39138 <matrix_multiply+0x50>
   39194:	e59dc000 	ldr	ip, [sp]
   39198:	e59f24ec 	ldr	r2, [pc, #1260]	; 3968c <test_mm+0x2b8>
   3919c:	e59d0004 	ldr	r0, [sp, #4]
   391a0:	e1a0128c 	lsl	r1, ip, #5
   391a4:	e081c10c 	add	ip, r1, ip, lsl #2
   391a8:	e082100c 	add	r1, r2, ip
   391ac:	e59dc00c 	ldr	ip, [sp, #12]
   391b0:	e781c100 	str	ip, [r1, r0, lsl #2]
   391b4:	e59dc004 	ldr	ip, [sp, #4]
   391b8:	e28cc001 	add	ip, ip, #1
   391bc:	e58dc004 	str	ip, [sp, #4]
   391c0:	e59dc004 	ldr	ip, [sp, #4]
   391c4:	e35c0009 	cmp	ip, #9
   391c8:	baffffd5 	blt	39124 <matrix_multiply+0x3c>
   391cc:	e59dc000 	ldr	ip, [sp]
   391d0:	e28cc001 	add	ip, ip, #1
   391d4:	e58dc000 	str	ip, [sp]
   391d8:	e59dc000 	ldr	ip, [sp]
   391dc:	e35c0009 	cmp	ip, #9
   391e0:	baffffc8 	blt	39108 <matrix_multiply+0x20>
   391e4:	e58d0000 	str	r0, [sp]
   391e8:	e8bd801f 	pop	{r0, r1, r2, r3, r4, pc}
   391ec:	71736f72 	.word	0x71736f72
   391f0:	743a7364 	.word	0x743a7364
   391f4:	632c2564 	.word	0x632c2564
   391f8:	0d0a0000 	.word	0x0d0a0000
   391fc:	71736f72 	.word	0x71736f72
   39200:	743a6d61 	.word	0x743a6d61
   39204:	736b6564 	.word	0x736b6564
   39208:	0d0a0000 	.word	0x0d0a0000
   3920c:	0800dfd4 	.word	0x0800dfd4
   39210:	0800dfd6 	.word	0x0800dfd6
   39214:	0800dfd8 	.word	0x0800dfd8
   39218:	0800dfdc 	.word	0x0800dfdc
   3921c:	0800dfe0 	.word	0x0800dfe0
   39220:	0800dfe2 	.word	0x0800dfe2
   39224:	0800dfe4 	.word	0x0800dfe4
   39228:	0800dfe6 	.word	0x0800dfe6
   3922c:	0800dfe8 	.word	0x0800dfe8
   39230:	08003000 	.word	0x08003000
   39234:	0800dfec 	.word	0x0800dfec
   39238:	00029f10 	.word	0x00029f10
   3923c:	0800dff0 	.word	0x0800dff0
   39240:	0800dff2 	.word	0x0800dff2
   39244:	0800dff4 	.word	0x0800dff4
   39248:	0800dff8 	.word	0x0800dff8
   3924c:	0800dffc 	.word	0x0800dffc
   39250:	0800e000 	.word	0x0800e000
   39254:	0800e078 	.word	0x0800e078
   39258:	0800e008 	.word	0x0800e008
   3925c:	0800e084 	.word	0x0800e084

00039260 <init_mm>:
   39260:	e24dd008 	sub	sp, sp, #8
   39264:	e3a0c000 	mov	ip, #0
   39268:	e58dc000 	str	ip, [sp]
   3926c:	e59dc000 	ldr	ip, [sp]
   39270:	e35c0009 	cmp	ip, #9
   39274:	aa000022 	bge	39304 <init_mm+0xa4>
   39278:	e3a0c000 	mov	ip, #0
   3927c:	e58dc004 	str	ip, [sp, #4]
   39280:	e59dc004 	ldr	ip, [sp, #4]
   39284:	e35c0009 	cmp	ip, #9
   39288:	aa000017 	bge	392ec <init_mm+0x8c>
   3928c:	e59dc000 	ldr	ip, [sp]
   39290:	e59f33f0 	ldr	r3, [pc, #1008]	; 39688 <test_mm+0x2b4>
   39294:	e59d1004 	ldr	r1, [sp, #4]
   39298:	e1a0228c 	lsl	r2, ip, #5
   3929c:	e59d0000 	ldr	r0, [sp]
   392a0:	e082c10c 	add	ip, r2, ip, lsl #2
   392a4:	e083c00c 	add	ip, r3, ip
   392a8:	e2800001 	add	r0, r0, #1
   392ac:	e78c0101 	str	r0, [ip, r1, lsl #2]
   392b0:	e59dc000 	ldr	ip, [sp]
   392b4:	e59f33c8 	ldr	r3, [pc, #968]	; 39684 <test_mm+0x2b0>
   392b8:	e59d1004 	ldr	r1, [sp, #4]
   392bc:	e1a0228c 	lsl	r2, ip, #5
   392c0:	e59d0000 	ldr	r0, [sp]
   392c4:	e082c10c 	add	ip, r2, ip, lsl #2
   392c8:	e083c00c 	add	ip, r3, ip
   392cc:	e2800001 	add	r0, r0, #1
   392d0:	e78c0101 	str	r0, [ip, r1, lsl #2]
   392d4:	e59dc004 	ldr	ip, [sp, #4]
   392d8:	e28cc001 	add	ip, ip, #1
   392dc:	e58dc004 	str	ip, [sp, #4]
   392e0:	e59dc004 	ldr	ip, [sp, #4]
   392e4:	e35c0009 	cmp	ip, #9
   392e8:	baffffe7 	blt	3928c <init_mm+0x2c>
   392ec:	e59dc000 	ldr	ip, [sp]
   392f0:	e28cc001 	add	ip, ip, #1
   392f4:	e58dc000 	str	ip, [sp]
   392f8:	e59dc000 	ldr	ip, [sp]
   392fc:	e35c0009 	cmp	ip, #9
   39300:	baffffdc 	blt	39278 <init_mm+0x18>
   39304:	e28dd008 	add	sp, sp, #8
   39308:	e12fff1e 	bx	lr
   3930c:	6372633a 	.word	0x6372633a
   39310:	7364632c 	.word	0x7364632c
   39314:	25780d0a 	.word	0x25780d0a
   39318:	00a00000 	.word	0x00a00000
   3931c:	6372633a 	.word	0x6372633a
   39320:	6d61736b 	.word	0x6d61736b
   39324:	65640d0a 	.word	0x65640d0a
   39328:	00a00000 	.word	0x00a00000
   3932c:	0800dfc4 	.word	0x0800dfc4
   39330:	0800dfc8 	.word	0x0800dfc8
   39334:	0800e0a0 	.word	0x0800e0a0
   39338:	0800e130 	.word	0x0800e130
   3933c:	0800e128 	.word	0x0800e128
   39340:	0800e134 	.word	0x0800e134
   39344:	0800e12c 	.word	0x0800e12c
   39348:	0800e14c 	.word	0x0800e14c
   3934c:	0800e098 	.word	0x0800e098
   39350:	0800e09c 	.word	0x0800e09c
   39354:	0800e174 	.word	0x0800e174
   39358:	0800e1e0 	.word	0x0800e1e0
   3935c:	0800e1e4 	.word	0x0800e1e4
   39360:	0800e1e6 	.word	0x0800e1e6
   39364:	0800e1e8 	.word	0x0800e1e8
   39368:	0800e1ea 	.word	0x0800e1ea
   3936c:	0800e1ec 	.word	0x0800e1ec
   39370:	0800e1ee 	.word	0x0800e1ee
   39374:	0800e1f0 	.word	0x0800e1f0
   39378:	0800e1f4 	.word	0x0800e1f4
   3937c:	0800e220 	.word	0x0800e220
   39380:	0800e16c 	.word	0x0800e16c
   39384:	0800e170 	.word	0x0800e170
   39388:	0800e248 	.word	0x0800e248
   3938c:	0800e288 	.word	0x0800e288
   39390:	0800e28c 	.word	0x0800e28c
   39394:	0800e290 	.word	0x0800e290
   39398:	0800e294 	.word	0x0800e294
   3939c:	0800e296 	.word	0x0800e296
   393a0:	0800e298 	.word	0x0800e298
   393a4:	0800e29a 	.word	0x0800e29a
   393a8:	0800e29c 	.word	0x0800e29c
   393ac:	08006000 	.word	0x08006000
   393b0:	0800e2a0 	.word	0x0800e2a0
   393b4:	0002cf10 	.word	0x0002cf10
   393b8:	0800e2a4 	.word	0x0800e2a4
   393bc:	0800e2a8 	.word	0x0800e2a8
   393c0:	0800e2f4 	.word	0x0800e2f4
   393c4:	0800e2b0 	.word	0x0800e2b0
   393c8:	0800e300 	.word	0x0800e300
   393cc:	0800e240 	.word	0x0800e240
   393d0:	0800e244 	.word	0x0800e244

000393d4 <test_mm>:
   393d4:	e92d401f 	push	{r0, r1, r2, r3, r4, lr}
   393d8:	e3a0c000 	mov	ip, #0
   393dc:	e58dc008 	str	ip, [sp, #8]
   393e0:	ebffff40 	bl	390e8 <matrix_multiply>
   393e4:	e3a0c000 	mov	ip, #0
   393e8:	e58dc000 	str	ip, [sp]
   393ec:	e59dc000 	ldr	ip, [sp]
   393f0:	e35c0009 	cmp	ip, #9
   393f4:	aa000023 	bge	39488 <test_mm+0xb4>
   393f8:	e3a0c000 	mov	ip, #0
   393fc:	e58dc004 	str	ip, [sp, #4]
   39400:	e59dc004 	ldr	ip, [sp, #4]
   39404:	e35c0009 	cmp	ip, #9
   39408:	aa000018 	bge	39470 <test_mm+0x9c>
   3940c:	e59d0000 	ldr	r0, [sp]
   39410:	e59dc000 	ldr	ip, [sp]
   39414:	e59fe274 	ldr	lr, [pc, #628]	; 39690 <test_mm+0x2bc>
   39418:	e1a01280 	lsl	r1, r0, #5
   3941c:	e59f4268 	ldr	r4, [pc, #616]	; 3968c <test_mm+0x2b8>
   39420:	e0811100 	add	r1, r1, r0, lsl #2
   39424:	e59d0004 	ldr	r0, [sp, #4]
   39428:	e1a0328c 	lsl	r3, ip, #5
   3942c:	e59d2004 	ldr	r2, [sp, #4]
   39430:	e08e1001 	add	r1, lr, r1
   39434:	e083c10c 	add	ip, r3, ip, lsl #2
   39438:	e084c00c 	add	ip, r4, ip
   3943c:	e7910100 	ldr	r0, [r1, r0, lsl #2]
   39440:	e79cc102 	ldr	ip, [ip, r2, lsl #2]
   39444:	e150000c 	cmp	r0, ip
   39448:	0a000002 	beq	39458 <test_mm+0x84>
   3944c:	e59dc008 	ldr	ip, [sp, #8]
   39450:	e28cc001 	add	ip, ip, #1
   39454:	e58dc008 	str	ip, [sp, #8]
   39458:	e59dc004 	ldr	ip, [sp, #4]
   3945c:	e28cc001 	add	ip, ip, #1
   39460:	e58dc004 	str	ip, [sp, #4]
   39464:	e59dc004 	ldr	ip, [sp, #4]
   39468:	e35c0009 	cmp	ip, #9
   3946c:	baffffe6 	blt	3940c <test_mm+0x38>
   39470:	e59dc000 	ldr	ip, [sp]
   39474:	e28cc001 	add	ip, ip, #1
   39478:	e58dc000 	str	ip, [sp]
   3947c:	e59dc000 	ldr	ip, [sp]
   39480:	e35c0009 	cmp	ip, #9
   39484:	baffffdb 	blt	393f8 <test_mm+0x24>
   39488:	e59dc008 	ldr	ip, [sp, #8]
   3948c:	e35c0000 	cmp	ip, #0
   39490:	0a000027 	beq	39534 <test_mm+0x160>
   39494:	e59d1008 	ldr	r1, [sp, #8]
   39498:	e28f00a4 	add	r0, pc, #164	; 0xa4
   3949c:	fa002a8a 	blx	43ecc <printf>
   394a0:	e3a0c000 	mov	ip, #0
   394a4:	e58dc000 	str	ip, [sp]
   394a8:	e59dc000 	ldr	ip, [sp]
   394ac:	e35c0009 	cmp	ip, #9
   394b0:	aa00001e 	bge	39530 <test_mm+0x15c>
   394b4:	e59d1000 	ldr	r1, [sp]
   394b8:	e28f0090 	add	r0, pc, #144	; 0x90
   394bc:	fa002a82 	blx	43ecc <printf>
   394c0:	e3a0c000 	mov	ip, #0
   394c4:	e58dc004 	str	ip, [sp, #4]
   394c8:	e59dc004 	ldr	ip, [sp, #4]
   394cc:	e35c0009 	cmp	ip, #9
   394d0:	aa00000e 	bge	39510 <test_mm+0x13c>
   394d4:	e59dc000 	ldr	ip, [sp]
   394d8:	e59d0004 	ldr	r0, [sp, #4]
   394dc:	e59f21a8 	ldr	r2, [pc, #424]	; 3968c <test_mm+0x2b8>
   394e0:	e1a0128c 	lsl	r1, ip, #5
   394e4:	e081c10c 	add	ip, r1, ip, lsl #2
   394e8:	e082c00c 	add	ip, r2, ip
   394ec:	e79c1100 	ldr	r1, [ip, r0, lsl #2]
   394f0:	e28f0060 	add	r0, pc, #96	; 0x60
   394f4:	fa002a74 	blx	43ecc <printf>
   394f8:	e59dc004 	ldr	ip, [sp, #4]
   394fc:	e28cc001 	add	ip, ip, #1
   39500:	e58dc004 	str	ip, [sp, #4]
   39504:	e59dc004 	ldr	ip, [sp, #4]
   39508:	e35c0009 	cmp	ip, #9
   3950c:	bafffff0 	blt	394d4 <test_mm+0x100>
   39510:	e28f0044 	add	r0, pc, #68	; 0x44
   39514:	fa002a6c 	blx	43ecc <printf>
   39518:	e59dc000 	ldr	ip, [sp]
   3951c:	e28cc001 	add	ip, ip, #1
   39520:	e58dc000 	str	ip, [sp]
   39524:	e59dc000 	ldr	ip, [sp]
   39528:	e35c0009 	cmp	ip, #9
   3952c:	baffffe0 	blt	394b4 <test_mm+0xe0>
   39530:	eafffffe 	b	39530 <test_mm+0x15c>
   39534:	e28f0024 	add	r0, pc, #36	; 0x24
   39538:	fa002a63 	blx	43ecc <printf>
   3953c:	e58d0000 	str	r0, [sp]
   39540:	e8bd801f 	pop	{r0, r1, r2, r3, r4, pc}
   39544:	6d6d3a73 	.word	0x6d6d3a73
   39548:	64632c25 	.word	0x64632c25
   3954c:	640d0a00 	.word	0x640d0a00
   39550:	6d25643a 	.word	0x6d25643a
   39554:	00a00000 	.word	0x00a00000
   39558:	25642c00 	.word	0x25642c00
   3955c:	0d0a0000 	.word	0x0d0a0000
   39560:	6d6d3a6d 	.word	0x6d6d3a6d
   39564:	61736b65 	.word	0x61736b65
   39568:	640d0a00 	.word	0x640d0a00
   3956c:	0800e31c 	.word	0x0800e31c
   39570:	0800e3ac 	.word	0x0800e3ac
   39574:	0800e3a4 	.word	0x0800e3a4
   39578:	0800e3b0 	.word	0x0800e3b0
   3957c:	0800e3a8 	.word	0x0800e3a8
   39580:	0800e3c8 	.word	0x0800e3c8
   39584:	0800e314 	.word	0x0800e314
   39588:	0800e318 	.word	0x0800e318
   3958c:	0800e3f0 	.word	0x0800e3f0
   39590:	0800e430 	.word	0x0800e430
   39594:	0800e434 	.word	0x0800e434
   39598:	0800e438 	.word	0x0800e438
   3959c:	0800e43c 	.word	0x0800e43c
   395a0:	0800e43e 	.word	0x0800e43e
   395a4:	0800e440 	.word	0x0800e440
   395a8:	0800e442 	.word	0x0800e442
   395ac:	0800e444 	.word	0x0800e444
   395b0:	08002800 	.word	0x08002800
   395b4:	0800e448 	.word	0x0800e448
   395b8:	00029710 	.word	0x00029710
   395bc:	0800e44c 	.word	0x0800e44c
   395c0:	0800e450 	.word	0x0800e450
   395c4:	0800e49c 	.word	0x0800e49c
   395c8:	0800e458 	.word	0x0800e458
   395cc:	0800e4a8 	.word	0x0800e4a8
   395d0:	0800e3e8 	.word	0x0800e3e8
   395d4:	0800e3ec 	.word	0x0800e3ec
   395d8:	0800e4c4 	.word	0x0800e4c4
   395dc:	0800e554 	.word	0x0800e554
   395e0:	0800e54c 	.word	0x0800e54c
   395e4:	0800e558 	.word	0x0800e558
   395e8:	0800e550 	.word	0x0800e550
   395ec:	0800e570 	.word	0x0800e570
   395f0:	0800e4bc 	.word	0x0800e4bc
   395f4:	0800e4c0 	.word	0x0800e4c0
   395f8:	0800e598 	.word	0x0800e598
   395fc:	0800e5d8 	.word	0x0800e5d8
   39600:	0800e5dc 	.word	0x0800e5dc
   39604:	0800e5e0 	.word	0x0800e5e0
   39608:	0800e5e4 	.word	0x0800e5e4
   3960c:	0800e5e6 	.word	0x0800e5e6
   39610:	0800e5e8 	.word	0x0800e5e8
   39614:	0800e5ea 	.word	0x0800e5ea
   39618:	0800e5ec 	.word	0x0800e5ec
   3961c:	080023c0 	.word	0x080023c0
   39620:	0800e5f0 	.word	0x0800e5f0
   39624:	000292d0 	.word	0x000292d0
   39628:	0800e5f4 	.word	0x0800e5f4
   3962c:	0800e5f8 	.word	0x0800e5f8
   39630:	0800e644 	.word	0x0800e644
   39634:	0800e600 	.word	0x0800e600
   39638:	0800e650 	.word	0x0800e650
   3963c:	0800e590 	.word	0x0800e590
   39640:	0800e594 	.word	0x0800e594
   39644:	0800e66c 	.word	0x0800e66c
   39648:	0800e708 	.word	0x0800e708
   3964c:	0800e70c 	.word	0x0800e70c
   39650:	0800e710 	.word	0x0800e710
   39654:	0800e718 	.word	0x0800e718
   39658:	0800e664 	.word	0x0800e664
   3965c:	0800e668 	.word	0x0800e668
   39660:	08001504 	.word	0x08001504
   39664:	0800d764 	.word	0x0800d764
   39668:	0800d758 	.word	0x0800d758
   3966c:	0800e738 	.word	0x0800e738
   39670:	0800f048 	.word	0x0800f048
   39674:	0800f958 	.word	0x0800f958
   39678:	08010268 	.word	0x08010268
   3967c:	080122dc 	.word	0x080122dc
   39680:	000352e9 	.word	0x000352e9
   39684:	08012054 	.word	0x08012054
   39688:	08011f10 	.word	0x08011f10
   3968c:	08012198 	.word	0x08012198
   39690:	00034fdc 	.word	0x00034fdc

00039694 <__USAT>:
   39694:	e24dd010 	sub	sp, sp, #16
   39698:	e58d1004 	str	r1, [sp, #4]
   3969c:	e58d0000 	str	r0, [sp]
   396a0:	e59dc004 	ldr	ip, [sp, #4]
   396a4:	e35c001f 	cmp	ip, #31
   396a8:	8a00000f 	bhi	396ec <__USAT+0x58>
   396ac:	e59dc004 	ldr	ip, [sp, #4]
   396b0:	e3a01001 	mov	r1, #1
   396b4:	e3a00001 	mov	r0, #1
   396b8:	e060cc11 	rsb	ip, r0, r1, lsl ip
   396bc:	e58dc008 	str	ip, [sp, #8]
   396c0:	e59d0000 	ldr	r0, [sp]
   396c4:	e59dc008 	ldr	ip, [sp, #8]
   396c8:	e15c0000 	cmp	ip, r0
   396cc:	aa000001 	bge	396d8 <__USAT+0x44>
   396d0:	e59d0008 	ldr	r0, [sp, #8]
   396d4:	ea000005 	b	396f0 <__USAT+0x5c>
   396d8:	e59dc000 	ldr	ip, [sp]
   396dc:	e35c0000 	cmp	ip, #0
   396e0:	5a000001 	bpl	396ec <__USAT+0x58>
   396e4:	e3a00000 	mov	r0, #0
   396e8:	ea000000 	b	396f0 <__USAT+0x5c>
   396ec:	e59d0000 	ldr	r0, [sp]
   396f0:	e28dd010 	add	sp, sp, #16
   396f4:	e12fff1e 	bx	lr

000396f8 <__SSAT>:
   396f8:	e24dd010 	sub	sp, sp, #16
   396fc:	e58d1004 	str	r1, [sp, #4]
   39700:	e58d0000 	str	r0, [sp]
   39704:	e59dc004 	ldr	ip, [sp, #4]
   39708:	e35c0000 	cmp	ip, #0
   3970c:	0a000017 	beq	39770 <__SSAT+0x78>
   39710:	e59dc004 	ldr	ip, [sp, #4]
   39714:	e35c0020 	cmp	ip, #32
   39718:	8a000014 	bhi	39770 <__SSAT+0x78>
   3971c:	e59dc004 	ldr	ip, [sp, #4]
   39720:	e3a01001 	mov	r1, #1
   39724:	e24cc001 	sub	ip, ip, #1
   39728:	e3a00001 	mov	r0, #1
   3972c:	e060cc11 	rsb	ip, r0, r1, lsl ip
   39730:	e58dc008 	str	ip, [sp, #8]
   39734:	e59dc008 	ldr	ip, [sp, #8]
   39738:	e1e0c00c 	mvn	ip, ip
   3973c:	e58dc00c 	str	ip, [sp, #12]
   39740:	e59d0000 	ldr	r0, [sp]
   39744:	e59dc008 	ldr	ip, [sp, #8]
   39748:	e15c0000 	cmp	ip, r0
   3974c:	aa000001 	bge	39758 <__SSAT+0x60>
   39750:	e59d0008 	ldr	r0, [sp, #8]
   39754:	ea000006 	b	39774 <__SSAT+0x7c>
   39758:	e59dc00c 	ldr	ip, [sp, #12]
   3975c:	e59d0000 	ldr	r0, [sp]
   39760:	e15c0000 	cmp	ip, r0
   39764:	da000001 	ble	39770 <__SSAT+0x78>
   39768:	e59d000c 	ldr	r0, [sp, #12]
   3976c:	ea000000 	b	39774 <__SSAT+0x7c>
   39770:	e59d0000 	ldr	r0, [sp]
   39774:	e28dd010 	add	sp, sp, #16
   39778:	e12fff1e 	bx	lr

0003977c <myarm_convolve_HWC_q7_basic>:
   3977c:	e92d4070 	push	{r4, r5, r6, lr}
   39780:	e24dd028 	sub	sp, sp, #40	; 0x28
   39784:	e58d3004 	str	r3, [sp, #4]
   39788:	e1cd21b2 	strh	r2, [sp, #18]
   3978c:	e1cd11b0 	strh	r1, [sp, #16]
   39790:	e58d0000 	str	r0, [sp]
   39794:	e3a0c000 	mov	ip, #0
   39798:	e58dc00c 	str	ip, [sp, #12]
   3979c:	e3a0c000 	mov	ip, #0
   397a0:	e1cdc1b4 	strh	ip, [sp, #20]
   397a4:	ea000089 	b	399d0 <myarm_convolve_HWC_q7_basic+0x254>
   397a8:	e3a0c000 	mov	ip, #0
   397ac:	e1cdc1b6 	strh	ip, [sp, #22]
   397b0:	ea00007f 	b	399b4 <myarm_convolve_HWC_q7_basic+0x238>
   397b4:	e3a0c000 	mov	ip, #0
   397b8:	e1cdc1b8 	strh	ip, [sp, #24]
   397bc:	ea000075 	b	39998 <myarm_convolve_HWC_q7_basic+0x21c>
   397c0:	e59dc00c 	ldr	ip, [sp, #12]
   397c4:	e59d0054 	ldr	r0, [sp, #84]	; 0x54
   397c8:	e28c1001 	add	r1, ip, #1
   397cc:	e58d100c 	str	r1, [sp, #12]
   397d0:	e19cc0d0 	ldrsb	ip, [ip, r0]
   397d4:	e35c007f 	cmp	ip, #127	; 0x7f
   397d8:	1a00006b 	bne	3998c <myarm_convolve_HWC_q7_basic+0x210>
   397dc:	e59d0048 	ldr	r0, [sp, #72]	; 0x48
   397e0:	e1dd11b4 	ldrh	r1, [sp, #20]
   397e4:	e1dd25b2 	ldrh	r2, [sp, #82]	; 0x52
   397e8:	e1ddc4be 	ldrh	ip, [sp, #78]	; 0x4e
   397ec:	e3a03001 	mov	r3, #1
   397f0:	e19100d0 	ldrsb	r0, [r1, r0]
   397f4:	e1a01213 	lsl	r1, r3, r2
   397f8:	e1a010a1 	lsr	r1, r1, #1
   397fc:	e081cc10 	add	ip, r1, r0, lsl ip
   39800:	e58dc008 	str	ip, [sp, #8]
   39804:	e3a0c000 	mov	ip, #0
   39808:	e1cdc1bc 	strh	ip, [sp, #28]
   3980c:	ea00004f 	b	39950 <myarm_convolve_HWC_q7_basic+0x1d4>
   39810:	e3a0c000 	mov	ip, #0
   39814:	e1cdc1be 	strh	ip, [sp, #30]
   39818:	ea000045 	b	39934 <myarm_convolve_HWC_q7_basic+0x1b8>
   3981c:	e1dd14b6 	ldrh	r1, [sp, #70]	; 0x46
   39820:	e1dd21b6 	ldrh	r2, [sp, #22]
   39824:	e1dd01bc 	ldrh	r0, [sp, #28]
   39828:	e1ddc4b2 	ldrh	ip, [sp, #66]	; 0x42
   3982c:	e0200192 	mla	r0, r2, r1, r0
   39830:	e040c00c 	sub	ip, r0, ip
   39834:	e5cdc020 	strb	ip, [sp, #32]
   39838:	e1dd14b6 	ldrh	r1, [sp, #70]	; 0x46
   3983c:	e1dd21b8 	ldrh	r2, [sp, #24]
   39840:	e1dd01be 	ldrh	r0, [sp, #30]
   39844:	e1ddc4b2 	ldrh	ip, [sp, #66]	; 0x42
   39848:	e0200192 	mla	r0, r2, r1, r0
   3984c:	e040c00c 	sub	ip, r0, ip
   39850:	e5cdc021 	strb	ip, [sp, #33]	; 0x21
   39854:	e1ddc2d0 	ldrsb	ip, [sp, #32]
   39858:	e35c0000 	cmp	ip, #0
   3985c:	4a000031 	bmi	39928 <myarm_convolve_HWC_q7_basic+0x1ac>
   39860:	e1ddc2d1 	ldrsb	ip, [sp, #33]	; 0x21
   39864:	e35c0000 	cmp	ip, #0
   39868:	4a00002e 	bmi	39928 <myarm_convolve_HWC_q7_basic+0x1ac>
   3986c:	e1ddc1b0 	ldrh	ip, [sp, #16]
   39870:	e1dd02d0 	ldrsb	r0, [sp, #32]
   39874:	e15c0000 	cmp	ip, r0
   39878:	da00002a 	ble	39928 <myarm_convolve_HWC_q7_basic+0x1ac>
   3987c:	e1ddc1b0 	ldrh	ip, [sp, #16]
   39880:	e1dd02d1 	ldrsb	r0, [sp, #33]	; 0x21
   39884:	e15c0000 	cmp	ip, r0
   39888:	da000026 	ble	39928 <myarm_convolve_HWC_q7_basic+0x1ac>
   3988c:	e3a0c000 	mov	ip, #0
   39890:	e1cdc1ba 	strh	ip, [sp, #26]
   39894:	ea00001f 	b	39918 <myarm_convolve_HWC_q7_basic+0x19c>
   39898:	e1dd21b4 	ldrh	r2, [sp, #20]
   3989c:	e1dd51b2 	ldrh	r5, [sp, #18]
   398a0:	e1dd02d0 	ldrsb	r0, [sp, #32]
   398a4:	e1dd11b0 	ldrh	r1, [sp, #16]
   398a8:	e1ddc2d1 	ldrsb	ip, [sp, #33]	; 0x21
   398ac:	e1dde1bc 	ldrh	lr, [sp, #28]
   398b0:	e1dd43be 	ldrh	r4, [sp, #62]	; 0x3e
   398b4:	e1dd31be 	ldrh	r3, [sp, #30]
   398b8:	e1dd63be 	ldrh	r6, [sp, #62]	; 0x3e
   398bc:	e0050592 	mul	r5, r2, r5
   398c0:	e020c091 	mla	r0, r1, r0, ip
   398c4:	e0233e94 	mla	r3, r4, lr, r3
   398c8:	e1dd21b2 	ldrh	r2, [sp, #18]
   398cc:	e1ddc1ba 	ldrh	ip, [sp, #26]
   398d0:	e1dd11b2 	ldrh	r1, [sp, #18]
   398d4:	e1dde3be 	ldrh	lr, [sp, #62]	; 0x3e
   398d8:	e59d4000 	ldr	r4, [sp]
   398dc:	e0050596 	mul	r5, r6, r5
   398e0:	e02cc092 	mla	ip, r2, r0, ip
   398e4:	e0010193 	mul	r1, r3, r1
   398e8:	e1dd01ba 	ldrh	r0, [sp, #26]
   398ec:	e59d2004 	ldr	r2, [sp, #4]
   398f0:	e021159e 	mla	r1, lr, r5, r1
   398f4:	e0800001 	add	r0, r0, r1
   398f8:	e194c0dc 	ldrsb	ip, [r4, ip]
   398fc:	e19210d0 	ldrsb	r1, [r2, r0]
   39900:	e59d0008 	ldr	r0, [sp, #8]
   39904:	e10c0c81 	smlabb	ip, r1, ip, r0
   39908:	e58dc008 	str	ip, [sp, #8]
   3990c:	e1ddc1ba 	ldrh	ip, [sp, #26]
   39910:	e28cc001 	add	ip, ip, #1
   39914:	e1cdc1ba 	strh	ip, [sp, #26]
   39918:	e1ddc1b2 	ldrh	ip, [sp, #18]
   3991c:	e1dd01ba 	ldrh	r0, [sp, #26]
   39920:	e15c0000 	cmp	ip, r0
   39924:	caffffdb 	bgt	39898 <myarm_convolve_HWC_q7_basic+0x11c>
   39928:	e1ddc1be 	ldrh	ip, [sp, #30]
   3992c:	e28cc001 	add	ip, ip, #1
   39930:	e1cdc1be 	strh	ip, [sp, #30]
   39934:	e1ddc3be 	ldrh	ip, [sp, #62]	; 0x3e
   39938:	e1dd01be 	ldrh	r0, [sp, #30]
   3993c:	e15c0000 	cmp	ip, r0
   39940:	caffffb5 	bgt	3981c <myarm_convolve_HWC_q7_basic+0xa0>
   39944:	e1ddc1bc 	ldrh	ip, [sp, #28]
   39948:	e28cc001 	add	ip, ip, #1
   3994c:	e1cdc1bc 	strh	ip, [sp, #28]
   39950:	e1ddc3be 	ldrh	ip, [sp, #62]	; 0x3e
   39954:	e1dd01bc 	ldrh	r0, [sp, #28]
   39958:	e15c0000 	cmp	ip, r0
   3995c:	caffffab 	bgt	39810 <myarm_convolve_HWC_q7_basic+0x94>
   39960:	e1ddc5b2 	ldrh	ip, [sp, #82]	; 0x52
   39964:	e59d0008 	ldr	r0, [sp, #8]
   39968:	e3a01008 	mov	r1, #8
   3996c:	e1a00c50 	asr	r0, r0, ip
   39970:	ebffff60 	bl	396f8 <__SSAT>
   39974:	e1ddc2d2 	ldrsb	ip, [sp, #34]	; 0x22
   39978:	e6af0070 	sxtb	r0, r0
   3997c:	e150000c 	cmp	r0, ip
   39980:	0a000001 	beq	3998c <myarm_convolve_HWC_q7_basic+0x210>
   39984:	e3a00001 	mov	r0, #1
   39988:	ea000015 	b	399e4 <myarm_convolve_HWC_q7_basic+0x268>
   3998c:	e1ddc1b8 	ldrh	ip, [sp, #24]
   39990:	e28cc001 	add	ip, ip, #1
   39994:	e1cdc1b8 	strh	ip, [sp, #24]
   39998:	e1ddc5ba 	ldrh	ip, [sp, #90]	; 0x5a
   3999c:	e1dd01b8 	ldrh	r0, [sp, #24]
   399a0:	e15c0000 	cmp	ip, r0
   399a4:	caffff85 	bgt	397c0 <myarm_convolve_HWC_q7_basic+0x44>
   399a8:	e1ddc1b6 	ldrh	ip, [sp, #22]
   399ac:	e28cc001 	add	ip, ip, #1
   399b0:	e1cdc1b6 	strh	ip, [sp, #22]
   399b4:	e1ddc5ba 	ldrh	ip, [sp, #90]	; 0x5a
   399b8:	e1dd01b6 	ldrh	r0, [sp, #22]
   399bc:	e15c0000 	cmp	ip, r0
   399c0:	caffff7b 	bgt	397b4 <myarm_convolve_HWC_q7_basic+0x38>
   399c4:	e1ddc1b4 	ldrh	ip, [sp, #20]
   399c8:	e28cc001 	add	ip, ip, #1
   399cc:	e1cdc1b4 	strh	ip, [sp, #20]
   399d0:	e1ddc3ba 	ldrh	ip, [sp, #58]	; 0x3a
   399d4:	e1dd01b4 	ldrh	r0, [sp, #20]
   399d8:	e15c0000 	cmp	ip, r0
   399dc:	caffff71 	bgt	397a8 <myarm_convolve_HWC_q7_basic+0x2c>
   399e0:	e3a00000 	mov	r0, #0
   399e4:	e28dd028 	add	sp, sp, #40	; 0x28
   399e8:	e8bd8070 	pop	{r4, r5, r6, pc}

000399ec <myarm_fully_connected_q7>:
   399ec:	e92d4000 	stmfd	sp!, {lr}
   399f0:	e24dd01c 	sub	sp, sp, #28
   399f4:	e1cd31b2 	strh	r3, [sp, #18]
   399f8:	e1cd21b0 	strh	r2, [sp, #16]
   399fc:	e58d1004 	str	r1, [sp, #4]
   39a00:	e58d0000 	str	r0, [sp]
   39a04:	e3a0c000 	mov	ip, #0
   39a08:	e58dc008 	str	ip, [sp, #8]
   39a0c:	e59d0008 	ldr	r0, [sp, #8]
   39a10:	e1ddc1b2 	ldrh	ip, [sp, #18]
   39a14:	e15c0000 	cmp	ip, r0
   39a18:	da00003c 	ble	39b10 <myarm_fully_connected_q7+0x124>
   39a1c:	e59dc02c 	ldr	ip, [sp, #44]	; 0x2c
   39a20:	e59d0008 	ldr	r0, [sp, #8]
   39a24:	e190c0dc 	ldrsb	ip, [r0, ip]
   39a28:	e35c007f 	cmp	ip, #127	; 0x7f
   39a2c:	1a000030 	bne	39af4 <myarm_fully_connected_q7+0x108>
   39a30:	e59d0028 	ldr	r0, [sp, #40]	; 0x28
   39a34:	e59d1008 	ldr	r1, [sp, #8]
   39a38:	e1dd22b6 	ldrh	r2, [sp, #38]	; 0x26
   39a3c:	e1ddc2b2 	ldrh	ip, [sp, #34]	; 0x22
   39a40:	e3a03001 	mov	r3, #1
   39a44:	e19100d0 	ldrsb	r0, [r1, r0]
   39a48:	e1a01213 	lsl	r1, r3, r2
   39a4c:	e1a010a1 	lsr	r1, r1, #1
   39a50:	e081cc10 	add	ip, r1, r0, lsl ip
   39a54:	e58dc014 	str	ip, [sp, #20]
   39a58:	e3a0c000 	mov	ip, #0
   39a5c:	e58dc00c 	str	ip, [sp, #12]
   39a60:	e1ddc1b0 	ldrh	ip, [sp, #16]
   39a64:	e59d000c 	ldr	r0, [sp, #12]
   39a68:	e15c0000 	cmp	ip, r0
   39a6c:	da000012 	ble	39abc <myarm_fully_connected_q7+0xd0>
   39a70:	e59d2008 	ldr	r2, [sp, #8]
   39a74:	e1dd31b0 	ldrh	r3, [sp, #16]
   39a78:	e59dc000 	ldr	ip, [sp]
   39a7c:	e59d000c 	ldr	r0, [sp, #12]
   39a80:	e59de004 	ldr	lr, [sp, #4]
   39a84:	e59d100c 	ldr	r1, [sp, #12]
   39a88:	e0211293 	mla	r1, r3, r2, r1
   39a8c:	e190c0dc 	ldrsb	ip, [r0, ip]
   39a90:	e19e10d1 	ldrsb	r1, [lr, r1]
   39a94:	e59d0014 	ldr	r0, [sp, #20]
   39a98:	e10c0c81 	smlabb	ip, r1, ip, r0
   39a9c:	e58dc014 	str	ip, [sp, #20]
   39aa0:	e59dc00c 	ldr	ip, [sp, #12]
   39aa4:	e28cc001 	add	ip, ip, #1
   39aa8:	e58dc00c 	str	ip, [sp, #12]
   39aac:	e1ddc1b0 	ldrh	ip, [sp, #16]
   39ab0:	e59d000c 	ldr	r0, [sp, #12]
   39ab4:	e15c0000 	cmp	ip, r0
   39ab8:	caffffec 	bgt	39a70 <myarm_fully_connected_q7+0x84>
   39abc:	e1ddc2b6 	ldrh	ip, [sp, #38]	; 0x26
   39ac0:	e59d0014 	ldr	r0, [sp, #20]
   39ac4:	e3a01008 	mov	r1, #8
   39ac8:	e1a00c50 	asr	r0, r0, ip
   39acc:	ebffff09 	bl	396f8 <__SSAT>
   39ad0:	e5cd0018 	strb	r0, [sp, #24]
   39ad4:	e59d1008 	ldr	r1, [sp, #8]
   39ad8:	e59d002c 	ldr	r0, [sp, #44]	; 0x2c
   39adc:	e1ddc1d8 	ldrsb	ip, [sp, #24]
   39ae0:	e19100d0 	ldrsb	r0, [r1, r0]
   39ae4:	e15c0000 	cmp	ip, r0
   39ae8:	0a000001 	beq	39af4 <myarm_fully_connected_q7+0x108>
   39aec:	e3a00001 	mov	r0, #1
   39af0:	ea000007 	b	39b14 <myarm_fully_connected_q7+0x128>
   39af4:	e59dc008 	ldr	ip, [sp, #8]
   39af8:	e28cc001 	add	ip, ip, #1
   39afc:	e58dc008 	str	ip, [sp, #8]
   39b00:	e1ddc1b2 	ldrh	ip, [sp, #18]
   39b04:	e59d0008 	ldr	r0, [sp, #8]
   39b08:	e15c0000 	cmp	ip, r0
   39b0c:	caffffc2 	bgt	39a1c <myarm_fully_connected_q7+0x30>
   39b10:	e3a00000 	mov	r0, #0
   39b14:	e28dd01c 	add	sp, sp, #28
   39b18:	e8bd8000 	ldmfd	sp!, {pc}

00039b1c <myarm_maxpool_q7_HWC>:
   39b1c:	e24dd020 	sub	sp, sp, #32
   39b20:	e1cd30bc 	strh	r3, [sp, #12]
   39b24:	e1cd20ba 	strh	r2, [sp, #10]
   39b28:	e1cd10b8 	strh	r1, [sp, #8]
   39b2c:	e58d0000 	str	r0, [sp]
   39b30:	e3a0c000 	mov	ip, #0
   39b34:	e58dc004 	str	ip, [sp, #4]
   39b38:	e3a0c000 	mov	ip, #0
   39b3c:	e1cdc0be 	strh	ip, [sp, #14]
   39b40:	ea000079 	b	39d2c <myarm_maxpool_q7_HWC+0x210>
   39b44:	e3a0c000 	mov	ip, #0
   39b48:	e1cdc1b2 	strh	ip, [sp, #18]
   39b4c:	ea00006f 	b	39d10 <myarm_maxpool_q7_HWC+0x1f4>
   39b50:	e3a0c000 	mov	ip, #0
   39b54:	e1cdc1b0 	strh	ip, [sp, #16]
   39b58:	ea000065 	b	39cf4 <myarm_maxpool_q7_HWC+0x1d8>
   39b5c:	e59dc004 	ldr	ip, [sp, #4]
   39b60:	e59d0030 	ldr	r0, [sp, #48]	; 0x30
   39b64:	e28c1001 	add	r1, ip, #1
   39b68:	e58d1004 	str	r1, [sp, #4]
   39b6c:	e19cc0d0 	ldrsb	ip, [ip, r0]
   39b70:	e35c007f 	cmp	ip, #127	; 0x7f
   39b74:	1a00005b 	bne	39ce8 <myarm_maxpool_q7_HWC+0x1cc>
   39b78:	e3e0c080 	mvn	ip, #128	; 0x80
   39b7c:	e58dc018 	str	ip, [sp, #24]
   39b80:	e1dd01f2 	ldrsh	r0, [sp, #18]
   39b84:	e1dd12b6 	ldrh	r1, [sp, #38]	; 0x26
   39b88:	e1ddc2b2 	ldrh	ip, [sp, #34]	; 0x22
   39b8c:	e0000091 	mul	r0, r1, r0
   39b90:	e040c00c 	sub	ip, r0, ip
   39b94:	e1cdc1b6 	strh	ip, [sp, #22]
   39b98:	ea00003a 	b	39c88 <myarm_maxpool_q7_HWC+0x16c>
   39b9c:	e1dd01f0 	ldrsh	r0, [sp, #16]
   39ba0:	e1dd12b6 	ldrh	r1, [sp, #38]	; 0x26
   39ba4:	e1ddc2b2 	ldrh	ip, [sp, #34]	; 0x22
   39ba8:	e0000091 	mul	r0, r1, r0
   39bac:	e040c00c 	sub	ip, r0, ip
   39bb0:	e1cdc1b4 	strh	ip, [sp, #20]
   39bb4:	ea000026 	b	39c54 <myarm_maxpool_q7_HWC+0x138>
   39bb8:	e1ddc1f6 	ldrsh	ip, [sp, #22]
   39bbc:	e35c0000 	cmp	ip, #0
   39bc0:	4a000020 	bmi	39c48 <myarm_maxpool_q7_HWC+0x12c>
   39bc4:	e1ddc1f4 	ldrsh	ip, [sp, #20]
   39bc8:	e35c0000 	cmp	ip, #0
   39bcc:	4a00001d 	bmi	39c48 <myarm_maxpool_q7_HWC+0x12c>
   39bd0:	e1ddc0b8 	ldrh	ip, [sp, #8]
   39bd4:	e1dd01f6 	ldrsh	r0, [sp, #22]
   39bd8:	e15c0000 	cmp	ip, r0
   39bdc:	da000019 	ble	39c48 <myarm_maxpool_q7_HWC+0x12c>
   39be0:	e1ddc0b8 	ldrh	ip, [sp, #8]
   39be4:	e1dd01f4 	ldrsh	r0, [sp, #20]
   39be8:	e15c0000 	cmp	ip, r0
   39bec:	da000015 	ble	39c48 <myarm_maxpool_q7_HWC+0x12c>
   39bf0:	e1dd11f6 	ldrsh	r1, [sp, #22]
   39bf4:	e1dd20b8 	ldrh	r2, [sp, #8]
   39bf8:	e1dd01f4 	ldrsh	r0, [sp, #20]
   39bfc:	e1ddc0ba 	ldrh	ip, [sp, #10]
   39c00:	e0210192 	mla	r1, r2, r1, r0
   39c04:	e59d2000 	ldr	r2, [sp]
   39c08:	e1dd00fe 	ldrsh	r0, [sp, #14]
   39c0c:	e0200c91 	mla	r0, r1, ip, r0
   39c10:	e59dc018 	ldr	ip, [sp, #24]
   39c14:	e19200d0 	ldrsb	r0, [r2, r0]
   39c18:	e15c0000 	cmp	ip, r0
   39c1c:	aa000009 	bge	39c48 <myarm_maxpool_q7_HWC+0x12c>
   39c20:	e1dd11f6 	ldrsh	r1, [sp, #22]
   39c24:	e1dd20b8 	ldrh	r2, [sp, #8]
   39c28:	e1dd01f4 	ldrsh	r0, [sp, #20]
   39c2c:	e1ddc0ba 	ldrh	ip, [sp, #10]
   39c30:	e59d3000 	ldr	r3, [sp]
   39c34:	e0210192 	mla	r1, r2, r1, r0
   39c38:	e1dd00fe 	ldrsh	r0, [sp, #14]
   39c3c:	e02c0c91 	mla	ip, r1, ip, r0
   39c40:	e193c0dc 	ldrsb	ip, [r3, ip]
   39c44:	e58dc018 	str	ip, [sp, #24]
   39c48:	e1ddc1f4 	ldrsh	ip, [sp, #20]
   39c4c:	e28cc001 	add	ip, ip, #1
   39c50:	e1cdc1b4 	strh	ip, [sp, #20]
   39c54:	e1dd01f0 	ldrsh	r0, [sp, #16]
   39c58:	e1dd12b6 	ldrh	r1, [sp, #38]	; 0x26
   39c5c:	e1ddc2b2 	ldrh	ip, [sp, #34]	; 0x22
   39c60:	e0000091 	mul	r0, r1, r0
   39c64:	e1dd10bc 	ldrh	r1, [sp, #12]
   39c68:	e1dd21f4 	ldrsh	r2, [sp, #20]
   39c6c:	e040c00c 	sub	ip, r0, ip
   39c70:	e081c00c 	add	ip, r1, ip
   39c74:	e15c0002 	cmp	ip, r2
   39c78:	caffffce 	bgt	39bb8 <myarm_maxpool_q7_HWC+0x9c>
   39c7c:	e1ddc1f6 	ldrsh	ip, [sp, #22]
   39c80:	e28cc001 	add	ip, ip, #1
   39c84:	e1cdc1b6 	strh	ip, [sp, #22]
   39c88:	e1dd01f2 	ldrsh	r0, [sp, #18]
   39c8c:	e1dd12b6 	ldrh	r1, [sp, #38]	; 0x26
   39c90:	e1ddc2b2 	ldrh	ip, [sp, #34]	; 0x22
   39c94:	e0000091 	mul	r0, r1, r0
   39c98:	e1dd10bc 	ldrh	r1, [sp, #12]
   39c9c:	e1dd21f6 	ldrsh	r2, [sp, #22]
   39ca0:	e040c00c 	sub	ip, r0, ip
   39ca4:	e081c00c 	add	ip, r1, ip
   39ca8:	e15c0002 	cmp	ip, r2
   39cac:	caffffba 	bgt	39b9c <myarm_maxpool_q7_HWC+0x80>
   39cb0:	e1dd11f2 	ldrsh	r1, [sp, #18]
   39cb4:	e1dd22ba 	ldrh	r2, [sp, #42]	; 0x2a
   39cb8:	e1dd01f0 	ldrsh	r0, [sp, #16]
   39cbc:	e1ddc0ba 	ldrh	ip, [sp, #10]
   39cc0:	e0210192 	mla	r1, r2, r1, r0
   39cc4:	e59d2030 	ldr	r2, [sp, #48]	; 0x30
   39cc8:	e1dd00fe 	ldrsh	r0, [sp, #14]
   39ccc:	e0200c91 	mla	r0, r1, ip, r0
   39cd0:	e59dc018 	ldr	ip, [sp, #24]
   39cd4:	e19200d0 	ldrsb	r0, [r2, r0]
   39cd8:	e15c0000 	cmp	ip, r0
   39cdc:	0a000001 	beq	39ce8 <myarm_maxpool_q7_HWC+0x1cc>
   39ce0:	e3a00001 	mov	r0, #1
   39ce4:	ea000015 	b	39d40 <myarm_maxpool_q7_HWC+0x224>
   39ce8:	e1ddc1f0 	ldrsh	ip, [sp, #16]
   39cec:	e28cc001 	add	ip, ip, #1
   39cf0:	e1cdc1b0 	strh	ip, [sp, #16]
   39cf4:	e1ddc2ba 	ldrh	ip, [sp, #42]	; 0x2a
   39cf8:	e1dd01f0 	ldrsh	r0, [sp, #16]
   39cfc:	e15c0000 	cmp	ip, r0
   39d00:	caffff95 	bgt	39b5c <myarm_maxpool_q7_HWC+0x40>
   39d04:	e1ddc1f2 	ldrsh	ip, [sp, #18]
   39d08:	e28cc001 	add	ip, ip, #1
   39d0c:	e1cdc1b2 	strh	ip, [sp, #18]
   39d10:	e1ddc2ba 	ldrh	ip, [sp, #42]	; 0x2a
   39d14:	e1dd01f2 	ldrsh	r0, [sp, #18]
   39d18:	e15c0000 	cmp	ip, r0
   39d1c:	caffff8b 	bgt	39b50 <myarm_maxpool_q7_HWC+0x34>
   39d20:	e1ddc0fe 	ldrsh	ip, [sp, #14]
   39d24:	e28cc001 	add	ip, ip, #1
   39d28:	e1cdc0be 	strh	ip, [sp, #14]
   39d2c:	e1ddc0ba 	ldrh	ip, [sp, #10]
   39d30:	e1dd00fe 	ldrsh	r0, [sp, #14]
   39d34:	e15c0000 	cmp	ip, r0
   39d38:	caffff81 	bgt	39b44 <myarm_maxpool_q7_HWC+0x28>
   39d3c:	e3a00000 	mov	r0, #0
   39d40:	e28dd020 	add	sp, sp, #32
   39d44:	e12fff1e 	bx	lr

00039d48 <myarm_relu_q7>:
   39d48:	e24dd010 	sub	sp, sp, #16
   39d4c:	e58d2004 	str	r2, [sp, #4]
   39d50:	e1cd10b8 	strh	r1, [sp, #8]
   39d54:	e58d0000 	str	r0, [sp]
   39d58:	e3a0c000 	mov	ip, #0
   39d5c:	e1cdc0ba 	strh	ip, [sp, #10]
   39d60:	ea00001b 	b	39dd4 <myarm_relu_q7+0x8c>
   39d64:	e59dc000 	ldr	ip, [sp]
   39d68:	e1dd00ba 	ldrh	r0, [sp, #10]
   39d6c:	e190c0dc 	ldrsb	ip, [r0, ip]
   39d70:	e35c007f 	cmp	ip, #127	; 0x7f
   39d74:	1a000013 	bne	39dc8 <myarm_relu_q7+0x80>
   39d78:	e59dc004 	ldr	ip, [sp, #4]
   39d7c:	e1dd00ba 	ldrh	r0, [sp, #10]
   39d80:	e190c0dc 	ldrsb	ip, [r0, ip]
   39d84:	e35c0000 	cmp	ip, #0
   39d88:	5a000002 	bpl	39d98 <myarm_relu_q7+0x50>
   39d8c:	e3a0c000 	mov	ip, #0
   39d90:	e5cdc00c 	strb	ip, [sp, #12]
   39d94:	ea000003 	b	39da8 <myarm_relu_q7+0x60>
   39d98:	e59dc004 	ldr	ip, [sp, #4]
   39d9c:	e1dd00ba 	ldrh	r0, [sp, #10]
   39da0:	e190c0dc 	ldrsb	ip, [r0, ip]
   39da4:	e5cdc00c 	strb	ip, [sp, #12]
   39da8:	e59d0000 	ldr	r0, [sp]
   39dac:	e1dd10ba 	ldrh	r1, [sp, #10]
   39db0:	e1ddc0dc 	ldrsb	ip, [sp, #12]
   39db4:	e19100d0 	ldrsb	r0, [r1, r0]
   39db8:	e15c0000 	cmp	ip, r0
   39dbc:	0a000001 	beq	39dc8 <myarm_relu_q7+0x80>
   39dc0:	e3a00001 	mov	r0, #1
   39dc4:	ea000007 	b	39de8 <myarm_relu_q7+0xa0>
   39dc8:	e1ddc0ba 	ldrh	ip, [sp, #10]
   39dcc:	e28cc001 	add	ip, ip, #1
   39dd0:	e1cdc0ba 	strh	ip, [sp, #10]
   39dd4:	e1ddc0b8 	ldrh	ip, [sp, #8]
   39dd8:	e1dd00ba 	ldrh	r0, [sp, #10]
   39ddc:	e15c0000 	cmp	ip, r0
   39de0:	caffffdf 	bgt	39d64 <myarm_relu_q7+0x1c>
   39de4:	e3a00000 	mov	r0, #0
   39de8:	e28dd010 	add	sp, sp, #16
   39dec:	e12fff1e 	bx	lr

00039df0 <myarm_softmax_q7>:
   39df0:	e92d4000 	stmfd	sp!, {lr}
   39df4:	e24dd01c 	sub	sp, sp, #28
   39df8:	e58d2004 	str	r2, [sp, #4]
   39dfc:	e1cd11b0 	strh	r1, [sp, #16]
   39e00:	e58d0000 	str	r0, [sp]
   39e04:	e3e0cc01 	mvn	ip, #256	; 0x100
   39e08:	e1cdc1b4 	strh	ip, [sp, #20]
   39e0c:	e3a0c000 	mov	ip, #0
   39e10:	e1cdc1b2 	strh	ip, [sp, #18]
   39e14:	ea00000c 	b	39e4c <myarm_softmax_q7+0x5c>
   39e18:	e59d0000 	ldr	r0, [sp]
   39e1c:	e1dd11f2 	ldrsh	r1, [sp, #18]
   39e20:	e1ddc1f4 	ldrsh	ip, [sp, #20]
   39e24:	e19100d0 	ldrsb	r0, [r1, r0]
   39e28:	e15c0000 	cmp	ip, r0
   39e2c:	aa000003 	bge	39e40 <myarm_softmax_q7+0x50>
   39e30:	e59dc000 	ldr	ip, [sp]
   39e34:	e1dd01f2 	ldrsh	r0, [sp, #18]
   39e38:	e190c0dc 	ldrsb	ip, [r0, ip]
   39e3c:	e1cdc1b4 	strh	ip, [sp, #20]
   39e40:	e1ddc1f2 	ldrsh	ip, [sp, #18]
   39e44:	e28cc001 	add	ip, ip, #1
   39e48:	e1cdc1b2 	strh	ip, [sp, #18]
   39e4c:	e1ddc1b0 	ldrh	ip, [sp, #16]
   39e50:	e1dd01f2 	ldrsh	r0, [sp, #18]
   39e54:	e15c0000 	cmp	ip, r0
   39e58:	caffffee 	bgt	39e18 <myarm_softmax_q7+0x28>
   39e5c:	e1ddc1f4 	ldrsh	ip, [sp, #20]
   39e60:	e24cc008 	sub	ip, ip, #8
   39e64:	e1cdc1b4 	strh	ip, [sp, #20]
   39e68:	e3a0c000 	mov	ip, #0
   39e6c:	e58dc008 	str	ip, [sp, #8]
   39e70:	e3a0c000 	mov	ip, #0
   39e74:	e1cdc1b2 	strh	ip, [sp, #18]
   39e78:	ea000015 	b	39ed4 <myarm_softmax_q7+0xe4>
   39e7c:	e59d0000 	ldr	r0, [sp]
   39e80:	e1dd11f2 	ldrsh	r1, [sp, #18]
   39e84:	e1ddc1f4 	ldrsh	ip, [sp, #20]
   39e88:	e19100d0 	ldrsb	r0, [r1, r0]
   39e8c:	e15c0000 	cmp	ip, r0
   39e90:	aa00000c 	bge	39ec8 <myarm_softmax_q7+0xd8>
   39e94:	e59d0000 	ldr	r0, [sp]
   39e98:	e1dd11f2 	ldrsh	r1, [sp, #18]
   39e9c:	e1ddc1f4 	ldrsh	ip, [sp, #20]
   39ea0:	e19100d0 	ldrsb	r0, [r1, r0]
   39ea4:	e3a01005 	mov	r1, #5
   39ea8:	e040000c 	sub	r0, r0, ip
   39eac:	ebfffdf8 	bl	39694 <__USAT>
   39eb0:	e5cd0016 	strb	r0, [sp, #22]
   39eb4:	e5ddc016 	ldrb	ip, [sp, #22]
   39eb8:	e3a01001 	mov	r1, #1
   39ebc:	e59d0008 	ldr	r0, [sp, #8]
   39ec0:	e080cc11 	add	ip, r0, r1, lsl ip
   39ec4:	e58dc008 	str	ip, [sp, #8]
   39ec8:	e1ddc1f2 	ldrsh	ip, [sp, #18]
   39ecc:	e28cc001 	add	ip, ip, #1
   39ed0:	e1cdc1b2 	strh	ip, [sp, #18]
   39ed4:	e1ddc1b0 	ldrh	ip, [sp, #16]
   39ed8:	e1dd01f2 	ldrsh	r0, [sp, #18]
   39edc:	e15c0000 	cmp	ip, r0
   39ee0:	caffffe5 	bgt	39e7c <myarm_softmax_q7+0x8c>
   39ee4:	e59d1008 	ldr	r1, [sp, #8]
   39ee8:	e3a00601 	mov	r0, #1048576	; 0x100000
   39eec:	eb00283a 	bl	43fdc <__aeabi_idiv>
   39ef0:	e58d000c 	str	r0, [sp, #12]
   39ef4:	e3a0c000 	mov	ip, #0
   39ef8:	e1cdc1b2 	strh	ip, [sp, #18]
   39efc:	ea000026 	b	39f9c <myarm_softmax_q7+0x1ac>
   39f00:	e59dc004 	ldr	ip, [sp, #4]
   39f04:	e1dd01f2 	ldrsh	r0, [sp, #18]
   39f08:	e190c0dc 	ldrsb	ip, [r0, ip]
   39f0c:	e35c007f 	cmp	ip, #127	; 0x7f
   39f10:	1a00001e 	bne	39f90 <myarm_softmax_q7+0x1a0>
   39f14:	e59d0000 	ldr	r0, [sp]
   39f18:	e1dd11f2 	ldrsh	r1, [sp, #18]
   39f1c:	e1ddc1f4 	ldrsh	ip, [sp, #20]
   39f20:	e19100d0 	ldrsb	r0, [r1, r0]
   39f24:	e15c0000 	cmp	ip, r0
   39f28:	aa00000f 	bge	39f6c <myarm_softmax_q7+0x17c>
   39f2c:	e59dc000 	ldr	ip, [sp]
   39f30:	e1dd01f2 	ldrsh	r0, [sp, #18]
   39f34:	e1dd11f4 	ldrsh	r1, [sp, #20]
   39f38:	e190c0dc 	ldrsb	ip, [r0, ip]
   39f3c:	e041c00c 	sub	ip, r1, ip
   39f40:	e3a01005 	mov	r1, #5
   39f44:	e28c000d 	add	r0, ip, #13
   39f48:	ebfffdd1 	bl	39694 <__USAT>
   39f4c:	e5cd0016 	strb	r0, [sp, #22]
   39f50:	e59d000c 	ldr	r0, [sp, #12]
   39f54:	e5ddc016 	ldrb	ip, [sp, #22]
   39f58:	e3a01008 	mov	r1, #8
   39f5c:	e1a00c50 	asr	r0, r0, ip
   39f60:	ebfffde4 	bl	396f8 <__SSAT>
   39f64:	e5cd0018 	strb	r0, [sp, #24]
   39f68:	ea000001 	b	39f74 <myarm_softmax_q7+0x184>
   39f6c:	e3a0c000 	mov	ip, #0
   39f70:	e5cdc018 	strb	ip, [sp, #24]
   39f74:	e59dc004 	ldr	ip, [sp, #4]
   39f78:	e1dd01f2 	ldrsh	r0, [sp, #18]
   39f7c:	e190c0dc 	ldrsb	ip, [r0, ip]
   39f80:	e35c007f 	cmp	ip, #127	; 0x7f
   39f84:	0a000001 	beq	39f90 <myarm_softmax_q7+0x1a0>
   39f88:	e3a00001 	mov	r0, #1
   39f8c:	ea000007 	b	39fb0 <myarm_softmax_q7+0x1c0>
   39f90:	e1ddc1f2 	ldrsh	ip, [sp, #18]
   39f94:	e28cc001 	add	ip, ip, #1
   39f98:	e1cdc1b2 	strh	ip, [sp, #18]
   39f9c:	e1ddc1b0 	ldrh	ip, [sp, #16]
   39fa0:	e1dd01f2 	ldrsh	r0, [sp, #18]
   39fa4:	e15c0000 	cmp	ip, r0
   39fa8:	caffffd4 	bgt	39f00 <myarm_softmax_q7+0x110>
   39fac:	e3a00000 	mov	r0, #0
   39fb0:	e28dd01c 	add	sp, sp, #28
   39fb4:	e8bd8000 	ldmfd	sp!, {pc}

00039fb8 <myarm_convolve_HWC_q7_sdwc>:
   39fb8:	e92d4000 	stmfd	sp!, {lr}
   39fbc:	e24dd02c 	sub	sp, sp, #44	; 0x2c
   39fc0:	e58d3004 	str	r3, [sp, #4]
   39fc4:	e1cd21b2 	strh	r2, [sp, #18]
   39fc8:	e1cd11b0 	strh	r1, [sp, #16]
   39fcc:	e58d0000 	str	r0, [sp]
   39fd0:	e1ddc3b2 	ldrh	ip, [sp, #50]	; 0x32
   39fd4:	e1dd05b2 	ldrh	r0, [sp, #82]	; 0x52
   39fd8:	e1dd15b2 	ldrh	r1, [sp, #82]	; 0x52
   39fdc:	e00c0c90 	mul	ip, r0, ip
   39fe0:	e00c0c91 	mul	ip, r1, ip
   39fe4:	e58dc00c 	str	ip, [sp, #12]
   39fe8:	e59d004c 	ldr	r0, [sp, #76]	; 0x4c
   39fec:	e59d100c 	ldr	r1, [sp, #12]
   39ff0:	eb000297 	bl	3aa54 <nor_dis_q7>
   39ff4:	e59fce7c 	ldr	ip, [pc, #3708]	; 3ae78 <handle_nn+0x284>
   39ff8:	e5cc0000 	strb	r0, [ip]
   39ffc:	e59fce74 	ldr	ip, [pc, #3700]	; 3ae78 <handle_nn+0x284>
   3a000:	e59f0e74 	ldr	r0, [pc, #3700]	; 3ae7c <handle_nn+0x288>
   3a004:	e1dcc0d0 	ldrsb	ip, [ip]
   3a008:	e26cc000 	rsb	ip, ip, #0
   3a00c:	e5c0c000 	strb	ip, [r0]
   3a010:	e3a0c000 	mov	ip, #0
   3a014:	e1cdc1b4 	strh	ip, [sp, #20]
   3a018:	ea00009c 	b	3a290 <myarm_convolve_HWC_q7_sdwc+0x2d8>
   3a01c:	e3a0c000 	mov	ip, #0
   3a020:	e1cdc1b6 	strh	ip, [sp, #22]
   3a024:	ea000092 	b	3a274 <myarm_convolve_HWC_q7_sdwc+0x2bc>
   3a028:	e3a0c000 	mov	ip, #0
   3a02c:	e1cdc1b8 	strh	ip, [sp, #24]
   3a030:	ea000088 	b	3a258 <myarm_convolve_HWC_q7_sdwc+0x2a0>
   3a034:	e1dd01b6 	ldrh	r0, [sp, #22]
   3a038:	e1dd15b2 	ldrh	r1, [sp, #82]	; 0x52
   3a03c:	e1ddc1b8 	ldrh	ip, [sp, #24]
   3a040:	e1dd23b2 	ldrh	r2, [sp, #50]	; 0x32
   3a044:	e020c091 	mla	r0, r1, r0, ip
   3a048:	e1ddc1b4 	ldrh	ip, [sp, #20]
   3a04c:	e02cc092 	mla	ip, r2, r0, ip
   3a050:	e58dc024 	str	ip, [sp, #36]	; 0x24
   3a054:	e59fce1c 	ldr	ip, [pc, #3612]	; 3ae78 <handle_nn+0x284>
   3a058:	e59d004c 	ldr	r0, [sp, #76]	; 0x4c
   3a05c:	e59d1024 	ldr	r1, [sp, #36]	; 0x24
   3a060:	e1dcc0d0 	ldrsb	ip, [ip]
   3a064:	e19100d0 	ldrsb	r0, [r1, r0]
   3a068:	e15c0000 	cmp	ip, r0
   3a06c:	da000006 	ble	3a08c <myarm_convolve_HWC_q7_sdwc+0xd4>
   3a070:	e59fce04 	ldr	ip, [pc, #3588]	; 3ae7c <handle_nn+0x288>
   3a074:	e59d004c 	ldr	r0, [sp, #76]	; 0x4c
   3a078:	e59d1024 	ldr	r1, [sp, #36]	; 0x24
   3a07c:	e1dcc0d0 	ldrsb	ip, [ip]
   3a080:	e19100d0 	ldrsb	r0, [r1, r0]
   3a084:	e15c0000 	cmp	ip, r0
   3a088:	ba00006f 	blt	3a24c <myarm_convolve_HWC_q7_sdwc+0x294>
   3a08c:	e59d0040 	ldr	r0, [sp, #64]	; 0x40
   3a090:	e1dd11b4 	ldrh	r1, [sp, #20]
   3a094:	e1dd24ba 	ldrh	r2, [sp, #74]	; 0x4a
   3a098:	e1ddc4b6 	ldrh	ip, [sp, #70]	; 0x46
   3a09c:	e3a03001 	mov	r3, #1
   3a0a0:	e19100d0 	ldrsb	r0, [r1, r0]
   3a0a4:	e1a01213 	lsl	r1, r3, r2
   3a0a8:	e1a010a1 	lsr	r1, r1, #1
   3a0ac:	e081cc10 	add	ip, r1, r0, lsl ip
   3a0b0:	e58dc008 	str	ip, [sp, #8]
   3a0b4:	e3a0c000 	mov	ip, #0
   3a0b8:	e1cdc1bc 	strh	ip, [sp, #28]
   3a0bc:	ea000051 	b	3a208 <myarm_convolve_HWC_q7_sdwc+0x250>
   3a0c0:	e3a0c000 	mov	ip, #0
   3a0c4:	e1cdc1be 	strh	ip, [sp, #30]
   3a0c8:	ea000047 	b	3a1ec <myarm_convolve_HWC_q7_sdwc+0x234>
   3a0cc:	e1dd13be 	ldrh	r1, [sp, #62]	; 0x3e
   3a0d0:	e1dd21b6 	ldrh	r2, [sp, #22]
   3a0d4:	e1dd01bc 	ldrh	r0, [sp, #28]
   3a0d8:	e1ddc3ba 	ldrh	ip, [sp, #58]	; 0x3a
   3a0dc:	e0200192 	mla	r0, r2, r1, r0
   3a0e0:	e040c00c 	sub	ip, r0, ip
   3a0e4:	e5cdc020 	strb	ip, [sp, #32]
   3a0e8:	e1dd13be 	ldrh	r1, [sp, #62]	; 0x3e
   3a0ec:	e1dd21b8 	ldrh	r2, [sp, #24]
   3a0f0:	e1dd01be 	ldrh	r0, [sp, #30]
   3a0f4:	e1ddc3ba 	ldrh	ip, [sp, #58]	; 0x3a
   3a0f8:	e0200192 	mla	r0, r2, r1, r0
   3a0fc:	e040c00c 	sub	ip, r0, ip
   3a100:	e5cdc021 	strb	ip, [sp, #33]	; 0x21
   3a104:	e1ddc2d0 	ldrsb	ip, [sp, #32]
   3a108:	e35c0000 	cmp	ip, #0
   3a10c:	4a000033 	bmi	3a1e0 <myarm_convolve_HWC_q7_sdwc+0x228>
   3a110:	e1ddc2d1 	ldrsb	ip, [sp, #33]	; 0x21
   3a114:	e35c0000 	cmp	ip, #0
   3a118:	4a000030 	bmi	3a1e0 <myarm_convolve_HWC_q7_sdwc+0x228>
   3a11c:	e1ddc1b0 	ldrh	ip, [sp, #16]
   3a120:	e1dd02d0 	ldrsb	r0, [sp, #32]
   3a124:	e15c0000 	cmp	ip, r0
   3a128:	da00002c 	ble	3a1e0 <myarm_convolve_HWC_q7_sdwc+0x228>
   3a12c:	e1ddc1b0 	ldrh	ip, [sp, #16]
   3a130:	e1dd02d1 	ldrsb	r0, [sp, #33]	; 0x21
   3a134:	e15c0000 	cmp	ip, r0
   3a138:	da000028 	ble	3a1e0 <myarm_convolve_HWC_q7_sdwc+0x228>
   3a13c:	e3a0c000 	mov	ip, #0
   3a140:	e1cdc1ba 	strh	ip, [sp, #26]
   3a144:	ea000021 	b	3a1d0 <myarm_convolve_HWC_q7_sdwc+0x218>
   3a148:	e1dd02d0 	ldrsb	r0, [sp, #32]
   3a14c:	e1dd11b0 	ldrh	r1, [sp, #16]
   3a150:	e1ddc2d1 	ldrsb	ip, [sp, #33]	; 0x21
   3a154:	e1dd21b2 	ldrh	r2, [sp, #18]
   3a158:	e59d3000 	ldr	r3, [sp]
   3a15c:	e020c091 	mla	r0, r1, r0, ip
   3a160:	e1ddc1ba 	ldrh	ip, [sp, #26]
   3a164:	e02cc092 	mla	ip, r2, r0, ip
   3a168:	e193c0dc 	ldrsb	ip, [r3, ip]
   3a16c:	e5cdc028 	strb	ip, [sp, #40]	; 0x28
   3a170:	e1dd21b4 	ldrh	r2, [sp, #20]
   3a174:	e1dd31b2 	ldrh	r3, [sp, #18]
   3a178:	e1dd01bc 	ldrh	r0, [sp, #28]
   3a17c:	e1dd13b6 	ldrh	r1, [sp, #54]	; 0x36
   3a180:	e1ddc1be 	ldrh	ip, [sp, #30]
   3a184:	e1dde3b6 	ldrh	lr, [sp, #54]	; 0x36
   3a188:	e0030392 	mul	r3, r2, r3
   3a18c:	e02cc091 	mla	ip, r1, r0, ip
   3a190:	e1dd21b2 	ldrh	r2, [sp, #18]
   3a194:	e1dd03b6 	ldrh	r0, [sp, #54]	; 0x36
   3a198:	e001039e 	mul	r1, lr, r3
   3a19c:	e00c0c92 	mul	ip, r2, ip
   3a1a0:	e1dd31ba 	ldrh	r3, [sp, #26]
   3a1a4:	e59de004 	ldr	lr, [sp, #4]
   3a1a8:	e02cc190 	mla	ip, r0, r1, ip
   3a1ac:	e083000c 	add	r0, r3, ip
   3a1b0:	e1ddc2d8 	ldrsb	ip, [sp, #40]	; 0x28
   3a1b4:	e19e10d0 	ldrsb	r1, [lr, r0]
   3a1b8:	e59d0008 	ldr	r0, [sp, #8]
   3a1bc:	e10c0c81 	smlabb	ip, r1, ip, r0
   3a1c0:	e58dc008 	str	ip, [sp, #8]
   3a1c4:	e1ddc1ba 	ldrh	ip, [sp, #26]
   3a1c8:	e28cc001 	add	ip, ip, #1
   3a1cc:	e1cdc1ba 	strh	ip, [sp, #26]
   3a1d0:	e1ddc1b2 	ldrh	ip, [sp, #18]
   3a1d4:	e1dd01ba 	ldrh	r0, [sp, #26]
   3a1d8:	e15c0000 	cmp	ip, r0
   3a1dc:	caffffd9 	bgt	3a148 <myarm_convolve_HWC_q7_sdwc+0x190>
   3a1e0:	e1ddc1be 	ldrh	ip, [sp, #30]
   3a1e4:	e28cc001 	add	ip, ip, #1
   3a1e8:	e1cdc1be 	strh	ip, [sp, #30]
   3a1ec:	e1ddc3b6 	ldrh	ip, [sp, #54]	; 0x36
   3a1f0:	e1dd01be 	ldrh	r0, [sp, #30]
   3a1f4:	e15c0000 	cmp	ip, r0
   3a1f8:	caffffb3 	bgt	3a0cc <myarm_convolve_HWC_q7_sdwc+0x114>
   3a1fc:	e1ddc1bc 	ldrh	ip, [sp, #28]
   3a200:	e28cc001 	add	ip, ip, #1
   3a204:	e1cdc1bc 	strh	ip, [sp, #28]
   3a208:	e1ddc3b6 	ldrh	ip, [sp, #54]	; 0x36
   3a20c:	e1dd01bc 	ldrh	r0, [sp, #28]
   3a210:	e15c0000 	cmp	ip, r0
   3a214:	caffffa9 	bgt	3a0c0 <myarm_convolve_HWC_q7_sdwc+0x108>
   3a218:	e1ddc4ba 	ldrh	ip, [sp, #74]	; 0x4a
   3a21c:	e59d0008 	ldr	r0, [sp, #8]
   3a220:	e3a01008 	mov	r1, #8
   3a224:	e1a00c50 	asr	r0, r0, ip
   3a228:	ebfffd32 	bl	396f8 <__SSAT>
   3a22c:	e59dc04c 	ldr	ip, [sp, #76]	; 0x4c
   3a230:	e59d1024 	ldr	r1, [sp, #36]	; 0x24
   3a234:	e191c0dc 	ldrsb	ip, [r1, ip]
   3a238:	e6af0070 	sxtb	r0, r0
   3a23c:	e150000c 	cmp	r0, ip
   3a240:	0a000001 	beq	3a24c <myarm_convolve_HWC_q7_sdwc+0x294>
   3a244:	e3e00000 	mvn	r0, #0
   3a248:	ea000015 	b	3a2a4 <myarm_convolve_HWC_q7_sdwc+0x2ec>
   3a24c:	e1ddc1b8 	ldrh	ip, [sp, #24]
   3a250:	e28cc001 	add	ip, ip, #1
   3a254:	e1cdc1b8 	strh	ip, [sp, #24]
   3a258:	e1ddc5b2 	ldrh	ip, [sp, #82]	; 0x52
   3a25c:	e1dd01b8 	ldrh	r0, [sp, #24]
   3a260:	e15c0000 	cmp	ip, r0
   3a264:	caffff72 	bgt	3a034 <myarm_convolve_HWC_q7_sdwc+0x7c>
   3a268:	e1ddc1b6 	ldrh	ip, [sp, #22]
   3a26c:	e28cc001 	add	ip, ip, #1
   3a270:	e1cdc1b6 	strh	ip, [sp, #22]
   3a274:	e1ddc5b2 	ldrh	ip, [sp, #82]	; 0x52
   3a278:	e1dd01b6 	ldrh	r0, [sp, #22]
   3a27c:	e15c0000 	cmp	ip, r0
   3a280:	caffff68 	bgt	3a028 <myarm_convolve_HWC_q7_sdwc+0x70>
   3a284:	e1ddc1b4 	ldrh	ip, [sp, #20]
   3a288:	e28cc001 	add	ip, ip, #1
   3a28c:	e1cdc1b4 	strh	ip, [sp, #20]
   3a290:	e1ddc3b2 	ldrh	ip, [sp, #50]	; 0x32
   3a294:	e1dd01b4 	ldrh	r0, [sp, #20]
   3a298:	e15c0000 	cmp	ip, r0
   3a29c:	caffff5e 	bgt	3a01c <myarm_convolve_HWC_q7_sdwc+0x64>
   3a2a0:	e3a00000 	mov	r0, #0
   3a2a4:	e28dd02c 	add	sp, sp, #44	; 0x2c
   3a2a8:	e8bd8000 	ldmfd	sp!, {pc}

0003a2ac <myarm_fully_connected_q7_sdwc>:
   3a2ac:	e92d4000 	stmfd	sp!, {lr}
   3a2b0:	e24dd024 	sub	sp, sp, #36	; 0x24
   3a2b4:	e1cd31b6 	strh	r3, [sp, #22]
   3a2b8:	e1cd21b4 	strh	r2, [sp, #20]
   3a2bc:	e58d1004 	str	r1, [sp, #4]
   3a2c0:	e58d0000 	str	r0, [sp]
   3a2c4:	e1ddc1b6 	ldrh	ip, [sp, #22]
   3a2c8:	e58dc010 	str	ip, [sp, #16]
   3a2cc:	e59d0034 	ldr	r0, [sp, #52]	; 0x34
   3a2d0:	e59d1010 	ldr	r1, [sp, #16]
   3a2d4:	eb0001de 	bl	3aa54 <nor_dis_q7>
   3a2d8:	e59fcb98 	ldr	ip, [pc, #2968]	; 3ae78 <handle_nn+0x284>
   3a2dc:	e5cc0000 	strb	r0, [ip]
   3a2e0:	e59fcb90 	ldr	ip, [pc, #2960]	; 3ae78 <handle_nn+0x284>
   3a2e4:	e59f0b90 	ldr	r0, [pc, #2960]	; 3ae7c <handle_nn+0x288>
   3a2e8:	e1dcc0d0 	ldrsb	ip, [ip]
   3a2ec:	e26cc000 	rsb	ip, ip, #0
   3a2f0:	e5c0c000 	strb	ip, [r0]
   3a2f4:	e3a0c000 	mov	ip, #0
   3a2f8:	e58dc008 	str	ip, [sp, #8]
   3a2fc:	e1ddc1b6 	ldrh	ip, [sp, #22]
   3a300:	e59d0008 	ldr	r0, [sp, #8]
   3a304:	e15c0000 	cmp	ip, r0
   3a308:	da000049 	ble	3a434 <myarm_fully_connected_q7_sdwc+0x188>
   3a30c:	e59dc03c 	ldr	ip, [sp, #60]	; 0x3c
   3a310:	e35c0000 	cmp	ip, #0
   3a314:	1a00000d 	bne	3a350 <myarm_fully_connected_q7_sdwc+0xa4>
   3a318:	e59fcb58 	ldr	ip, [pc, #2904]	; 3ae78 <handle_nn+0x284>
   3a31c:	e59d0034 	ldr	r0, [sp, #52]	; 0x34
   3a320:	e59d1008 	ldr	r1, [sp, #8]
   3a324:	e1dcc0d0 	ldrsb	ip, [ip]
   3a328:	e19100d0 	ldrsb	r0, [r1, r0]
   3a32c:	e15c0000 	cmp	ip, r0
   3a330:	da000006 	ble	3a350 <myarm_fully_connected_q7_sdwc+0xa4>
   3a334:	e59fcb40 	ldr	ip, [pc, #2880]	; 3ae7c <handle_nn+0x288>
   3a338:	e59d0034 	ldr	r0, [sp, #52]	; 0x34
   3a33c:	e59d1008 	ldr	r1, [sp, #8]
   3a340:	e1dcc0d0 	ldrsb	ip, [ip]
   3a344:	e19100d0 	ldrsb	r0, [r1, r0]
   3a348:	e15c0000 	cmp	ip, r0
   3a34c:	ba000031 	blt	3a418 <myarm_fully_connected_q7_sdwc+0x16c>
   3a350:	e59d0030 	ldr	r0, [sp, #48]	; 0x30
   3a354:	e59d1008 	ldr	r1, [sp, #8]
   3a358:	e1dd22be 	ldrh	r2, [sp, #46]	; 0x2e
   3a35c:	e1ddc2ba 	ldrh	ip, [sp, #42]	; 0x2a
   3a360:	e3a03001 	mov	r3, #1
   3a364:	e19100d0 	ldrsb	r0, [r1, r0]
   3a368:	e1a01213 	lsl	r1, r3, r2
   3a36c:	e1a010a1 	lsr	r1, r1, #1
   3a370:	e081cc10 	add	ip, r1, r0, lsl ip
   3a374:	e58dc018 	str	ip, [sp, #24]
   3a378:	e3a0c000 	mov	ip, #0
   3a37c:	e58dc00c 	str	ip, [sp, #12]
   3a380:	e1ddc1b4 	ldrh	ip, [sp, #20]
   3a384:	e59d000c 	ldr	r0, [sp, #12]
   3a388:	e15c0000 	cmp	ip, r0
   3a38c:	da000014 	ble	3a3e4 <myarm_fully_connected_q7_sdwc+0x138>
   3a390:	e59dc000 	ldr	ip, [sp]
   3a394:	e59d000c 	ldr	r0, [sp, #12]
   3a398:	e190c0dc 	ldrsb	ip, [r0, ip]
   3a39c:	e5cdc01c 	strb	ip, [sp, #28]
   3a3a0:	e1dd11b4 	ldrh	r1, [sp, #20]
   3a3a4:	e59d0008 	ldr	r0, [sp, #8]
   3a3a8:	e59d2004 	ldr	r2, [sp, #4]
   3a3ac:	e59dc00c 	ldr	ip, [sp, #12]
   3a3b0:	e020c091 	mla	r0, r1, r0, ip
   3a3b4:	e1ddc1dc 	ldrsb	ip, [sp, #28]
   3a3b8:	e19210d0 	ldrsb	r1, [r2, r0]
   3a3bc:	e59d0018 	ldr	r0, [sp, #24]
   3a3c0:	e10c0c81 	smlabb	ip, r1, ip, r0
   3a3c4:	e58dc018 	str	ip, [sp, #24]
   3a3c8:	e59dc00c 	ldr	ip, [sp, #12]
   3a3cc:	e28cc001 	add	ip, ip, #1
   3a3d0:	e58dc00c 	str	ip, [sp, #12]
   3a3d4:	e1ddc1b4 	ldrh	ip, [sp, #20]
   3a3d8:	e59d000c 	ldr	r0, [sp, #12]
   3a3dc:	e15c0000 	cmp	ip, r0
   3a3e0:	caffffea 	bgt	3a390 <myarm_fully_connected_q7_sdwc+0xe4>
   3a3e4:	e1ddc2be 	ldrh	ip, [sp, #46]	; 0x2e
   3a3e8:	e59d0018 	ldr	r0, [sp, #24]
   3a3ec:	e3a01008 	mov	r1, #8
   3a3f0:	e1a00c50 	asr	r0, r0, ip
   3a3f4:	ebfffcbf 	bl	396f8 <__SSAT>
   3a3f8:	e59dc034 	ldr	ip, [sp, #52]	; 0x34
   3a3fc:	e59d1008 	ldr	r1, [sp, #8]
   3a400:	e191c0dc 	ldrsb	ip, [r1, ip]
   3a404:	e6af0070 	sxtb	r0, r0
   3a408:	e150000c 	cmp	r0, ip
   3a40c:	0a000001 	beq	3a418 <myarm_fully_connected_q7_sdwc+0x16c>
   3a410:	e3e00000 	mvn	r0, #0
   3a414:	ea000007 	b	3a438 <myarm_fully_connected_q7_sdwc+0x18c>
   3a418:	e59dc008 	ldr	ip, [sp, #8]
   3a41c:	e28cc001 	add	ip, ip, #1
   3a420:	e58dc008 	str	ip, [sp, #8]
   3a424:	e1ddc1b6 	ldrh	ip, [sp, #22]
   3a428:	e59d0008 	ldr	r0, [sp, #8]
   3a42c:	e15c0000 	cmp	ip, r0
   3a430:	caffffb5 	bgt	3a30c <myarm_fully_connected_q7_sdwc+0x60>
   3a434:	e3a00000 	mov	r0, #0
   3a438:	e28dd024 	add	sp, sp, #36	; 0x24
   3a43c:	e8bd8000 	ldmfd	sp!, {pc}

0003a440 <myarm_maxpool_q7_HWC_sdwc>:
   3a440:	e24dd020 	sub	sp, sp, #32
   3a444:	e1cd30b8 	strh	r3, [sp, #8]
   3a448:	e1cd20b6 	strh	r2, [sp, #6]
   3a44c:	e1cd10b4 	strh	r1, [sp, #4]
   3a450:	e58d0000 	str	r0, [sp]
   3a454:	e3a0c000 	mov	ip, #0
   3a458:	e1cdc0ba 	strh	ip, [sp, #10]
   3a45c:	ea00007a 	b	3a64c <myarm_maxpool_q7_HWC_sdwc+0x20c>
   3a460:	e3a0c000 	mov	ip, #0
   3a464:	e1cdc0be 	strh	ip, [sp, #14]
   3a468:	ea000070 	b	3a630 <myarm_maxpool_q7_HWC_sdwc+0x1f0>
   3a46c:	e3a0c000 	mov	ip, #0
   3a470:	e1cdc0bc 	strh	ip, [sp, #12]
   3a474:	ea000066 	b	3a614 <myarm_maxpool_q7_HWC_sdwc+0x1d4>
   3a478:	e1dd10fe 	ldrsh	r1, [sp, #14]
   3a47c:	e1dd22ba 	ldrh	r2, [sp, #42]	; 0x2a
   3a480:	e1dd00fc 	ldrsh	r0, [sp, #12]
   3a484:	e1ddc0b6 	ldrh	ip, [sp, #6]
   3a488:	e0210192 	mla	r1, r2, r1, r0
   3a48c:	e1dd00fa 	ldrsh	r0, [sp, #10]
   3a490:	e02c0c91 	mla	ip, r1, ip, r0
   3a494:	e58dc014 	str	ip, [sp, #20]
   3a498:	e59fc9d8 	ldr	ip, [pc, #2520]	; 3ae78 <handle_nn+0x284>
   3a49c:	e59d0030 	ldr	r0, [sp, #48]	; 0x30
   3a4a0:	e59d1014 	ldr	r1, [sp, #20]
   3a4a4:	e1dcc0d0 	ldrsb	ip, [ip]
   3a4a8:	e19100d0 	ldrsb	r0, [r1, r0]
   3a4ac:	e15c0000 	cmp	ip, r0
   3a4b0:	da000004 	ble	3a4c8 <myarm_maxpool_q7_HWC_sdwc+0x88>
   3a4b4:	e59dc030 	ldr	ip, [sp, #48]	; 0x30
   3a4b8:	e59d0014 	ldr	r0, [sp, #20]
   3a4bc:	e190c0dc 	ldrsb	ip, [r0, ip]
   3a4c0:	e35c0000 	cmp	ip, #0
   3a4c4:	5a00004f 	bpl	3a608 <myarm_maxpool_q7_HWC_sdwc+0x1c8>
   3a4c8:	e3e0c080 	mvn	ip, #128	; 0x80
   3a4cc:	e58dc018 	str	ip, [sp, #24]
   3a4d0:	e1dd00fe 	ldrsh	r0, [sp, #14]
   3a4d4:	e1dd12b6 	ldrh	r1, [sp, #38]	; 0x26
   3a4d8:	e1ddc2b2 	ldrh	ip, [sp, #34]	; 0x22
   3a4dc:	e0000091 	mul	r0, r1, r0
   3a4e0:	e040c00c 	sub	ip, r0, ip
   3a4e4:	e1cdc1b2 	strh	ip, [sp, #18]
   3a4e8:	ea000034 	b	3a5c0 <myarm_maxpool_q7_HWC_sdwc+0x180>
   3a4ec:	e1dd00fc 	ldrsh	r0, [sp, #12]
   3a4f0:	e1dd12b6 	ldrh	r1, [sp, #38]	; 0x26
   3a4f4:	e1ddc2b2 	ldrh	ip, [sp, #34]	; 0x22
   3a4f8:	e0000091 	mul	r0, r1, r0
   3a4fc:	e040c00c 	sub	ip, r0, ip
   3a500:	e1cdc1b0 	strh	ip, [sp, #16]
   3a504:	ea000020 	b	3a58c <myarm_maxpool_q7_HWC_sdwc+0x14c>
   3a508:	e1ddc1f2 	ldrsh	ip, [sp, #18]
   3a50c:	e35c0000 	cmp	ip, #0
   3a510:	4a00001a 	bmi	3a580 <myarm_maxpool_q7_HWC_sdwc+0x140>
   3a514:	e1ddc1f0 	ldrsh	ip, [sp, #16]
   3a518:	e35c0000 	cmp	ip, #0
   3a51c:	4a000017 	bmi	3a580 <myarm_maxpool_q7_HWC_sdwc+0x140>
   3a520:	e1ddc0b4 	ldrh	ip, [sp, #4]
   3a524:	e1dd01f2 	ldrsh	r0, [sp, #18]
   3a528:	e15c0000 	cmp	ip, r0
   3a52c:	da000013 	ble	3a580 <myarm_maxpool_q7_HWC_sdwc+0x140>
   3a530:	e1ddc0b4 	ldrh	ip, [sp, #4]
   3a534:	e1dd01f0 	ldrsh	r0, [sp, #16]
   3a538:	e15c0000 	cmp	ip, r0
   3a53c:	da00000f 	ble	3a580 <myarm_maxpool_q7_HWC_sdwc+0x140>
   3a540:	e1dd11f2 	ldrsh	r1, [sp, #18]
   3a544:	e1dd20b4 	ldrh	r2, [sp, #4]
   3a548:	e1dd01f0 	ldrsh	r0, [sp, #16]
   3a54c:	e1ddc0b6 	ldrh	ip, [sp, #6]
   3a550:	e59d3000 	ldr	r3, [sp]
   3a554:	e0210192 	mla	r1, r2, r1, r0
   3a558:	e1dd00fa 	ldrsh	r0, [sp, #10]
   3a55c:	e02c0c91 	mla	ip, r1, ip, r0
   3a560:	e193c0dc 	ldrsb	ip, [r3, ip]
   3a564:	e5cdc01c 	strb	ip, [sp, #28]
   3a568:	e59dc018 	ldr	ip, [sp, #24]
   3a56c:	e1dd01dc 	ldrsb	r0, [sp, #28]
   3a570:	e15c0000 	cmp	ip, r0
   3a574:	aa000001 	bge	3a580 <myarm_maxpool_q7_HWC_sdwc+0x140>
   3a578:	e1ddc1dc 	ldrsb	ip, [sp, #28]
   3a57c:	e58dc018 	str	ip, [sp, #24]
   3a580:	e1ddc1f0 	ldrsh	ip, [sp, #16]
   3a584:	e28cc001 	add	ip, ip, #1
   3a588:	e1cdc1b0 	strh	ip, [sp, #16]
   3a58c:	e1dd00fc 	ldrsh	r0, [sp, #12]
   3a590:	e1dd12b6 	ldrh	r1, [sp, #38]	; 0x26
   3a594:	e1ddc2b2 	ldrh	ip, [sp, #34]	; 0x22
   3a598:	e0000091 	mul	r0, r1, r0
   3a59c:	e1dd10b8 	ldrh	r1, [sp, #8]
   3a5a0:	e1dd21f0 	ldrsh	r2, [sp, #16]
   3a5a4:	e040c00c 	sub	ip, r0, ip
   3a5a8:	e081c00c 	add	ip, r1, ip
   3a5ac:	e15c0002 	cmp	ip, r2
   3a5b0:	caffffd4 	bgt	3a508 <myarm_maxpool_q7_HWC_sdwc+0xc8>
   3a5b4:	e1ddc1f2 	ldrsh	ip, [sp, #18]
   3a5b8:	e28cc001 	add	ip, ip, #1
   3a5bc:	e1cdc1b2 	strh	ip, [sp, #18]
   3a5c0:	e1dd00fe 	ldrsh	r0, [sp, #14]
   3a5c4:	e1dd12b6 	ldrh	r1, [sp, #38]	; 0x26
   3a5c8:	e1ddc2b2 	ldrh	ip, [sp, #34]	; 0x22
   3a5cc:	e0000091 	mul	r0, r1, r0
   3a5d0:	e1dd10b8 	ldrh	r1, [sp, #8]
   3a5d4:	e1dd21f2 	ldrsh	r2, [sp, #18]
   3a5d8:	e040c00c 	sub	ip, r0, ip
   3a5dc:	e081c00c 	add	ip, r1, ip
   3a5e0:	e15c0002 	cmp	ip, r2
   3a5e4:	caffffc0 	bgt	3a4ec <myarm_maxpool_q7_HWC_sdwc+0xac>
   3a5e8:	e59d0030 	ldr	r0, [sp, #48]	; 0x30
   3a5ec:	e59d1014 	ldr	r1, [sp, #20]
   3a5f0:	e59dc018 	ldr	ip, [sp, #24]
   3a5f4:	e19100d0 	ldrsb	r0, [r1, r0]
   3a5f8:	e15c0000 	cmp	ip, r0
   3a5fc:	0a000001 	beq	3a608 <myarm_maxpool_q7_HWC_sdwc+0x1c8>
   3a600:	e3e00000 	mvn	r0, #0
   3a604:	ea000015 	b	3a660 <myarm_maxpool_q7_HWC_sdwc+0x220>
   3a608:	e1ddc0fc 	ldrsh	ip, [sp, #12]
   3a60c:	e28cc001 	add	ip, ip, #1
   3a610:	e1cdc0bc 	strh	ip, [sp, #12]
   3a614:	e1ddc2ba 	ldrh	ip, [sp, #42]	; 0x2a
   3a618:	e1dd00fc 	ldrsh	r0, [sp, #12]
   3a61c:	e15c0000 	cmp	ip, r0
   3a620:	caffff94 	bgt	3a478 <myarm_maxpool_q7_HWC_sdwc+0x38>
   3a624:	e1ddc0fe 	ldrsh	ip, [sp, #14]
   3a628:	e28cc001 	add	ip, ip, #1
   3a62c:	e1cdc0be 	strh	ip, [sp, #14]
   3a630:	e1ddc2ba 	ldrh	ip, [sp, #42]	; 0x2a
   3a634:	e1dd00fe 	ldrsh	r0, [sp, #14]
   3a638:	e15c0000 	cmp	ip, r0
   3a63c:	caffff8a 	bgt	3a46c <myarm_maxpool_q7_HWC_sdwc+0x2c>
   3a640:	e1ddc0fa 	ldrsh	ip, [sp, #10]
   3a644:	e28cc001 	add	ip, ip, #1
   3a648:	e1cdc0ba 	strh	ip, [sp, #10]
   3a64c:	e1ddc0b6 	ldrh	ip, [sp, #6]
   3a650:	e1dd00fa 	ldrsh	r0, [sp, #10]
   3a654:	e15c0000 	cmp	ip, r0
   3a658:	caffff80 	bgt	3a460 <myarm_maxpool_q7_HWC_sdwc+0x20>
   3a65c:	e3a00000 	mov	r0, #0
   3a660:	e28dd020 	add	sp, sp, #32
   3a664:	e12fff1e 	bx	lr

0003a668 <myarm_relu_q7_sdwc>:
   3a668:	e24dd010 	sub	sp, sp, #16
   3a66c:	e58d2004 	str	r2, [sp, #4]
   3a670:	e1cd10b8 	strh	r1, [sp, #8]
   3a674:	e58d0000 	str	r0, [sp]
   3a678:	e3a0c000 	mov	ip, #0
   3a67c:	e1cdc0ba 	strh	ip, [sp, #10]
   3a680:	ea00001f 	b	3a704 <myarm_relu_q7_sdwc+0x9c>
   3a684:	e59fc7ec 	ldr	ip, [pc, #2028]	; 3ae78 <handle_nn+0x284>
   3a688:	e59d0000 	ldr	r0, [sp]
   3a68c:	e1dd10ba 	ldrh	r1, [sp, #10]
   3a690:	e1dcc0d0 	ldrsb	ip, [ip]
   3a694:	e19100d0 	ldrsb	r0, [r1, r0]
   3a698:	e15c0000 	cmp	ip, r0
   3a69c:	da000004 	ble	3a6b4 <myarm_relu_q7_sdwc+0x4c>
   3a6a0:	e59dc000 	ldr	ip, [sp]
   3a6a4:	e1dd00ba 	ldrh	r0, [sp, #10]
   3a6a8:	e190c0dc 	ldrsb	ip, [r0, ip]
   3a6ac:	e35c0000 	cmp	ip, #0
   3a6b0:	5a000010 	bpl	3a6f8 <myarm_relu_q7_sdwc+0x90>
   3a6b4:	e59dc004 	ldr	ip, [sp, #4]
   3a6b8:	e1dd00ba 	ldrh	r0, [sp, #10]
   3a6bc:	e190c0dc 	ldrsb	ip, [r0, ip]
   3a6c0:	e5cdc00c 	strb	ip, [sp, #12]
   3a6c4:	e1ddc0dc 	ldrsb	ip, [sp, #12]
   3a6c8:	e35c0000 	cmp	ip, #0
   3a6cc:	5a000001 	bpl	3a6d8 <myarm_relu_q7_sdwc+0x70>
   3a6d0:	e3a0c000 	mov	ip, #0
   3a6d4:	e5cdc00c 	strb	ip, [sp, #12]
   3a6d8:	e59d0000 	ldr	r0, [sp]
   3a6dc:	e1dd10ba 	ldrh	r1, [sp, #10]
   3a6e0:	e1ddc0dc 	ldrsb	ip, [sp, #12]
   3a6e4:	e19100d0 	ldrsb	r0, [r1, r0]
   3a6e8:	e15c0000 	cmp	ip, r0
   3a6ec:	0a000001 	beq	3a6f8 <myarm_relu_q7_sdwc+0x90>
   3a6f0:	e3e00000 	mvn	r0, #0
   3a6f4:	ea000007 	b	3a718 <myarm_relu_q7_sdwc+0xb0>
   3a6f8:	e1ddc0ba 	ldrh	ip, [sp, #10]
   3a6fc:	e28cc001 	add	ip, ip, #1
   3a700:	e1cdc0ba 	strh	ip, [sp, #10]
   3a704:	e1ddc0b8 	ldrh	ip, [sp, #8]
   3a708:	e1dd00ba 	ldrh	r0, [sp, #10]
   3a70c:	e15c0000 	cmp	ip, r0
   3a710:	caffffdb 	bgt	3a684 <myarm_relu_q7_sdwc+0x1c>
   3a714:	e3a00000 	mov	r0, #0
   3a718:	e28dd010 	add	sp, sp, #16
   3a71c:	e12fff1e 	bx	lr

0003a720 <myarm_softmax_q7_sdwc>:
   3a720:	e92d4000 	stmfd	sp!, {lr}
   3a724:	e24dd01c 	sub	sp, sp, #28
   3a728:	e58d2004 	str	r2, [sp, #4]
   3a72c:	e1cd11b0 	strh	r1, [sp, #16]
   3a730:	e58d0000 	str	r0, [sp]
   3a734:	e3e0cc01 	mvn	ip, #256	; 0x100
   3a738:	e1cdc1b4 	strh	ip, [sp, #20]
   3a73c:	e3a0c000 	mov	ip, #0
   3a740:	e1cdc1b2 	strh	ip, [sp, #18]
   3a744:	ea00000c 	b	3a77c <myarm_softmax_q7_sdwc+0x5c>
   3a748:	e59d0000 	ldr	r0, [sp]
   3a74c:	e1dd11f2 	ldrsh	r1, [sp, #18]
   3a750:	e1ddc1f4 	ldrsh	ip, [sp, #20]
   3a754:	e19100d0 	ldrsb	r0, [r1, r0]
   3a758:	e15c0000 	cmp	ip, r0
   3a75c:	aa000003 	bge	3a770 <myarm_softmax_q7_sdwc+0x50>
   3a760:	e59dc000 	ldr	ip, [sp]
   3a764:	e1dd01f2 	ldrsh	r0, [sp, #18]
   3a768:	e190c0dc 	ldrsb	ip, [r0, ip]
   3a76c:	e1cdc1b4 	strh	ip, [sp, #20]
   3a770:	e1ddc1f2 	ldrsh	ip, [sp, #18]
   3a774:	e28cc001 	add	ip, ip, #1
   3a778:	e1cdc1b2 	strh	ip, [sp, #18]
   3a77c:	e1ddc1b0 	ldrh	ip, [sp, #16]
   3a780:	e1dd01f2 	ldrsh	r0, [sp, #18]
   3a784:	e15c0000 	cmp	ip, r0
   3a788:	caffffee 	bgt	3a748 <myarm_softmax_q7_sdwc+0x28>
   3a78c:	e1ddc1f4 	ldrsh	ip, [sp, #20]
   3a790:	e24cc008 	sub	ip, ip, #8
   3a794:	e1cdc1b4 	strh	ip, [sp, #20]
   3a798:	e3a0c000 	mov	ip, #0
   3a79c:	e58dc008 	str	ip, [sp, #8]
   3a7a0:	e3a0c000 	mov	ip, #0
   3a7a4:	e1cdc1b2 	strh	ip, [sp, #18]
   3a7a8:	ea000015 	b	3a804 <myarm_softmax_q7_sdwc+0xe4>
   3a7ac:	e59d0000 	ldr	r0, [sp]
   3a7b0:	e1dd11f2 	ldrsh	r1, [sp, #18]
   3a7b4:	e1ddc1f4 	ldrsh	ip, [sp, #20]
   3a7b8:	e19100d0 	ldrsb	r0, [r1, r0]
   3a7bc:	e15c0000 	cmp	ip, r0
   3a7c0:	aa00000c 	bge	3a7f8 <myarm_softmax_q7_sdwc+0xd8>
   3a7c4:	e59d0000 	ldr	r0, [sp]
   3a7c8:	e1dd11f2 	ldrsh	r1, [sp, #18]
   3a7cc:	e1ddc1f4 	ldrsh	ip, [sp, #20]
   3a7d0:	e19100d0 	ldrsb	r0, [r1, r0]
   3a7d4:	e3a01005 	mov	r1, #5
   3a7d8:	e040000c 	sub	r0, r0, ip
   3a7dc:	ebfffbac 	bl	39694 <__USAT>
   3a7e0:	e5cd0016 	strb	r0, [sp, #22]
   3a7e4:	e5ddc016 	ldrb	ip, [sp, #22]
   3a7e8:	e3a01001 	mov	r1, #1
   3a7ec:	e59d0008 	ldr	r0, [sp, #8]
   3a7f0:	e080cc11 	add	ip, r0, r1, lsl ip
   3a7f4:	e58dc008 	str	ip, [sp, #8]
   3a7f8:	e1ddc1f2 	ldrsh	ip, [sp, #18]
   3a7fc:	e28cc001 	add	ip, ip, #1
   3a800:	e1cdc1b2 	strh	ip, [sp, #18]
   3a804:	e1ddc1b0 	ldrh	ip, [sp, #16]
   3a808:	e1dd01f2 	ldrsh	r0, [sp, #18]
   3a80c:	e15c0000 	cmp	ip, r0
   3a810:	caffffe5 	bgt	3a7ac <myarm_softmax_q7_sdwc+0x8c>
   3a814:	e59d1008 	ldr	r1, [sp, #8]
   3a818:	e3a00601 	mov	r0, #1048576	; 0x100000
   3a81c:	eb0025ee 	bl	43fdc <__aeabi_idiv>
   3a820:	e58d000c 	str	r0, [sp, #12]
   3a824:	e3a0c000 	mov	ip, #0
   3a828:	e1cdc1b2 	strh	ip, [sp, #18]
   3a82c:	ea000027 	b	3a8d0 <myarm_softmax_q7_sdwc+0x1b0>
   3a830:	e59d0000 	ldr	r0, [sp]
   3a834:	e1dd11f2 	ldrsh	r1, [sp, #18]
   3a838:	e1ddc1f4 	ldrsh	ip, [sp, #20]
   3a83c:	e19100d0 	ldrsb	r0, [r1, r0]
   3a840:	e15c0000 	cmp	ip, r0
   3a844:	aa000014 	bge	3a89c <myarm_softmax_q7_sdwc+0x17c>
   3a848:	e59dc000 	ldr	ip, [sp]
   3a84c:	e1dd01f2 	ldrsh	r0, [sp, #18]
   3a850:	e1dd11f4 	ldrsh	r1, [sp, #20]
   3a854:	e190c0dc 	ldrsb	ip, [r0, ip]
   3a858:	e041c00c 	sub	ip, r1, ip
   3a85c:	e3a01005 	mov	r1, #5
   3a860:	e28c000d 	add	r0, ip, #13
   3a864:	ebfffb8a 	bl	39694 <__USAT>
   3a868:	e5cd0016 	strb	r0, [sp, #22]
   3a86c:	e59d000c 	ldr	r0, [sp, #12]
   3a870:	e5ddc016 	ldrb	ip, [sp, #22]
   3a874:	e3a01008 	mov	r1, #8
   3a878:	e1a00c50 	asr	r0, r0, ip
   3a87c:	ebfffb9d 	bl	396f8 <__SSAT>
   3a880:	e5cd0018 	strb	r0, [sp, #24]
   3a884:	e1ddc1d8 	ldrsb	ip, [sp, #24]
   3a888:	e35c007f 	cmp	ip, #127	; 0x7f
   3a88c:	1a000004 	bne	3a8a4 <myarm_softmax_q7_sdwc+0x184>
   3a890:	e3a0c07e 	mov	ip, #126	; 0x7e
   3a894:	e5cdc018 	strb	ip, [sp, #24]
   3a898:	ea000001 	b	3a8a4 <myarm_softmax_q7_sdwc+0x184>
   3a89c:	e3a0c000 	mov	ip, #0
   3a8a0:	e5cdc018 	strb	ip, [sp, #24]
   3a8a4:	e59d0004 	ldr	r0, [sp, #4]
   3a8a8:	e1dd11f2 	ldrsh	r1, [sp, #18]
   3a8ac:	e1ddc1d8 	ldrsb	ip, [sp, #24]
   3a8b0:	e19100d0 	ldrsb	r0, [r1, r0]
   3a8b4:	e15c0000 	cmp	ip, r0
   3a8b8:	0a000001 	beq	3a8c4 <myarm_softmax_q7_sdwc+0x1a4>
   3a8bc:	e3e00000 	mvn	r0, #0
   3a8c0:	ea000007 	b	3a8e4 <myarm_softmax_q7_sdwc+0x1c4>
   3a8c4:	e1ddc1f2 	ldrsh	ip, [sp, #18]
   3a8c8:	e28cc001 	add	ip, ip, #1
   3a8cc:	e1cdc1b2 	strh	ip, [sp, #18]
   3a8d0:	e1ddc1b0 	ldrh	ip, [sp, #16]
   3a8d4:	e1dd01f2 	ldrsh	r0, [sp, #18]
   3a8d8:	e15c0000 	cmp	ip, r0
   3a8dc:	caffffd3 	bgt	3a830 <myarm_softmax_q7_sdwc+0x110>
   3a8e0:	e3a00000 	mov	r0, #0
   3a8e4:	e28dd01c 	add	sp, sp, #28
   3a8e8:	e8bd8000 	ldmfd	sp!, {pc}

0003a8ec <myarm_maxpool_q7_HWC_range>:
   3a8ec:	e24dd018 	sub	sp, sp, #24
   3a8f0:	e1cd30b8 	strh	r3, [sp, #8]
   3a8f4:	e1cd20b6 	strh	r2, [sp, #6]
   3a8f8:	e1cd10b4 	strh	r1, [sp, #4]
   3a8fc:	e58d0000 	str	r0, [sp]
   3a900:	e3a0c000 	mov	ip, #0
   3a904:	e1cdc0ba 	strh	ip, [sp, #10]
   3a908:	ea00002b 	b	3a9bc <myarm_maxpool_q7_HWC_range+0xd0>
   3a90c:	e3a0c000 	mov	ip, #0
   3a910:	e1cdc0be 	strh	ip, [sp, #14]
   3a914:	ea000021 	b	3a9a0 <myarm_maxpool_q7_HWC_range+0xb4>
   3a918:	e3a0c000 	mov	ip, #0
   3a91c:	e1cdc0bc 	strh	ip, [sp, #12]
   3a920:	ea000017 	b	3a984 <myarm_maxpool_q7_HWC_range+0x98>
   3a924:	e1dd10fe 	ldrsh	r1, [sp, #14]
   3a928:	e1dd22b2 	ldrh	r2, [sp, #34]	; 0x22
   3a92c:	e1dd00fc 	ldrsh	r0, [sp, #12]
   3a930:	e1ddc0b6 	ldrh	ip, [sp, #6]
   3a934:	e0210192 	mla	r1, r2, r1, r0
   3a938:	e1dd00fa 	ldrsh	r0, [sp, #10]
   3a93c:	e02c0c91 	mla	ip, r1, ip, r0
   3a940:	e58dc010 	str	ip, [sp, #16]
   3a944:	e59d0028 	ldr	r0, [sp, #40]	; 0x28
   3a948:	e59d1010 	ldr	r1, [sp, #16]
   3a94c:	e59dc02c 	ldr	ip, [sp, #44]	; 0x2c
   3a950:	e19100d0 	ldrsb	r0, [r1, r0]
   3a954:	e15c0000 	cmp	ip, r0
   3a958:	ba000004 	blt	3a970 <myarm_maxpool_q7_HWC_range+0x84>
   3a95c:	e59dc028 	ldr	ip, [sp, #40]	; 0x28
   3a960:	e59d0010 	ldr	r0, [sp, #16]
   3a964:	e190c0dc 	ldrsb	ip, [r0, ip]
   3a968:	e35c0000 	cmp	ip, #0
   3a96c:	5a000001 	bpl	3a978 <myarm_maxpool_q7_HWC_range+0x8c>
   3a970:	e3e00000 	mvn	r0, #0
   3a974:	ea000015 	b	3a9d0 <myarm_maxpool_q7_HWC_range+0xe4>
   3a978:	e1ddc0fc 	ldrsh	ip, [sp, #12]
   3a97c:	e28cc001 	add	ip, ip, #1
   3a980:	e1cdc0bc 	strh	ip, [sp, #12]
   3a984:	e1ddc2b2 	ldrh	ip, [sp, #34]	; 0x22
   3a988:	e1dd00fc 	ldrsh	r0, [sp, #12]
   3a98c:	e15c0000 	cmp	ip, r0
   3a990:	caffffe3 	bgt	3a924 <myarm_maxpool_q7_HWC_range+0x38>
   3a994:	e1ddc0fe 	ldrsh	ip, [sp, #14]
   3a998:	e28cc001 	add	ip, ip, #1
   3a99c:	e1cdc0be 	strh	ip, [sp, #14]
   3a9a0:	e1ddc2b2 	ldrh	ip, [sp, #34]	; 0x22
   3a9a4:	e1dd00fe 	ldrsh	r0, [sp, #14]
   3a9a8:	e15c0000 	cmp	ip, r0
   3a9ac:	caffffd9 	bgt	3a918 <myarm_maxpool_q7_HWC_range+0x2c>
   3a9b0:	e1ddc0fa 	ldrsh	ip, [sp, #10]
   3a9b4:	e28cc001 	add	ip, ip, #1
   3a9b8:	e1cdc0ba 	strh	ip, [sp, #10]
   3a9bc:	e1ddc0b6 	ldrh	ip, [sp, #6]
   3a9c0:	e1dd00fa 	ldrsh	r0, [sp, #10]
   3a9c4:	e15c0000 	cmp	ip, r0
   3a9c8:	caffffcf 	bgt	3a90c <myarm_maxpool_q7_HWC_range+0x20>
   3a9cc:	e3a00000 	mov	r0, #0
   3a9d0:	e28dd018 	add	sp, sp, #24
   3a9d4:	e12fff1e 	bx	lr

0003a9d8 <myarm_relu_q7_range>:
   3a9d8:	e24dd010 	sub	sp, sp, #16
   3a9dc:	e58d3008 	str	r3, [sp, #8]
   3a9e0:	e58d2004 	str	r2, [sp, #4]
   3a9e4:	e1cd10bc 	strh	r1, [sp, #12]
   3a9e8:	e58d0000 	str	r0, [sp]
   3a9ec:	e3a0c000 	mov	ip, #0
   3a9f0:	e1cdc0be 	strh	ip, [sp, #14]
   3a9f4:	ea00000f 	b	3aa38 <myarm_relu_q7_range+0x60>
   3a9f8:	e59d0000 	ldr	r0, [sp]
   3a9fc:	e1dd10be 	ldrh	r1, [sp, #14]
   3aa00:	e59dc008 	ldr	ip, [sp, #8]
   3aa04:	e19100d0 	ldrsb	r0, [r1, r0]
   3aa08:	e15c0000 	cmp	ip, r0
   3aa0c:	ba000004 	blt	3aa24 <myarm_relu_q7_range+0x4c>
   3aa10:	e59dc000 	ldr	ip, [sp]
   3aa14:	e1dd00be 	ldrh	r0, [sp, #14]
   3aa18:	e190c0dc 	ldrsb	ip, [r0, ip]
   3aa1c:	e35c0000 	cmp	ip, #0
   3aa20:	5a000001 	bpl	3aa2c <myarm_relu_q7_range+0x54>
   3aa24:	e3e00000 	mvn	r0, #0
   3aa28:	ea000007 	b	3aa4c <myarm_relu_q7_range+0x74>
   3aa2c:	e1ddc0be 	ldrh	ip, [sp, #14]
   3aa30:	e28cc001 	add	ip, ip, #1
   3aa34:	e1cdc0be 	strh	ip, [sp, #14]
   3aa38:	e1ddc0bc 	ldrh	ip, [sp, #12]
   3aa3c:	e1dd00be 	ldrh	r0, [sp, #14]
   3aa40:	e15c0000 	cmp	ip, r0
   3aa44:	caffffeb 	bgt	3a9f8 <myarm_relu_q7_range+0x20>
   3aa48:	e3a00000 	mov	r0, #0
   3aa4c:	e28dd010 	add	sp, sp, #16
   3aa50:	e12fff1e 	bx	lr

0003aa54 <nor_dis_q7>:
   3aa54:	e24dd008 	sub	sp, sp, #8
   3aa58:	e58d1004 	str	r1, [sp, #4]
   3aa5c:	e58d0000 	str	r0, [sp]
   3aa60:	e3a0000a 	mov	r0, #10
   3aa64:	e28dd008 	add	sp, sp, #8
   3aa68:	e12fff1e 	bx	lr

0003aa6c <inject_faults>:
   3aa6c:	e92d4000 	stmfd	sp!, {lr}
   3aa70:	e24dd01c 	sub	sp, sp, #28
   3aa74:	ed8d0a01 	vstr	s0, [sp, #4]
   3aa78:	e58d0000 	str	r0, [sp]
   3aa7c:	e59dc000 	ldr	ip, [sp]
   3aa80:	ed9c0a2d 	vldr	s0, [ip, #180]	; 0xb4
   3aa84:	eef80ac0 	vcvt.f32.s32	s1, s0
   3aa88:	ed9d0a01 	vldr	s0, [sp, #4]
   3aa8c:	ee200a80 	vmul.f32	s0, s1, s0
   3aa90:	eebd0ac0 	vcvt.s32.f32	s0, s0
   3aa94:	ee10ca10 	vmov	ip, s0
   3aa98:	e58dc00c 	str	ip, [sp, #12]
   3aa9c:	e3a0c000 	mov	ip, #0
   3aaa0:	e58dc008 	str	ip, [sp, #8]
   3aaa4:	e59d0008 	ldr	r0, [sp, #8]
   3aaa8:	e59dc00c 	ldr	ip, [sp, #12]
   3aaac:	e15c0000 	cmp	ip, r0
   3aab0:	da000012 	ble	3ab00 <inject_faults+0x94>
   3aab4:	fa0025dc 	blx	4422c <rand>
   3aab8:	e59dc000 	ldr	ip, [sp]
   3aabc:	e59c10b4 	ldr	r1, [ip, #180]	; 0xb4
   3aac0:	eb002545 	bl	43fdc <__aeabi_idiv>
   3aac4:	e58d1010 	str	r1, [sp, #16]
   3aac8:	fa0025d7 	blx	4422c <rand>
   3aacc:	e5cd0014 	strb	r0, [sp, #20]
   3aad0:	e59dc000 	ldr	ip, [sp]
   3aad4:	e59d1010 	ldr	r1, [sp, #16]
   3aad8:	e59c0004 	ldr	r0, [ip, #4]
   3aadc:	e1ddc1d4 	ldrsb	ip, [sp, #20]
   3aae0:	e7c1c000 	strb	ip, [r1, r0]
   3aae4:	e59dc008 	ldr	ip, [sp, #8]
   3aae8:	e28cc001 	add	ip, ip, #1
   3aaec:	e58dc008 	str	ip, [sp, #8]
   3aaf0:	e59dc00c 	ldr	ip, [sp, #12]
   3aaf4:	e59d0008 	ldr	r0, [sp, #8]
   3aaf8:	e15c0000 	cmp	ip, r0
   3aafc:	caffffec 	bgt	3aab4 <inject_faults+0x48>
   3ab00:	e3a00000 	mov	r0, #0
   3ab04:	e28dd01c 	add	sp, sp, #28
   3ab08:	e8bd8000 	ldmfd	sp!, {pc}

0003ab0c <ranger>:
   3ab0c:	e24dd020 	sub	sp, sp, #32
   3ab10:	e58d1004 	str	r1, [sp, #4]
   3ab14:	e58d0000 	str	r0, [sp]
   3ab18:	e3a0c000 	mov	ip, #0
   3ab1c:	e58dc008 	str	ip, [sp, #8]
   3ab20:	e59d0004 	ldr	r0, [sp, #4]
   3ab24:	e3a010d4 	mov	r1, #212	; 0xd4
   3ab28:	e59dc000 	ldr	ip, [sp]
   3ab2c:	e02cc091 	mla	ip, r1, r0, ip
   3ab30:	e1dcccd4 	ldrsb	ip, [ip, #196]	; 0xc4
   3ab34:	e58dc00c 	str	ip, [sp, #12]
   3ab38:	e59d0004 	ldr	r0, [sp, #4]
   3ab3c:	e3a010d4 	mov	r1, #212	; 0xd4
   3ab40:	e59dc000 	ldr	ip, [sp]
   3ab44:	e02cc091 	mla	ip, r1, r0, ip
   3ab48:	e1dcccd5 	ldrsb	ip, [ip, #197]	; 0xc5
   3ab4c:	e58dc010 	str	ip, [sp, #16]
   3ab50:	e3a0c000 	mov	ip, #0
   3ab54:	e58dc014 	str	ip, [sp, #20]
   3ab58:	ea00001a 	b	3abc8 <ranger+0xbc>
   3ab5c:	e59d0004 	ldr	r0, [sp, #4]
   3ab60:	e3a010d4 	mov	r1, #212	; 0xd4
   3ab64:	e59dc000 	ldr	ip, [sp]
   3ab68:	e02cc091 	mla	ip, r1, r0, ip
   3ab6c:	e59d0014 	ldr	r0, [sp, #20]
   3ab70:	e59cc004 	ldr	ip, [ip, #4]
   3ab74:	e190c0dc 	ldrsb	ip, [r0, ip]
   3ab78:	e5cdc018 	strb	ip, [sp, #24]
   3ab7c:	e1ddc1d8 	ldrsb	ip, [sp, #24]
   3ab80:	e5cdc018 	strb	ip, [sp, #24]
   3ab84:	e59dc00c 	ldr	ip, [sp, #12]
   3ab88:	e1dd01d8 	ldrsb	r0, [sp, #24]
   3ab8c:	e15c0000 	cmp	ip, r0
   3ab90:	aa000002 	bge	3aba0 <ranger+0x94>
   3ab94:	e3e0c000 	mvn	ip, #0
   3ab98:	e58dc008 	str	ip, [sp, #8]
   3ab9c:	ea000011 	b	3abe8 <ranger+0xdc>
   3aba0:	e59dc010 	ldr	ip, [sp, #16]
   3aba4:	e1dd01d8 	ldrsb	r0, [sp, #24]
   3aba8:	e15c0000 	cmp	ip, r0
   3abac:	da000002 	ble	3abbc <ranger+0xb0>
   3abb0:	e3e0c000 	mvn	ip, #0
   3abb4:	e58dc008 	str	ip, [sp, #8]
   3abb8:	ea00000a 	b	3abe8 <ranger+0xdc>
   3abbc:	e59dc014 	ldr	ip, [sp, #20]
   3abc0:	e28cc001 	add	ip, ip, #1
   3abc4:	e58dc014 	str	ip, [sp, #20]
   3abc8:	e59d0004 	ldr	r0, [sp, #4]
   3abcc:	e3a010d4 	mov	r1, #212	; 0xd4
   3abd0:	e59dc000 	ldr	ip, [sp]
   3abd4:	e02cc091 	mla	ip, r1, r0, ip
   3abd8:	e59d0014 	ldr	r0, [sp, #20]
   3abdc:	e59cc0b4 	ldr	ip, [ip, #180]	; 0xb4
   3abe0:	e15c0000 	cmp	ip, r0
   3abe4:	caffffdc 	bgt	3ab5c <ranger+0x50>
   3abe8:	e59d0008 	ldr	r0, [sp, #8]
   3abec:	e28dd020 	add	sp, sp, #32
   3abf0:	e12fff1e 	bx	lr

0003abf4 <handle_nn>:
   3abf4:	e92d4000 	stmfd	sp!, {lr}
   3abf8:	e24dd034 	sub	sp, sp, #52	; 0x34
   3abfc:	e58d0030 	str	r0, [sp, #48]	; 0x30
   3ac00:	e59dc030 	ldr	ip, [sp, #48]	; 0x30
   3ac04:	e5dcc008 	ldrb	ip, [ip, #8]
   3ac08:	e35c0000 	cmp	ip, #0
   3ac0c:	1a00002e 	bne	3accc <handle_nn+0xd8>
   3ac10:	e59dc030 	ldr	ip, [sp, #48]	; 0x30
   3ac14:	e59d0030 	ldr	r0, [sp, #48]	; 0x30
   3ac18:	e1dc11bc 	ldrh	r1, [ip, #28]
   3ac1c:	e58d1000 	str	r1, [sp]
   3ac20:	e59dc030 	ldr	ip, [sp, #48]	; 0x30
   3ac24:	e59d1030 	ldr	r1, [sp, #48]	; 0x30
   3ac28:	e1d001be 	ldrh	r0, [r0, #30]
   3ac2c:	e58d0004 	str	r0, [sp, #4]
   3ac30:	e59d0030 	ldr	r0, [sp, #48]	; 0x30
   3ac34:	e1dcc2b0 	ldrh	ip, [ip, #32]
   3ac38:	e58dc008 	str	ip, [sp, #8]
   3ac3c:	e59dc030 	ldr	ip, [sp, #48]	; 0x30
   3ac40:	e1d112b2 	ldrh	r1, [r1, #34]	; 0x22
   3ac44:	e58d100c 	str	r1, [sp, #12]
   3ac48:	e5900024 	ldr	r0, [r0, #36]	; 0x24
   3ac4c:	e58d0010 	str	r0, [sp, #16]
   3ac50:	e1dcc2bc 	ldrh	ip, [ip, #44]	; 0x2c
   3ac54:	e58dc014 	str	ip, [sp, #20]
   3ac58:	e59dc030 	ldr	ip, [sp, #48]	; 0x30
   3ac5c:	e1dcc2be 	ldrh	ip, [ip, #46]	; 0x2e
   3ac60:	e58dc018 	str	ip, [sp, #24]
   3ac64:	e59dc030 	ldr	ip, [sp, #48]	; 0x30
   3ac68:	e59cc004 	ldr	ip, [ip, #4]
   3ac6c:	e58dc01c 	str	ip, [sp, #28]
   3ac70:	e59dc030 	ldr	ip, [sp, #48]	; 0x30
   3ac74:	e1dcc3b4 	ldrh	ip, [ip, #52]	; 0x34
   3ac78:	e58dc020 	str	ip, [sp, #32]
   3ac7c:	e59dc030 	ldr	ip, [sp, #48]	; 0x30
   3ac80:	e59cc038 	ldr	ip, [ip, #56]	; 0x38
   3ac84:	e58dc024 	str	ip, [sp, #36]	; 0x24
   3ac88:	e59dc030 	ldr	ip, [sp, #48]	; 0x30
   3ac8c:	e59cc03c 	ldr	ip, [ip, #60]	; 0x3c
   3ac90:	e58dc028 	str	ip, [sp, #40]	; 0x28
   3ac94:	e59dc030 	ldr	ip, [sp, #48]	; 0x30
   3ac98:	e58dc02c 	str	ip, [sp, #44]	; 0x2c
   3ac9c:	e59d2030 	ldr	r2, [sp, #48]	; 0x30
   3aca0:	e59dc030 	ldr	ip, [sp, #48]	; 0x30
   3aca4:	e59d0030 	ldr	r0, [sp, #48]	; 0x30
   3aca8:	e59d1030 	ldr	r1, [sp, #48]	; 0x30
   3acac:	e1d221b2 	ldrh	r2, [r2, #18]
   3acb0:	e59c3014 	ldr	r3, [ip, #20]
   3acb4:	e5900000 	ldr	r0, [r0]
   3acb8:	e1d111b0 	ldrh	r1, [r1, #16]
   3acbc:	eb001b8f 	bl	41b00 <arm_convolve_HWC_q7_basic>
   3acc0:	e59dc030 	ldr	ip, [sp, #48]	; 0x30
   3acc4:	e58c00bc 	str	r0, [ip, #188]	; 0xbc
   3acc8:	ea000067 	b	3ae6c <handle_nn+0x278>
   3accc:	e59dc030 	ldr	ip, [sp, #48]	; 0x30
   3acd0:	e5dcc008 	ldrb	ip, [ip, #8]
   3acd4:	e35c0003 	cmp	ip, #3
   3acd8:	1a00000d 	bne	3ad14 <handle_nn+0x120>
   3acdc:	e59dc030 	ldr	ip, [sp, #48]	; 0x30
   3ace0:	e59d0030 	ldr	r0, [sp, #48]	; 0x30
   3ace4:	e59d1030 	ldr	r1, [sp, #48]	; 0x30
   3ace8:	e59d2030 	ldr	r2, [sp, #48]	; 0x30
   3acec:	e5dc30c4 	ldrb	r3, [ip, #196]	; 0xc4
   3acf0:	e5900004 	ldr	r0, [r0, #4]
   3acf4:	e1d119b4 	ldrh	r1, [r1, #148]	; 0x94
   3acf8:	e5922000 	ldr	r2, [r2]
   3acfc:	eb0023db 	bl	43c70 <arm_relu_q7>
   3ad00:	e59dc030 	ldr	ip, [sp, #48]	; 0x30
   3ad04:	e59d0030 	ldr	r0, [sp, #48]	; 0x30
   3ad08:	e51cc018 	ldr	ip, [ip, #-24]	; 0xffffffe8
   3ad0c:	e580c0bc 	str	ip, [r0, #188]	; 0xbc
   3ad10:	ea000055 	b	3ae6c <handle_nn+0x278>
   3ad14:	e59dc030 	ldr	ip, [sp, #48]	; 0x30
   3ad18:	e5dcc008 	ldrb	ip, [ip, #8]
   3ad1c:	e35c0001 	cmp	ip, #1
   3ad20:	1a00001c 	bne	3ad98 <handle_nn+0x1a4>
   3ad24:	e59d0030 	ldr	r0, [sp, #48]	; 0x30
   3ad28:	e59dc030 	ldr	ip, [sp, #48]	; 0x30
   3ad2c:	e59d1030 	ldr	r1, [sp, #48]	; 0x30
   3ad30:	e1d007be 	ldrh	r0, [r0, #126]	; 0x7e
   3ad34:	e58d0000 	str	r0, [sp]
   3ad38:	e59d0030 	ldr	r0, [sp, #48]	; 0x30
   3ad3c:	e1dcc8b0 	ldrh	ip, [ip, #128]	; 0x80
   3ad40:	e58dc004 	str	ip, [sp, #4]
   3ad44:	e59dc030 	ldr	ip, [sp, #48]	; 0x30
   3ad48:	e1d118b2 	ldrh	r1, [r1, #130]	; 0x82
   3ad4c:	e58d1008 	str	r1, [sp, #8]
   3ad50:	e5900084 	ldr	r0, [r0, #132]	; 0x84
   3ad54:	e58d000c 	str	r0, [sp, #12]
   3ad58:	e59cc004 	ldr	ip, [ip, #4]
   3ad5c:	e58dc010 	str	ip, [sp, #16]
   3ad60:	e3a0c000 	mov	ip, #0
   3ad64:	e58dc014 	str	ip, [sp, #20]
   3ad68:	e59d2030 	ldr	r2, [sp, #48]	; 0x30
   3ad6c:	e59dc030 	ldr	ip, [sp, #48]	; 0x30
   3ad70:	e59d0030 	ldr	r0, [sp, #48]	; 0x30
   3ad74:	e59d1030 	ldr	r1, [sp, #48]	; 0x30
   3ad78:	e1d227ba 	ldrh	r2, [r2, #122]	; 0x7a
   3ad7c:	e1dc37bc 	ldrh	r3, [ip, #124]	; 0x7c
   3ad80:	e5900000 	ldr	r0, [r0]
   3ad84:	e1d117b8 	ldrh	r1, [r1, #120]	; 0x78
   3ad88:	eb001883 	bl	40f9c <arm_maxpool_q7_HWC>
   3ad8c:	e59dc030 	ldr	ip, [sp, #48]	; 0x30
   3ad90:	e58c00bc 	str	r0, [ip, #188]	; 0xbc
   3ad94:	ea000034 	b	3ae6c <handle_nn+0x278>
   3ad98:	e59dc030 	ldr	ip, [sp, #48]	; 0x30
   3ad9c:	e5dcc008 	ldrb	ip, [ip, #8]
   3ada0:	e35c0004 	cmp	ip, #4
   3ada4:	1a00001c 	bne	3ae1c <handle_nn+0x228>
   3ada8:	e59d0030 	ldr	r0, [sp, #48]	; 0x30
   3adac:	e59dc030 	ldr	ip, [sp, #48]	; 0x30
   3adb0:	e59d1030 	ldr	r1, [sp, #48]	; 0x30
   3adb4:	e1d005b8 	ldrh	r0, [r0, #88]	; 0x58
   3adb8:	e58d0000 	str	r0, [sp]
   3adbc:	e59d0030 	ldr	r0, [sp, #48]	; 0x30
   3adc0:	e1dcc5ba 	ldrh	ip, [ip, #90]	; 0x5a
   3adc4:	e58dc004 	str	ip, [sp, #4]
   3adc8:	e59dc030 	ldr	ip, [sp, #48]	; 0x30
   3adcc:	e591105c 	ldr	r1, [r1, #92]	; 0x5c
   3add0:	e58d1008 	str	r1, [sp, #8]
   3add4:	e5900004 	ldr	r0, [r0, #4]
   3add8:	e58d000c 	str	r0, [sp, #12]
   3addc:	e59c0068 	ldr	r0, [ip, #104]	; 0x68
   3ade0:	e59dc030 	ldr	ip, [sp, #48]	; 0x30
   3ade4:	e58d0010 	str	r0, [sp, #16]
   3ade8:	e58dc014 	str	ip, [sp, #20]
   3adec:	e59d2030 	ldr	r2, [sp, #48]	; 0x30
   3adf0:	e59dc030 	ldr	ip, [sp, #48]	; 0x30
   3adf4:	e59d0030 	ldr	r0, [sp, #48]	; 0x30
   3adf8:	e59d1030 	ldr	r1, [sp, #48]	; 0x30
   3adfc:	e1d225b4 	ldrh	r2, [r2, #84]	; 0x54
   3ae00:	e1dc35b6 	ldrh	r3, [ip, #86]	; 0x56
   3ae04:	e5900000 	ldr	r0, [r0]
   3ae08:	e591104c 	ldr	r1, [r1, #76]	; 0x4c
   3ae0c:	eb00204b 	bl	42f40 <arm_fully_connected_q7>
   3ae10:	e59dc030 	ldr	ip, [sp, #48]	; 0x30
   3ae14:	e58c00bc 	str	r0, [ip, #188]	; 0xbc
   3ae18:	ea000013 	b	3ae6c <handle_nn+0x278>
   3ae1c:	e59dc030 	ldr	ip, [sp, #48]	; 0x30
   3ae20:	e5dcc008 	ldrb	ip, [ip, #8]
   3ae24:	e35c0005 	cmp	ip, #5
   3ae28:	1a000009 	bne	3ae54 <handle_nn+0x260>
   3ae2c:	e59dc030 	ldr	ip, [sp, #48]	; 0x30
   3ae30:	e59d0030 	ldr	r0, [sp, #48]	; 0x30
   3ae34:	e59d1030 	ldr	r1, [sp, #48]	; 0x30
   3ae38:	e59c2004 	ldr	r2, [ip, #4]
   3ae3c:	e5900000 	ldr	r0, [r0]
   3ae40:	e1d11ab8 	ldrh	r1, [r1, #168]	; 0xa8
   3ae44:	eb001cb7 	bl	42128 <arm_softmax_q7>
   3ae48:	e59dc030 	ldr	ip, [sp, #48]	; 0x30
   3ae4c:	e58c00bc 	str	r0, [ip, #188]	; 0xbc
   3ae50:	ea000005 	b	3ae6c <handle_nn+0x278>
   3ae54:	e59dc030 	ldr	ip, [sp, #48]	; 0x30
   3ae58:	e28f0f7b 	add	r0, pc, #492	; 0x1ec
   3ae5c:	e5dc1008 	ldrb	r1, [ip, #8]
   3ae60:	fa002419 	blx	43ecc <printf>
   3ae64:	e3e00000 	mvn	r0, #0
   3ae68:	ea000000 	b	3ae70 <handle_nn+0x27c>
   3ae6c:	e3a00000 	mov	r0, #0
   3ae70:	e28dd034 	add	sp, sp, #52	; 0x34
   3ae74:	e8bd8000 	ldmfd	sp!, {pc}
   3ae78:	0800d778 	.word	0x0800d778
   3ae7c:	0800d779 	.word	0x0800d779

0003ae80 <norm_nn>:
   3ae80:	e92d4000 	stmfd	sp!, {lr}
   3ae84:	e24dd01c 	sub	sp, sp, #28
   3ae88:	e58d1004 	str	r1, [sp, #4]
   3ae8c:	e58d0000 	str	r0, [sp]
   3ae90:	eeb00a08 	vmov.f32	s0, #8	; 0x40400000  3.0
   3ae94:	ed8d0a02 	vstr	s0, [sp, #8]
   3ae98:	e3a0c000 	mov	ip, #0
   3ae9c:	e58dc00c 	str	ip, [sp, #12]
   3aea0:	e3a0c000 	mov	ip, #0
   3aea4:	e58dc010 	str	ip, [sp, #16]
   3aea8:	e3a0c000 	mov	ip, #0
   3aeac:	e58dc014 	str	ip, [sp, #20]
   3aeb0:	e3a0c000 	mov	ip, #0
   3aeb4:	e58dc018 	str	ip, [sp, #24]
   3aeb8:	e59d0018 	ldr	r0, [sp, #24]
   3aebc:	e59dc004 	ldr	ip, [sp, #4]
   3aec0:	e15c0000 	cmp	ip, r0
   3aec4:	da000021 	ble	3af50 <norm_nn+0xd0>
   3aec8:	e59dc000 	ldr	ip, [sp]
   3aecc:	e59d0018 	ldr	r0, [sp, #24]
   3aed0:	e59cc004 	ldr	ip, [ip, #4]
   3aed4:	e190c0dc 	ldrsb	ip, [r0, ip]
   3aed8:	e35c0000 	cmp	ip, #0
   3aedc:	0a000014 	beq	3af34 <norm_nn+0xb4>
   3aee0:	e59dc000 	ldr	ip, [sp]
   3aee4:	e59d0018 	ldr	r0, [sp, #24]
   3aee8:	e59cc004 	ldr	ip, [ip, #4]
   3aeec:	e190c0dc 	ldrsb	ip, [r0, ip]
   3aef0:	ee00ca10 	vmov	s0, ip
   3aef4:	eeb80bc0 	vcvt.f64.s32	d0, s0
   3aef8:	eeb01b00 	vmov.f64	d1, #0	; 0x40000000  2.0
   3aefc:	fa000ca0 	blx	3e184 <pow>
   3af00:	ed9d1a03 	vldr	s2, [sp, #12]
   3af04:	eeb81bc1 	vcvt.f64.s32	d1, s2
   3af08:	ee300b01 	vadd.f64	d0, d0, d1
   3af0c:	eebd0bc0 	vcvt.s32.f64	s0, d0
   3af10:	ee10ca10 	vmov	ip, s0
   3af14:	e58dc00c 	str	ip, [sp, #12]
   3af18:	e59dc000 	ldr	ip, [sp]
   3af1c:	e59d1018 	ldr	r1, [sp, #24]
   3af20:	e59c0004 	ldr	r0, [ip, #4]
   3af24:	e59dc010 	ldr	ip, [sp, #16]
   3af28:	e19100d0 	ldrsb	r0, [r1, r0]
   3af2c:	e080c00c 	add	ip, r0, ip
   3af30:	e58dc010 	str	ip, [sp, #16]
   3af34:	e59dc018 	ldr	ip, [sp, #24]
   3af38:	e28cc001 	add	ip, ip, #1
   3af3c:	e58dc018 	str	ip, [sp, #24]
   3af40:	e59dc004 	ldr	ip, [sp, #4]
   3af44:	e59d0018 	ldr	r0, [sp, #24]
   3af48:	e15c0000 	cmp	ip, r0
   3af4c:	caffffdd 	bgt	3aec8 <norm_nn+0x48>
   3af50:	e59dc000 	ldr	ip, [sp]
   3af54:	e59d0010 	ldr	r0, [sp, #16]
   3af58:	e59c10b4 	ldr	r1, [ip, #180]	; 0xb4
   3af5c:	eb00241e 	bl	43fdc <__aeabi_idiv>
   3af60:	e59dc000 	ldr	ip, [sp]
   3af64:	e59cc0c8 	ldr	ip, [ip, #200]	; 0xc8
   3af68:	e59d1000 	ldr	r1, [sp]
   3af6c:	e080c00c 	add	ip, r0, ip
   3af70:	e08ccfac 	add	ip, ip, ip, lsr #31
   3af74:	e1a0c0cc 	asr	ip, ip, #1
   3af78:	e581c0c8 	str	ip, [r1, #200]	; 0xc8
   3af7c:	e59dc000 	ldr	ip, [sp]
   3af80:	e59d000c 	ldr	r0, [sp, #12]
   3af84:	e59c10b4 	ldr	r1, [ip, #180]	; 0xb4
   3af88:	eb002413 	bl	43fdc <__aeabi_idiv>
   3af8c:	e59dc000 	ldr	ip, [sp]
   3af90:	e59cc0cc 	ldr	ip, [ip, #204]	; 0xcc
   3af94:	e59d1000 	ldr	r1, [sp]
   3af98:	e080c00c 	add	ip, r0, ip
   3af9c:	e08ccfac 	add	ip, ip, ip, lsr #31
   3afa0:	e1a0c0cc 	asr	ip, ip, #1
   3afa4:	e581c0cc 	str	ip, [r1, #204]	; 0xcc
   3afa8:	e59dc000 	ldr	ip, [sp]
   3afac:	ed9c0a32 	vldr	s0, [ip, #200]	; 0xc8
   3afb0:	eeb80bc0 	vcvt.f64.s32	d0, s0
   3afb4:	eeb01b00 	vmov.f64	d1, #0	; 0x40000000  2.0
   3afb8:	fa000c71 	blx	3e184 <pow>
   3afbc:	e59dc000 	ldr	ip, [sp]
   3afc0:	ed9c1a33 	vldr	s2, [ip, #204]	; 0xcc
   3afc4:	eeb81bc1 	vcvt.f64.s32	d1, s2
   3afc8:	ee310b40 	vsub.f64	d0, d1, d0
   3afcc:	eebd0bc0 	vcvt.s32.f64	s0, d0
   3afd0:	ee10ca10 	vmov	ip, s0
   3afd4:	e58dc014 	str	ip, [sp, #20]
   3afd8:	ed9d0a05 	vldr	s0, [sp, #20]
   3afdc:	eeb80bc0 	vcvt.f64.s32	d0, s0
   3afe0:	fa00249e 	blx	44260 <sqrt>
   3afe4:	e59dc000 	ldr	ip, [sp]
   3afe8:	ed9c1a32 	vldr	s2, [ip, #200]	; 0xc8
   3afec:	eeb81bc1 	vcvt.f64.s32	d1, s2
   3aff0:	ed9d2a02 	vldr	s4, [sp, #8]
   3aff4:	eeb72ac2 	vcvt.f64.f32	d2, s4
   3aff8:	ee001b02 	vmla.f64	d1, d0, d2
   3affc:	eebd0bc1 	vcvt.s32.f64	s0, d1
   3b000:	e59d0000 	ldr	r0, [sp]
   3b004:	ee10ca10 	vmov	ip, s0
   3b008:	e5c0c0c4 	strb	ip, [r0, #196]	; 0xc4
   3b00c:	ed9d0a05 	vldr	s0, [sp, #20]
   3b010:	eeb80bc0 	vcvt.f64.s32	d0, s0
   3b014:	fa002491 	blx	44260 <sqrt>
   3b018:	e59dc000 	ldr	ip, [sp]
   3b01c:	ed9c1a32 	vldr	s2, [ip, #200]	; 0xc8
   3b020:	eeb81bc1 	vcvt.f64.s32	d1, s2
   3b024:	ed9d2a02 	vldr	s4, [sp, #8]
   3b028:	eeb72ac2 	vcvt.f64.f32	d2, s4
   3b02c:	ee001b42 	vmls.f64	d1, d0, d2
   3b030:	eebd0bc1 	vcvt.s32.f64	s0, d1
   3b034:	e59d0000 	ldr	r0, [sp]
   3b038:	ee10ca10 	vmov	ip, s0
   3b03c:	e5c0c0c5 	strb	ip, [r0, #197]	; 0xc5
   3b040:	e3a00000 	mov	r0, #0
   3b044:	e28dd01c 	add	sp, sp, #28
   3b048:	e8bd8000 	ldmfd	sp!, {pc}
   3b04c:	6c617965 	.word	0x6c617965
   3b050:	72206572 	.word	0x72206572
   3b054:	726f722c 	.word	0x726f722c
   3b058:	2564210a 	.word	0x2564210a
   3b05c:	00a00000 	.word	0x00a00000

0003b060 <setupPLL>:
   3b060:	e3e000cb 	mvn	r0, #203	; 0xcb
   3b064:	e3a0c042 	mov	ip, #66	; 0x42
   3b068:	e580c000 	str	ip, [r0]
   3b06c:	e3e0c0cf 	mvn	ip, #207	; 0xcf
   3b070:	e59cc000 	ldr	ip, [ip]
   3b074:	e20cc042 	and	ip, ip, #66	; 0x42
   3b078:	e35c0042 	cmp	ip, #66	; 0x42
   3b07c:	1afffffa 	bne	3b06c <setupPLL+0xc>
   3b080:	e3e00013 	mvn	r0, #19
   3b084:	e300c301 	movw	ip, #769	; 0x301
   3b088:	e580c000 	str	ip, [r0]
   3b08c:	e3e0008f 	mvn	r0, #143	; 0x8f
   3b090:	e59fca18 	ldr	ip, [pc, #2584]	; 3bab0 <customTrimLPO+0x10>
   3b094:	e580c000 	str	ip, [r0]
   3b098:	e3e0008b 	mvn	r0, #139	; 0x8b
   3b09c:	e59fca10 	ldr	ip, [pc, #2576]	; 3bab4 <customTrimLPO+0x14>
   3b0a0:	e580c000 	str	ip, [r0]
   3b0a4:	e59f0a0c 	ldr	r0, [pc, #2572]	; 3bab8 <customTrimLPO+0x18>
   3b0a8:	e59fca00 	ldr	ip, [pc, #2560]	; 3bab0 <customTrimLPO+0x10>
   3b0ac:	e580c000 	str	ip, [r0]
   3b0b0:	e3e000cf 	mvn	r0, #207	; 0xcf
   3b0b4:	e3a0c088 	mov	ip, #136	; 0x88
   3b0b8:	e580c000 	str	ip, [r0]
   3b0bc:	e12fff1e 	bx	lr

0003b0c0 <trimLPO>:
   3b0c0:	e92d4008 	push	{r3, lr}
   3b0c4:	e3e0c073 	mvn	ip, #115	; 0x73
   3b0c8:	e59cc000 	ldr	ip, [ip]
   3b0cc:	e58dc000 	str	ip, [sp]
   3b0d0:	e3e0c073 	mvn	ip, #115	; 0x73
   3b0d4:	e59cc000 	ldr	ip, [ip]
   3b0d8:	e3e00073 	mvn	r0, #115	; 0x73
   3b0dc:	e38cc401 	orr	ip, ip, #16777216	; 0x1000000
   3b0e0:	e3ccc402 	bic	ip, ip, #33554432	; 0x2000000
   3b0e4:	e580c000 	str	ip, [r0]
   3b0e8:	e59fc9d0 	ldr	ip, [pc, #2512]	; 3bac0 <customTrimLPO+0x20>
   3b0ec:	e59f09c8 	ldr	r0, [pc, #2504]	; 3babc <customTrimLPO+0x1c>
   3b0f0:	e59cc000 	ldr	ip, [ip]
   3b0f4:	e000c00c 	and	ip, r0, ip
   3b0f8:	e30f0fff 	movw	r0, #65535	; 0xffff
   3b0fc:	e150082c 	cmp	r0, ip, lsr #16
   3b100:	0a000008 	beq	3b128 <trimLPO+0x68>
   3b104:	e59fc9b4 	ldr	ip, [pc, #2484]	; 3bac0 <customTrimLPO+0x20>
   3b108:	e59f09ac 	ldr	r0, [pc, #2476]	; 3babc <customTrimLPO+0x1c>
   3b10c:	e59cc000 	ldr	ip, [ip]
   3b110:	e3e01077 	mvn	r1, #119	; 0x77
   3b114:	e000c00c 	and	ip, r0, ip
   3b118:	e1a0c82c 	lsr	ip, ip, #16
   3b11c:	e38cc401 	orr	ip, ip, #16777216	; 0x1000000
   3b120:	e581c000 	str	ip, [r1]
   3b124:	ea000000 	b	3b12c <trimLPO+0x6c>
   3b128:	eb00025c 	bl	3baa0 <customTrimLPO>
   3b12c:	e3e00073 	mvn	r0, #115	; 0x73
   3b130:	e59dc000 	ldr	ip, [sp]
   3b134:	e580c000 	str	ip, [r0]
   3b138:	e8bd8008 	pop	{r3, pc}

0003b13c <setupFlash>:
   3b13c:	e59f0980 	ldr	r0, [pc, #2432]	; 3bac4 <customTrimLPO+0x24>
   3b140:	e300c311 	movw	ip, #785	; 0x311
   3b144:	e580c000 	str	ip, [r0]
   3b148:	e59f0978 	ldr	r0, [pc, #2424]	; 3bac8 <customTrimLPO+0x28>
   3b14c:	e3a0c005 	mov	ip, #5
   3b150:	e580c000 	str	ip, [r0]
   3b154:	e59f0970 	ldr	r0, [pc, #2416]	; 3bacc <customTrimLPO+0x2c>
   3b158:	e59fc970 	ldr	ip, [pc, #2416]	; 3bad0 <customTrimLPO+0x30>
   3b15c:	e580c000 	str	ip, [r0]
   3b160:	e59f0960 	ldr	r0, [pc, #2400]	; 3bac8 <customTrimLPO+0x28>
   3b164:	e3a0c00a 	mov	ip, #10
   3b168:	e580c000 	str	ip, [r0]
   3b16c:	e59f0960 	ldr	r0, [pc, #2400]	; 3bad4 <customTrimLPO+0x34>
   3b170:	e30cc00f 	movw	ip, #49167	; 0xc00f
   3b174:	e580c000 	str	ip, [r0]
   3b178:	e12fff1e 	bx	lr

0003b17c <periphInit>:
   3b17c:	e3e0002f 	mvn	r0, #47	; 0x2f
   3b180:	e590c000 	ldr	ip, [r0]
   3b184:	e3cccc01 	bic	ip, ip, #256	; 0x100
   3b188:	e580c000 	str	ip, [r0]
   3b18c:	e59f0944 	ldr	r0, [pc, #2372]	; 3bad8 <customTrimLPO+0x38>
   3b190:	e3e0c000 	mvn	ip, #0
   3b194:	e580c000 	str	ip, [r0]
   3b198:	e59f093c 	ldr	r0, [pc, #2364]	; 3badc <customTrimLPO+0x3c>
   3b19c:	e3e0c000 	mvn	ip, #0
   3b1a0:	e580c000 	str	ip, [r0]
   3b1a4:	e59f0934 	ldr	r0, [pc, #2356]	; 3bae0 <customTrimLPO+0x40>
   3b1a8:	e3e0c000 	mvn	ip, #0
   3b1ac:	e580c000 	str	ip, [r0]
   3b1b0:	e59f092c 	ldr	r0, [pc, #2348]	; 3bae4 <customTrimLPO+0x44>
   3b1b4:	e3e0c000 	mvn	ip, #0
   3b1b8:	e580c000 	str	ip, [r0]
   3b1bc:	e3e0002f 	mvn	r0, #47	; 0x2f
   3b1c0:	e590c000 	ldr	ip, [r0]
   3b1c4:	e38ccc01 	orr	ip, ip, #256	; 0x100
   3b1c8:	e580c000 	str	ip, [r0]
   3b1cc:	e12fff1e 	bx	lr

0003b1d0 <mapClocks>:
   3b1d0:	e24dd008 	sub	sp, sp, #8
   3b1d4:	e3e000c3 	mvn	r0, #195	; 0xc3
   3b1d8:	e3a0cb01 	mov	ip, #1024	; 0x400
   3b1dc:	e580c000 	str	ip, [r0]
   3b1e0:	e3e0c0ab 	mvn	ip, #171	; 0xab
   3b1e4:	e59cc000 	ldr	ip, [ip]
   3b1e8:	e58dc000 	str	ip, [sp]
   3b1ec:	e3e0c0cf 	mvn	ip, #207	; 0xcf
   3b1f0:	e59cc000 	ldr	ip, [ip]
   3b1f4:	e58dc004 	str	ip, [sp, #4]
   3b1f8:	ea000005 	b	3b214 <mapClocks+0x44>
   3b1fc:	e3e0c0ab 	mvn	ip, #171	; 0xab
   3b200:	e59cc000 	ldr	ip, [ip]
   3b204:	e58dc000 	str	ip, [sp]
   3b208:	e3e0c0cf 	mvn	ip, #207	; 0xcf
   3b20c:	e59cc000 	ldr	ip, [ip]
   3b210:	e58dc004 	str	ip, [sp, #4]
   3b214:	e59dc004 	ldr	ip, [sp, #4]
   3b218:	e59d1004 	ldr	r1, [sp, #4]
   3b21c:	e22cc0ff 	eor	ip, ip, #255	; 0xff
   3b220:	e59d0000 	ldr	r0, [sp]
   3b224:	e22110ff 	eor	r1, r1, #255	; 0xff
   3b228:	e20cc0ff 	and	ip, ip, #255	; 0xff
   3b22c:	e0010000 	and	r0, r1, r0
   3b230:	e20000ff 	and	r0, r0, #255	; 0xff
   3b234:	e15c0000 	cmp	ip, r0
   3b238:	1affffef 	bne	3b1fc <mapClocks+0x2c>
   3b23c:	e3e000b7 	mvn	r0, #183	; 0xb7
   3b240:	e3a0c001 	mov	ip, #1
   3b244:	e580c000 	str	ip, [r0]
   3b248:	e3e000af 	mvn	r0, #175	; 0xaf
   3b24c:	e59fc894 	ldr	ip, [pc, #2196]	; 3bae8 <customTrimLPO+0x48>
   3b250:	e580c000 	str	ip, [r0]
   3b254:	e3e000b3 	mvn	r0, #179	; 0xb3
   3b258:	e300c909 	movw	ip, #2313	; 0x909
   3b25c:	e580c000 	str	ip, [r0]
   3b260:	e3e0c02f 	mvn	ip, #47	; 0x2f
   3b264:	e59cc000 	ldr	ip, [ip]
   3b268:	e3e0002f 	mvn	r0, #47	; 0x2f
   3b26c:	e3ccc40f 	bic	ip, ip, #251658240	; 0xf000000
   3b270:	e38cc401 	orr	ip, ip, #16777216	; 0x1000000
   3b274:	e580c000 	str	ip, [r0]
   3b278:	e3e0c02f 	mvn	ip, #47	; 0x2f
   3b27c:	e59cc000 	ldr	ip, [ip]
   3b280:	e3e0002f 	mvn	r0, #47	; 0x2f
   3b284:	e3ccc80f 	bic	ip, ip, #983040	; 0xf0000
   3b288:	e38cc801 	orr	ip, ip, #65536	; 0x10000
   3b28c:	e580c000 	str	ip, [r0]
   3b290:	e59fc854 	ldr	ip, [pc, #2132]	; 3baec <customTrimLPO+0x4c>
   3b294:	e59f0854 	ldr	r0, [pc, #2132]	; 3baf0 <customTrimLPO+0x50>
   3b298:	e59f284c 	ldr	r2, [pc, #2124]	; 3baec <customTrimLPO+0x4c>
   3b29c:	e59cc000 	ldr	ip, [ip]
   3b2a0:	e3001103 	movw	r1, #259	; 0x103
   3b2a4:	e000c00c 	and	ip, r0, ip
   3b2a8:	e181c00c 	orr	ip, r1, ip
   3b2ac:	e582c000 	str	ip, [r2]
   3b2b0:	e59f083c 	ldr	r0, [pc, #2108]	; 3baf4 <customTrimLPO+0x54>
   3b2b4:	e59fc83c 	ldr	ip, [pc, #2108]	; 3baf8 <customTrimLPO+0x58>
   3b2b8:	e580c000 	str	ip, [r0]
   3b2bc:	e3e0c08f 	mvn	ip, #143	; 0x8f
   3b2c0:	e3e0008f 	mvn	r0, #143	; 0x8f
   3b2c4:	e59cc000 	ldr	ip, [ip]
   3b2c8:	e3ccc41f 	bic	ip, ip, #520093696	; 0x1f000000
   3b2cc:	e580c000 	str	ip, [r0]
   3b2d0:	e59fc7e0 	ldr	ip, [pc, #2016]	; 3bab8 <customTrimLPO+0x18>
   3b2d4:	e59f07dc 	ldr	r0, [pc, #2012]	; 3bab8 <customTrimLPO+0x18>
   3b2d8:	e59cc000 	ldr	ip, [ip]
   3b2dc:	e3ccc41f 	bic	ip, ip, #520093696	; 0x1f000000
   3b2e0:	e580c000 	str	ip, [r0]
   3b2e4:	e3e0008b 	mvn	r0, #139	; 0x8b
   3b2e8:	e590c000 	ldr	ip, [r0]
   3b2ec:	e580c000 	str	ip, [r0]
   3b2f0:	e28dd008 	add	sp, sp, #8
   3b2f4:	e12fff1e 	bx	lr

0003b2f8 <systemInit>:
   3b2f8:	e92d4008 	push	{r3, lr}
   3b2fc:	ebffff57 	bl	3b060 <setupPLL>
   3b300:	ebffff9d 	bl	3b17c <periphInit>
   3b304:	eb000eda 	bl	3ee74 <muxInit>
   3b308:	ebffff8b 	bl	3b13c <setupFlash>
   3b30c:	ebffff6b 	bl	3b0c0 <trimLPO>
   3b310:	ebffffae 	bl	3b1d0 <mapClocks>
   3b314:	e3e000ff 	mvn	r0, #255	; 0xff
   3b318:	e3a0c000 	mov	ip, #0
   3b31c:	e580c000 	str	ip, [r0]
   3b320:	e3e000f3 	mvn	r0, #243	; 0xf3
   3b324:	e3a0c000 	mov	ip, #0
   3b328:	e580c000 	str	ip, [r0]
   3b32c:	e3e000fb 	mvn	r0, #251	; 0xfb
   3b330:	e3a0c001 	mov	ip, #1
   3b334:	e580c000 	str	ip, [r0]
   3b338:	e3e000e7 	mvn	r0, #231	; 0xe7
   3b33c:	e3a0c000 	mov	ip, #0
   3b340:	e580c000 	str	ip, [r0]
   3b344:	e3e000e3 	mvn	r0, #227	; 0xe3
   3b348:	e3a0c000 	mov	ip, #0
   3b34c:	e580c000 	str	ip, [r0]
   3b350:	e3e000df 	mvn	r0, #223	; 0xdf
   3b354:	e3a0c001 	mov	ip, #1
   3b358:	e580c000 	str	ip, [r0]
   3b35c:	e3e0002b 	mvn	r0, #43	; 0x2b
   3b360:	e3a0c007 	mov	ip, #7
   3b364:	e580c000 	str	ip, [r0]
   3b368:	e8bd8008 	pop	{r3, pc}

0003b36c <systemPowerDown>:
   3b36c:	e92d4008 	push	{r3, lr}
   3b370:	e58d0000 	str	r0, [sp]
   3b374:	e3e000cb 	mvn	r0, #203	; 0xcb
   3b378:	e59dc000 	ldr	ip, [sp]
   3b37c:	e20cc0ff 	and	ip, ip, #255	; 0xff
   3b380:	e580c000 	str	ip, [r0]
   3b384:	e59dc000 	ldr	ip, [sp]
   3b388:	e3e000c3 	mvn	r0, #195	; 0xc3
   3b38c:	e7ebc45c 	ubfx	ip, ip, #8, #12
   3b390:	e580c000 	str	ip, [r0]
   3b394:	eb00193d 	bl	41890 <_gotoCPUIdle_>
   3b398:	e8bd8008 	pop	{r3, pc}

0003b39c <systemGetConfigValue>:
   3b39c:	e24dd008 	sub	sp, sp, #8
   3b3a0:	e5cd1004 	strb	r1, [sp, #4]
   3b3a4:	e58d0000 	str	r0, [sp]
   3b3a8:	e5ddc004 	ldrb	ip, [sp, #4]
   3b3ac:	e35c0000 	cmp	ip, #0
   3b3b0:	1a000076 	bne	3b590 <systemGetConfigValue+0x1f4>
   3b3b4:	e59dc000 	ldr	ip, [sp]
   3b3b8:	e3a00000 	mov	r0, #0
   3b3bc:	e58c0000 	str	r0, [ip]
   3b3c0:	e59dc000 	ldr	ip, [sp]
   3b3c4:	e3a00001 	mov	r0, #1
   3b3c8:	e58c0004 	str	r0, [ip, #4]
   3b3cc:	e59dc000 	ldr	ip, [sp]
   3b3d0:	e3a00000 	mov	r0, #0
   3b3d4:	e58c0008 	str	r0, [ip, #8]
   3b3d8:	e59dc000 	ldr	ip, [sp]
   3b3dc:	e3a00000 	mov	r0, #0
   3b3e0:	e58c000c 	str	r0, [ip, #12]
   3b3e4:	e59dc000 	ldr	ip, [sp]
   3b3e8:	e3a00001 	mov	r0, #1
   3b3ec:	e58c0010 	str	r0, [ip, #16]
   3b3f0:	e59dc000 	ldr	ip, [sp]
   3b3f4:	e3a0008c 	mov	r0, #140	; 0x8c
   3b3f8:	e58c0014 	str	r0, [ip, #20]
   3b3fc:	e59dc000 	ldr	ip, [sp]
   3b400:	e3a00b01 	mov	r0, #1024	; 0x400
   3b404:	e58c0018 	str	r0, [ip, #24]
   3b408:	e59dc000 	ldr	ip, [sp]
   3b40c:	e3a00001 	mov	r0, #1
   3b410:	e58c001c 	str	r0, [ip, #28]
   3b414:	e59dc000 	ldr	ip, [sp]
   3b418:	e3000909 	movw	r0, #2313	; 0x909
   3b41c:	e58c0020 	str	r0, [ip, #32]
   3b420:	e59dc000 	ldr	ip, [sp]
   3b424:	e59f06bc 	ldr	r0, [pc, #1724]	; 3bae8 <customTrimLPO+0x48>
   3b428:	e58c0024 	str	r0, [ip, #36]	; 0x24
   3b42c:	e59dc000 	ldr	ip, [sp]
   3b430:	e3000105 	movw	r0, #261	; 0x105
   3b434:	e58c0028 	str	r0, [ip, #40]	; 0x28
   3b438:	e59dc000 	ldr	ip, [sp]
   3b43c:	e3a00005 	mov	r0, #5
   3b440:	e58c002c 	str	r0, [ip, #44]	; 0x2c
   3b444:	e59dc000 	ldr	ip, [sp]
   3b448:	e3a00000 	mov	r0, #0
   3b44c:	e58c0030 	str	r0, [ip, #48]	; 0x30
   3b450:	e59dc000 	ldr	ip, [sp]
   3b454:	e59f06a0 	ldr	r0, [pc, #1696]	; 3bafc <customTrimLPO+0x5c>
   3b458:	e58c0034 	str	r0, [ip, #52]	; 0x34
   3b45c:	e59dc000 	ldr	ip, [sp]
   3b460:	e59f064c 	ldr	r0, [pc, #1612]	; 3bab4 <customTrimLPO+0x14>
   3b464:	e58c0038 	str	r0, [ip, #56]	; 0x38
   3b468:	e59dc000 	ldr	ip, [sp]
   3b46c:	e3a00000 	mov	r0, #0
   3b470:	e58c003c 	str	r0, [ip, #60]	; 0x3c
   3b474:	e59fc644 	ldr	ip, [pc, #1604]	; 3bac0 <customTrimLPO+0x20>
   3b478:	e59f063c 	ldr	r0, [pc, #1596]	; 3babc <customTrimLPO+0x1c>
   3b47c:	e59cc000 	ldr	ip, [ip]
   3b480:	e000c00c 	and	ip, r0, ip
   3b484:	e30f0fff 	movw	r0, #65535	; 0xffff
   3b488:	e150082c 	cmp	r0, ip, lsr #16
   3b48c:	0a000008 	beq	3b4b4 <systemGetConfigValue+0x118>
   3b490:	e59fc628 	ldr	ip, [pc, #1576]	; 3bac0 <customTrimLPO+0x20>
   3b494:	e59f1620 	ldr	r1, [pc, #1568]	; 3babc <customTrimLPO+0x1c>
   3b498:	e59cc000 	ldr	ip, [ip]
   3b49c:	e59d0000 	ldr	r0, [sp]
   3b4a0:	e001c00c 	and	ip, r1, ip
   3b4a4:	e1a0c82c 	lsr	ip, ip, #16
   3b4a8:	e38cc401 	orr	ip, ip, #16777216	; 0x1000000
   3b4ac:	e580c040 	str	ip, [r0, #64]	; 0x40
   3b4b0:	ea000002 	b	3b4c0 <systemGetConfigValue+0x124>
   3b4b4:	e59dc000 	ldr	ip, [sp]
   3b4b8:	e59f0640 	ldr	r0, [pc, #1600]	; 3bb00 <customTrimLPO+0x60>
   3b4bc:	e58c0040 	str	r0, [ip, #64]	; 0x40
   3b4c0:	e59dc000 	ldr	ip, [sp]
   3b4c4:	e3a0080a 	mov	r0, #655360	; 0xa0000
   3b4c8:	e58c0044 	str	r0, [ip, #68]	; 0x44
   3b4cc:	e59dc000 	ldr	ip, [sp]
   3b4d0:	e3020205 	movw	r0, #8709	; 0x2205
   3b4d4:	e58c0048 	str	r0, [ip, #72]	; 0x48
   3b4d8:	e59dc000 	ldr	ip, [sp]
   3b4dc:	e3a00005 	mov	r0, #5
   3b4e0:	e58c004c 	str	r0, [ip, #76]	; 0x4c
   3b4e4:	e59dc000 	ldr	ip, [sp]
   3b4e8:	e59f0614 	ldr	r0, [pc, #1556]	; 3bb04 <customTrimLPO+0x64>
   3b4ec:	e58c0050 	str	r0, [ip, #80]	; 0x50
   3b4f0:	e59dc000 	ldr	ip, [sp]
   3b4f4:	e3a00805 	mov	r0, #327680	; 0x50000
   3b4f8:	e58c0054 	str	r0, [ip, #84]	; 0x54
   3b4fc:	e59dc000 	ldr	ip, [sp]
   3b500:	e3a0000a 	mov	r0, #10
   3b504:	e58c0058 	str	r0, [ip, #88]	; 0x58
   3b508:	e59dc000 	ldr	ip, [sp]
   3b50c:	e3a00000 	mov	r0, #0
   3b510:	e58c005c 	str	r0, [ip, #92]	; 0x5c
   3b514:	e59dc000 	ldr	ip, [sp]
   3b518:	e59f05e8 	ldr	r0, [pc, #1512]	; 3bb08 <customTrimLPO+0x68>
   3b51c:	e58c0060 	str	r0, [ip, #96]	; 0x60
   3b520:	e59dc000 	ldr	ip, [sp]
   3b524:	e3a00007 	mov	r0, #7
   3b528:	e58c0064 	str	r0, [ip, #100]	; 0x64
   3b52c:	e59dc000 	ldr	ip, [sp]
   3b530:	e3a0000a 	mov	r0, #10
   3b534:	e58c0068 	str	r0, [ip, #104]	; 0x68
   3b538:	e59dc000 	ldr	ip, [sp]
   3b53c:	e3a00901 	mov	r0, #16384	; 0x4000
   3b540:	e58c006c 	str	r0, [ip, #108]	; 0x6c
   3b544:	e59dc000 	ldr	ip, [sp]
   3b548:	e59f05ac 	ldr	r0, [pc, #1452]	; 3bafc <customTrimLPO+0x5c>
   3b54c:	e58c0070 	str	r0, [ip, #112]	; 0x70
   3b550:	e59dc000 	ldr	ip, [sp]
   3b554:	e3a00000 	mov	r0, #0
   3b558:	e58c0074 	str	r0, [ip, #116]	; 0x74
   3b55c:	e59dc000 	ldr	ip, [sp]
   3b560:	e3000103 	movw	r0, #259	; 0x103
   3b564:	e58c0078 	str	r0, [ip, #120]	; 0x78
   3b568:	e59dc000 	ldr	ip, [sp]
   3b56c:	e59f0598 	ldr	r0, [pc, #1432]	; 3bb0c <customTrimLPO+0x6c>
   3b570:	e58c007c 	str	r0, [ip, #124]	; 0x7c
   3b574:	e59dc000 	ldr	ip, [sp]
   3b578:	e3a00005 	mov	r0, #5
   3b57c:	e58c0080 	str	r0, [ip, #128]	; 0x80
   3b580:	e59dc000 	ldr	ip, [sp]
   3b584:	e3a00005 	mov	r0, #5
   3b588:	e58c0084 	str	r0, [ip, #132]	; 0x84
   3b58c:	ea000087 	b	3b7b0 <systemGetConfigValue+0x414>
   3b590:	e3e0c0ff 	mvn	ip, #255	; 0xff
   3b594:	e59d0000 	ldr	r0, [sp]
   3b598:	e59cc000 	ldr	ip, [ip]
   3b59c:	e580c000 	str	ip, [r0]
   3b5a0:	e3e0c0fb 	mvn	ip, #251	; 0xfb
   3b5a4:	e59d0000 	ldr	r0, [sp]
   3b5a8:	e59cc000 	ldr	ip, [ip]
   3b5ac:	e580c004 	str	ip, [r0, #4]
   3b5b0:	e3e0c0e7 	mvn	ip, #231	; 0xe7
   3b5b4:	e59d0000 	ldr	r0, [sp]
   3b5b8:	e59cc000 	ldr	ip, [ip]
   3b5bc:	e580c008 	str	ip, [r0, #8]
   3b5c0:	e3e0c0e3 	mvn	ip, #227	; 0xe3
   3b5c4:	e59d0000 	ldr	r0, [sp]
   3b5c8:	e59cc000 	ldr	ip, [ip]
   3b5cc:	e580c00c 	str	ip, [r0, #12]
   3b5d0:	e3e0c0df 	mvn	ip, #223	; 0xdf
   3b5d4:	e59d0000 	ldr	r0, [sp]
   3b5d8:	e59cc000 	ldr	ip, [ip]
   3b5dc:	e580c010 	str	ip, [r0, #16]
   3b5e0:	e3e0c0cf 	mvn	ip, #207	; 0xcf
   3b5e4:	e59d0000 	ldr	r0, [sp]
   3b5e8:	e59cc000 	ldr	ip, [ip]
   3b5ec:	e580c014 	str	ip, [r0, #20]
   3b5f0:	e3e0c0c3 	mvn	ip, #195	; 0xc3
   3b5f4:	e59d0000 	ldr	r0, [sp]
   3b5f8:	e59cc000 	ldr	ip, [ip]
   3b5fc:	e580c018 	str	ip, [r0, #24]
   3b600:	e3e0c0b7 	mvn	ip, #183	; 0xb7
   3b604:	e59d0000 	ldr	r0, [sp]
   3b608:	e59cc000 	ldr	ip, [ip]
   3b60c:	e580c01c 	str	ip, [r0, #28]
   3b610:	e3e0c0b3 	mvn	ip, #179	; 0xb3
   3b614:	e59d0000 	ldr	r0, [sp]
   3b618:	e59cc000 	ldr	ip, [ip]
   3b61c:	e580c020 	str	ip, [r0, #32]
   3b620:	e3e0c0af 	mvn	ip, #175	; 0xaf
   3b624:	e59d0000 	ldr	r0, [sp]
   3b628:	e59cc000 	ldr	ip, [ip]
   3b62c:	e580c024 	str	ip, [r0, #36]	; 0x24
   3b630:	e3e0c0a7 	mvn	ip, #167	; 0xa7
   3b634:	e59d0000 	ldr	r0, [sp]
   3b638:	e59cc000 	ldr	ip, [ip]
   3b63c:	e580c028 	str	ip, [r0, #40]	; 0x28
   3b640:	e3e0c0a3 	mvn	ip, #163	; 0xa3
   3b644:	e59d0000 	ldr	r0, [sp]
   3b648:	e59cc000 	ldr	ip, [ip]
   3b64c:	e580c02c 	str	ip, [r0, #44]	; 0x2c
   3b650:	e3e0c09f 	mvn	ip, #159	; 0x9f
   3b654:	e59d0000 	ldr	r0, [sp]
   3b658:	e59cc000 	ldr	ip, [ip]
   3b65c:	e580c030 	str	ip, [r0, #48]	; 0x30
   3b660:	e3e0c08f 	mvn	ip, #143	; 0x8f
   3b664:	e59d0000 	ldr	r0, [sp]
   3b668:	e59cc000 	ldr	ip, [ip]
   3b66c:	e580c034 	str	ip, [r0, #52]	; 0x34
   3b670:	e3e0c08b 	mvn	ip, #139	; 0x8b
   3b674:	e59d0000 	ldr	r0, [sp]
   3b678:	e59cc000 	ldr	ip, [ip]
   3b67c:	e580c038 	str	ip, [r0, #56]	; 0x38
   3b680:	e3e0c087 	mvn	ip, #135	; 0x87
   3b684:	e59d0000 	ldr	r0, [sp]
   3b688:	e59cc000 	ldr	ip, [ip]
   3b68c:	e580c03c 	str	ip, [r0, #60]	; 0x3c
   3b690:	e3e0c077 	mvn	ip, #119	; 0x77
   3b694:	e59d0000 	ldr	r0, [sp]
   3b698:	e59cc000 	ldr	ip, [ip]
   3b69c:	e580c040 	str	ip, [r0, #64]	; 0x40
   3b6a0:	e3e0c073 	mvn	ip, #115	; 0x73
   3b6a4:	e59d0000 	ldr	r0, [sp]
   3b6a8:	e59cc000 	ldr	ip, [ip]
   3b6ac:	e580c044 	str	ip, [r0, #68]	; 0x44
   3b6b0:	e3e0c06f 	mvn	ip, #111	; 0x6f
   3b6b4:	e59d0000 	ldr	r0, [sp]
   3b6b8:	e59cc000 	ldr	ip, [ip]
   3b6bc:	e580c048 	str	ip, [r0, #72]	; 0x48
   3b6c0:	e3e0c06b 	mvn	ip, #107	; 0x6b
   3b6c4:	e59d0000 	ldr	r0, [sp]
   3b6c8:	e59cc000 	ldr	ip, [ip]
   3b6cc:	e580c04c 	str	ip, [r0, #76]	; 0x4c
   3b6d0:	e3e0c05f 	mvn	ip, #95	; 0x5f
   3b6d4:	e59d0000 	ldr	r0, [sp]
   3b6d8:	e59cc000 	ldr	ip, [ip]
   3b6dc:	e580c050 	str	ip, [r0, #80]	; 0x50
   3b6e0:	e3e0c03f 	mvn	ip, #63	; 0x3f
   3b6e4:	e59d0000 	ldr	r0, [sp]
   3b6e8:	e59cc000 	ldr	ip, [ip]
   3b6ec:	e580c054 	str	ip, [r0, #84]	; 0x54
   3b6f0:	e3e0c03b 	mvn	ip, #59	; 0x3b
   3b6f4:	e59d0000 	ldr	r0, [sp]
   3b6f8:	e59cc000 	ldr	ip, [ip]
   3b6fc:	e580c058 	str	ip, [r0, #88]	; 0x58
   3b700:	e3e0c033 	mvn	ip, #51	; 0x33
   3b704:	e59d0000 	ldr	r0, [sp]
   3b708:	e59cc000 	ldr	ip, [ip]
   3b70c:	e580c05c 	str	ip, [r0, #92]	; 0x5c
   3b710:	e3e0c02f 	mvn	ip, #47	; 0x2f
   3b714:	e59d0000 	ldr	r0, [sp]
   3b718:	e59cc000 	ldr	ip, [ip]
   3b71c:	e580c060 	str	ip, [r0, #96]	; 0x60
   3b720:	e3e0c02b 	mvn	ip, #43	; 0x2b
   3b724:	e59d0000 	ldr	r0, [sp]
   3b728:	e59cc000 	ldr	ip, [ip]
   3b72c:	e580c064 	str	ip, [r0, #100]	; 0x64
   3b730:	e3e0c023 	mvn	ip, #35	; 0x23
   3b734:	e59d0000 	ldr	r0, [sp]
   3b738:	e59cc000 	ldr	ip, [ip]
   3b73c:	e580c068 	str	ip, [r0, #104]	; 0x68
   3b740:	e3e0c01f 	mvn	ip, #31
   3b744:	e59d0000 	ldr	r0, [sp]
   3b748:	e59cc000 	ldr	ip, [ip]
   3b74c:	e580c06c 	str	ip, [r0, #108]	; 0x6c
   3b750:	e59fc360 	ldr	ip, [pc, #864]	; 3bab8 <customTrimLPO+0x18>
   3b754:	e59d0000 	ldr	r0, [sp]
   3b758:	e59cc000 	ldr	ip, [ip]
   3b75c:	e580c070 	str	ip, [r0, #112]	; 0x70
   3b760:	e59fc3a8 	ldr	ip, [pc, #936]	; 3bb10 <customTrimLPO+0x70>
   3b764:	e59d0000 	ldr	r0, [sp]
   3b768:	e59cc000 	ldr	ip, [ip]
   3b76c:	e580c074 	str	ip, [r0, #116]	; 0x74
   3b770:	e59fc374 	ldr	ip, [pc, #884]	; 3baec <customTrimLPO+0x4c>
   3b774:	e59d0000 	ldr	r0, [sp]
   3b778:	e59cc000 	ldr	ip, [ip]
   3b77c:	e580c078 	str	ip, [r0, #120]	; 0x78
   3b780:	e59fc36c 	ldr	ip, [pc, #876]	; 3baf4 <customTrimLPO+0x54>
   3b784:	e59d0000 	ldr	r0, [sp]
   3b788:	e59cc000 	ldr	ip, [ip]
   3b78c:	e580c07c 	str	ip, [r0, #124]	; 0x7c
   3b790:	e59fc37c 	ldr	ip, [pc, #892]	; 3bb14 <customTrimLPO+0x74>
   3b794:	e59d0000 	ldr	r0, [sp]
   3b798:	e59cc000 	ldr	ip, [ip]
   3b79c:	e580c080 	str	ip, [r0, #128]	; 0x80
   3b7a0:	e59fc370 	ldr	ip, [pc, #880]	; 3bb18 <customTrimLPO+0x78>
   3b7a4:	e59d0000 	ldr	r0, [sp]
   3b7a8:	e59cc000 	ldr	ip, [ip]
   3b7ac:	e580c084 	str	ip, [r0, #132]	; 0x84
   3b7b0:	e28dd008 	add	sp, sp, #8
   3b7b4:	e12fff1e 	bx	lr

0003b7b8 <tcmflashGetConfigValue>:
   3b7b8:	e24dd008 	sub	sp, sp, #8
   3b7bc:	e5cd1004 	strb	r1, [sp, #4]
   3b7c0:	e58d0000 	str	r0, [sp]
   3b7c4:	e5ddc004 	ldrb	ip, [sp, #4]
   3b7c8:	e35c0000 	cmp	ip, #0
   3b7cc:	1a00002a 	bne	3b87c <tcmflashGetConfigValue+0xc4>
   3b7d0:	e59dc000 	ldr	ip, [sp]
   3b7d4:	e3000311 	movw	r0, #785	; 0x311
   3b7d8:	e58c0000 	str	r0, [ip]
   3b7dc:	e59dc000 	ldr	ip, [sp]
   3b7e0:	e59f0334 	ldr	r0, [pc, #820]	; 3bb1c <customTrimLPO+0x7c>
   3b7e4:	e58c0004 	str	r0, [ip, #4]
   3b7e8:	e59dc000 	ldr	ip, [sp]
   3b7ec:	e3a00000 	mov	r0, #0
   3b7f0:	e58c0008 	str	r0, [ip, #8]
   3b7f4:	e59dc000 	ldr	ip, [sp]
   3b7f8:	e3a00000 	mov	r0, #0
   3b7fc:	e58c000c 	str	r0, [ip, #12]
   3b800:	e59dc000 	ldr	ip, [sp]
   3b804:	e3a00000 	mov	r0, #0
   3b808:	e58c0010 	str	r0, [ip, #16]
   3b80c:	e59dc000 	ldr	ip, [sp]
   3b810:	e3a00000 	mov	r0, #0
   3b814:	e58c0014 	str	r0, [ip, #20]
   3b818:	e59dc000 	ldr	ip, [sp]
   3b81c:	e3a0000f 	mov	r0, #15
   3b820:	e58c0018 	str	r0, [ip, #24]
   3b824:	e59dc000 	ldr	ip, [sp]
   3b828:	e30f0fff 	movw	r0, #65535	; 0xffff
   3b82c:	e58c001c 	str	r0, [ip, #28]
   3b830:	e59dc000 	ldr	ip, [sp]
   3b834:	e59f02e4 	ldr	r0, [pc, #740]	; 3bb20 <customTrimLPO+0x80>
   3b838:	e58c0020 	str	r0, [ip, #32]
   3b83c:	e59dc000 	ldr	ip, [sp]
   3b840:	e3a00000 	mov	r0, #0
   3b844:	e58c0024 	str	r0, [ip, #36]	; 0x24
   3b848:	e59dc000 	ldr	ip, [sp]
   3b84c:	e3a00000 	mov	r0, #0
   3b850:	e58c0028 	str	r0, [ip, #40]	; 0x28
   3b854:	e59dc000 	ldr	ip, [sp]
   3b858:	e30505aa 	movw	r0, #21930	; 0x55aa
   3b85c:	e58c002c 	str	r0, [ip, #44]	; 0x2c
   3b860:	e59dc000 	ldr	ip, [sp]
   3b864:	e3a0080a 	mov	r0, #655360	; 0xa0000
   3b868:	e58c0030 	str	r0, [ip, #48]	; 0x30
   3b86c:	e59dc000 	ldr	ip, [sp]
   3b870:	e3a00000 	mov	r0, #0
   3b874:	e58c0034 	str	r0, [ip, #52]	; 0x34
   3b878:	ea000037 	b	3b95c <tcmflashGetConfigValue+0x1a4>
   3b87c:	e59fc240 	ldr	ip, [pc, #576]	; 3bac4 <customTrimLPO+0x24>
   3b880:	e59d0000 	ldr	r0, [sp]
   3b884:	e59cc000 	ldr	ip, [ip]
   3b888:	e580c000 	str	ip, [r0]
   3b88c:	e59fc290 	ldr	ip, [pc, #656]	; 3bb24 <customTrimLPO+0x84>
   3b890:	e59d0000 	ldr	r0, [sp]
   3b894:	e59cc000 	ldr	ip, [ip]
   3b898:	e580c004 	str	ip, [r0, #4]
   3b89c:	e59fc284 	ldr	ip, [pc, #644]	; 3bb28 <customTrimLPO+0x88>
   3b8a0:	e59d0000 	ldr	r0, [sp]
   3b8a4:	e59cc000 	ldr	ip, [ip]
   3b8a8:	e580c008 	str	ip, [r0, #8]
   3b8ac:	e59fc278 	ldr	ip, [pc, #632]	; 3bb2c <customTrimLPO+0x8c>
   3b8b0:	e59d0000 	ldr	r0, [sp]
   3b8b4:	e59cc000 	ldr	ip, [ip]
   3b8b8:	e580c00c 	str	ip, [r0, #12]
   3b8bc:	e59fc26c 	ldr	ip, [pc, #620]	; 3bb30 <customTrimLPO+0x90>
   3b8c0:	e59d0000 	ldr	r0, [sp]
   3b8c4:	e59cc000 	ldr	ip, [ip]
   3b8c8:	e580c010 	str	ip, [r0, #16]
   3b8cc:	e59fc260 	ldr	ip, [pc, #608]	; 3bb34 <customTrimLPO+0x94>
   3b8d0:	e59d0000 	ldr	r0, [sp]
   3b8d4:	e59cc000 	ldr	ip, [ip]
   3b8d8:	e580c014 	str	ip, [r0, #20]
   3b8dc:	e59fc254 	ldr	ip, [pc, #596]	; 3bb38 <customTrimLPO+0x98>
   3b8e0:	e59d0000 	ldr	r0, [sp]
   3b8e4:	e59cc000 	ldr	ip, [ip]
   3b8e8:	e580c018 	str	ip, [r0, #24]
   3b8ec:	e59fc1e0 	ldr	ip, [pc, #480]	; 3bad4 <customTrimLPO+0x34>
   3b8f0:	e59d0000 	ldr	r0, [sp]
   3b8f4:	e59cc000 	ldr	ip, [ip]
   3b8f8:	e580c01c 	str	ip, [r0, #28]
   3b8fc:	e59fc238 	ldr	ip, [pc, #568]	; 3bb3c <customTrimLPO+0x9c>
   3b900:	e59d0000 	ldr	r0, [sp]
   3b904:	e59cc000 	ldr	ip, [ip]
   3b908:	e580c020 	str	ip, [r0, #32]
   3b90c:	e59fc22c 	ldr	ip, [pc, #556]	; 3bb40 <customTrimLPO+0xa0>
   3b910:	e59d0000 	ldr	r0, [sp]
   3b914:	e59cc000 	ldr	ip, [ip]
   3b918:	e580c024 	str	ip, [r0, #36]	; 0x24
   3b91c:	e59fc220 	ldr	ip, [pc, #544]	; 3bb44 <customTrimLPO+0xa4>
   3b920:	e59d0000 	ldr	r0, [sp]
   3b924:	e59cc000 	ldr	ip, [ip]
   3b928:	e580c028 	str	ip, [r0, #40]	; 0x28
   3b92c:	e59fc214 	ldr	ip, [pc, #532]	; 3bb48 <customTrimLPO+0xa8>
   3b930:	e59d0000 	ldr	r0, [sp]
   3b934:	e59cc000 	ldr	ip, [ip]
   3b938:	e580c02c 	str	ip, [r0, #44]	; 0x2c
   3b93c:	e59fc208 	ldr	ip, [pc, #520]	; 3bb4c <customTrimLPO+0xac>
   3b940:	e59d0000 	ldr	r0, [sp]
   3b944:	e59cc000 	ldr	ip, [ip]
   3b948:	e580c030 	str	ip, [r0, #48]	; 0x30
   3b94c:	e59fc1fc 	ldr	ip, [pc, #508]	; 3bb50 <customTrimLPO+0xb0>
   3b950:	e59d0000 	ldr	r0, [sp]
   3b954:	e59cc000 	ldr	ip, [ip]
   3b958:	e580c034 	str	ip, [r0, #52]	; 0x34
   3b95c:	e28dd008 	add	sp, sp, #8
   3b960:	e12fff1e 	bx	lr

0003b964 <sramGetConfigValue>:
   3b964:	e24dd008 	sub	sp, sp, #8
   3b968:	e5cd1004 	strb	r1, [sp, #4]
   3b96c:	e58d0000 	str	r0, [sp]
   3b970:	e5ddc004 	ldrb	ip, [sp, #4]
   3b974:	e35c0000 	cmp	ip, #0
   3b978:	1a00001e 	bne	3b9f8 <sramGetConfigValue+0x94>
   3b97c:	e59dc000 	ldr	ip, [sp]
   3b980:	e59f01cc 	ldr	r0, [pc, #460]	; 3bb54 <customTrimLPO+0xb4>
   3b984:	e58c0000 	str	r0, [ip]
   3b988:	e59dc000 	ldr	ip, [sp]
   3b98c:	e3a00001 	mov	r0, #1
   3b990:	e58c0008 	str	r0, [ip, #8]
   3b994:	e59dc000 	ldr	ip, [sp]
   3b998:	e3a00001 	mov	r0, #1
   3b99c:	e58c0010 	str	r0, [ip, #16]
   3b9a0:	e59dc000 	ldr	ip, [sp]
   3b9a4:	e3a00005 	mov	r0, #5
   3b9a8:	e58c0018 	str	r0, [ip, #24]
   3b9ac:	e59dc000 	ldr	ip, [sp]
   3b9b0:	e3a00000 	mov	r0, #0
   3b9b4:	e58c0020 	str	r0, [ip, #32]
   3b9b8:	e59dc000 	ldr	ip, [sp]
   3b9bc:	e59f0190 	ldr	r0, [pc, #400]	; 3bb54 <customTrimLPO+0xb4>
   3b9c0:	e58c0004 	str	r0, [ip, #4]
   3b9c4:	e59dc000 	ldr	ip, [sp]
   3b9c8:	e3a00001 	mov	r0, #1
   3b9cc:	e58c000c 	str	r0, [ip, #12]
   3b9d0:	e59dc000 	ldr	ip, [sp]
   3b9d4:	e3a00001 	mov	r0, #1
   3b9d8:	e58c0014 	str	r0, [ip, #20]
   3b9dc:	e59dc000 	ldr	ip, [sp]
   3b9e0:	e3a00005 	mov	r0, #5
   3b9e4:	e58c001c 	str	r0, [ip, #28]
   3b9e8:	e59dc000 	ldr	ip, [sp]
   3b9ec:	e3a00000 	mov	r0, #0
   3b9f0:	e58c0024 	str	r0, [ip, #36]	; 0x24
   3b9f4:	ea000027 	b	3ba98 <sramGetConfigValue+0x134>
   3b9f8:	e59fc158 	ldr	ip, [pc, #344]	; 3bb58 <customTrimLPO+0xb8>
   3b9fc:	e59d0000 	ldr	r0, [sp]
   3ba00:	e59cc000 	ldr	ip, [ip]
   3ba04:	e580c000 	str	ip, [r0]
   3ba08:	e59fc14c 	ldr	ip, [pc, #332]	; 3bb5c <customTrimLPO+0xbc>
   3ba0c:	e59d0000 	ldr	r0, [sp]
   3ba10:	e59cc000 	ldr	ip, [ip]
   3ba14:	e580c008 	str	ip, [r0, #8]
   3ba18:	e59fc140 	ldr	ip, [pc, #320]	; 3bb60 <customTrimLPO+0xc0>
   3ba1c:	e59d0000 	ldr	r0, [sp]
   3ba20:	e59cc000 	ldr	ip, [ip]
   3ba24:	e580c010 	str	ip, [r0, #16]
   3ba28:	e59fc134 	ldr	ip, [pc, #308]	; 3bb64 <customTrimLPO+0xc4>
   3ba2c:	e59d0000 	ldr	r0, [sp]
   3ba30:	e59cc000 	ldr	ip, [ip]
   3ba34:	e580c018 	str	ip, [r0, #24]
   3ba38:	e59fc128 	ldr	ip, [pc, #296]	; 3bb68 <customTrimLPO+0xc8>
   3ba3c:	e59d0000 	ldr	r0, [sp]
   3ba40:	e59cc000 	ldr	ip, [ip]
   3ba44:	e580c020 	str	ip, [r0, #32]
   3ba48:	e59fc11c 	ldr	ip, [pc, #284]	; 3bb6c <customTrimLPO+0xcc>
   3ba4c:	e59d0000 	ldr	r0, [sp]
   3ba50:	e59cc000 	ldr	ip, [ip]
   3ba54:	e580c004 	str	ip, [r0, #4]
   3ba58:	e59fc110 	ldr	ip, [pc, #272]	; 3bb70 <customTrimLPO+0xd0>
   3ba5c:	e59d0000 	ldr	r0, [sp]
   3ba60:	e59cc000 	ldr	ip, [ip]
   3ba64:	e580c00c 	str	ip, [r0, #12]
   3ba68:	e59fc104 	ldr	ip, [pc, #260]	; 3bb74 <customTrimLPO+0xd4>
   3ba6c:	e59d0000 	ldr	r0, [sp]
   3ba70:	e59cc000 	ldr	ip, [ip]
   3ba74:	e580c014 	str	ip, [r0, #20]
   3ba78:	e59fc0f8 	ldr	ip, [pc, #248]	; 3bb78 <customTrimLPO+0xd8>
   3ba7c:	e59d0000 	ldr	r0, [sp]
   3ba80:	e59cc000 	ldr	ip, [ip]
   3ba84:	e580c01c 	str	ip, [r0, #28]
   3ba88:	e59fc0ec 	ldr	ip, [pc, #236]	; 3bb7c <customTrimLPO+0xdc>
   3ba8c:	e59d0000 	ldr	r0, [sp]
   3ba90:	e59cc000 	ldr	ip, [ip]
   3ba94:	e580c024 	str	ip, [r0, #36]	; 0x24
   3ba98:	e28dd008 	add	sp, sp, #8
   3ba9c:	e12fff1e 	bx	lr

0003baa0 <customTrimLPO>:
   3baa0:	e3e00077 	mvn	r0, #119	; 0x77
   3baa4:	e59fc054 	ldr	ip, [pc, #84]	; 3bb00 <customTrimLPO+0x60>
   3baa8:	e580c000 	str	ip, [r0]
   3baac:	e12fff1e 	bx	lr
   3bab0:	3f058600 	.word	0x3f058600
   3bab4:	3fc0723d 	.word	0x3fc0723d
   3bab8:	ffffe100 	.word	0xffffe100
   3babc:	ffff0000 	.word	0xffff0000
   3bac0:	f00801b4 	.word	0xf00801b4
   3bac4:	fff87000 	.word	0xfff87000
   3bac8:	fff87288 	.word	0xfff87288
   3bacc:	fff872b8 	.word	0xfff872b8
   3bad0:	00030002 	.word	0x00030002
   3bad4:	fff87040 	.word	0xfff87040
   3bad8:	ffffe0a0 	.word	0xffffe0a0
   3badc:	ffffe0a4 	.word	0xffffe0a4
   3bae0:	ffffe0a8 	.word	0xffffe0a8
   3bae4:	ffffe0ac 	.word	0xffffe0ac
   3bae8:	01090109 	.word	0x01090109
   3baec:	ffffe13c 	.word	0xffffe13c
   3baf0:	fffff0f0 	.word	0xfffff0f0
   3baf4:	ffffe140 	.word	0xffffe140
   3baf8:	00090009 	.word	0x00090009
   3bafc:	20058600 	.word	0x20058600
   3bb00:	01001010 	.word	0x01001010
   3bb04:	0005ffff 	.word	0x0005ffff
   3bb08:	01010100 	.word	0x01010100
   3bb0c:	01190119 	.word	0x01190119
   3bb10:	ffffe108 	.word	0xffffe108
   3bb14:	ffffe170 	.word	0xffffe170
   3bb18:	ffffe1ec 	.word	0xffffe1ec
   3bb1c:	000a0005 	.word	0x000a0005
   3bb20:	00c80001 	.word	0x00c80001
   3bb24:	fff87008 	.word	0xfff87008
   3bb28:	fff8700c 	.word	0xfff8700c
   3bb2c:	fff87024 	.word	0xfff87024
   3bb30:	fff87030 	.word	0xfff87030
   3bb34:	fff87034 	.word	0xfff87034
   3bb38:	fff8703c 	.word	0xfff8703c
   3bb3c:	fff87048 	.word	0xfff87048
   3bb40:	fff8704c 	.word	0xfff8704c
   3bb44:	fff87050 	.word	0xfff87050
   3bb48:	fff87064 	.word	0xfff87064
   3bb4c:	fff8706c 	.word	0xfff8706c
   3bb50:	fff870c0 	.word	0xfff870c0
   3bb54:	0005000a 	.word	0x0005000a
   3bb58:	fffff800 	.word	0xfffff800
   3bb5c:	fffff804 	.word	0xfffff804
   3bb60:	fffff80c 	.word	0xfffff80c
   3bb64:	fffff830 	.word	0xfffff830
   3bb68:	fffff838 	.word	0xfffff838
   3bb6c:	fffff900 	.word	0xfffff900
   3bb70:	fffff904 	.word	0xfffff904
   3bb74:	fffff90c 	.word	0xfffff90c
   3bb78:	fffff930 	.word	0xfffff930
   3bb7c:	fffff938 	.word	0xfffff938

0003bb80 <__TI_printfi>:
   3bb80:	e92d 4ff0 	stmdb	sp!, {r4, r5, r6, r7, r8, r9, sl, fp, lr}
   3bb84:	f5ad 7dfe 	sub.w	sp, sp, #508	; 0x1fc
   3bb88:	f1ad 0d58 	sub.w	sp, sp, #88	; 0x58
   3bb8c:	6804      	ldr	r4, [r0, #0]
   3bb8e:	9088      	str	r0, [sp, #544]	; 0x220
   3bb90:	460d      	mov	r5, r1
   3bb92:	999e      	ldr	r1, [sp, #632]	; 0x278
   3bb94:	4616      	mov	r6, r2
   3bb96:	6800      	ldr	r0, [r0, #0]
   3bb98:	461f      	mov	r7, r3
   3bb9a:	918b      	str	r1, [sp, #556]	; 0x22c
   3bb9c:	f008 fbb0 	bl	44300 <strlen>
   3bba0:	9590      	str	r5, [sp, #576]	; 0x240
   3bba2:	1900      	adds	r0, r0, r4
   3bba4:	42a0      	cmp	r0, r4
   3bba6:	908c      	str	r0, [sp, #560]	; 0x230
   3bba8:	f04f 0b00 	mov.w	fp, #0
   3bbac:	978a      	str	r7, [sp, #552]	; 0x228
   3bbae:	4659      	mov	r1, fp
   3bbb0:	9689      	str	r6, [sp, #548]	; 0x224
   3bbb2:	f240 8504 	bls.w	3c5be <__TI_printfi+0xa3e>
   3bbb6:	4fb2      	ldr	r7, [pc, #712]	; (3be80 <__TI_printfi+0x300>)
   3bbb8:	4658      	mov	r0, fp
   3bbba:	9791      	str	r7, [sp, #580]	; 0x244
   3bbbc:	9792      	str	r7, [sp, #584]	; 0x248
   3bbbe:	9087      	str	r0, [sp, #540]	; 0x21c
   3bbc0:	9093      	str	r0, [sp, #588]	; 0x24c
   3bbc2:	9186      	str	r1, [sp, #536]	; 0x218
   3bbc4:	9886      	ldr	r0, [sp, #536]	; 0x218
   3bbc6:	f04f 36ff 	mov.w	r6, #4294967295	; 0xffffffff
   3bbca:	9683      	str	r6, [sp, #524]	; 0x20c
   3bbcc:	9081      	str	r0, [sp, #516]	; 0x204
   3bbce:	4607      	mov	r7, r0
   3bbd0:	f88d 7210 	strb.w	r7, [sp, #528]	; 0x210
   3bbd4:	9782      	str	r7, [sp, #520]	; 0x208
   3bbd6:	7827      	ldrb	r7, [r4, #0]
   3bbd8:	2f25      	cmp	r7, #37	; 0x25
   3bbda:	bf08      	it	eq
   3bbdc:	1c02      	addeq	r2, r0, #0
   3bbde:	d015      	beq.n	3bc0c <__TI_printfi+0x8c>
   3bbe0:	2f00      	cmp	r7, #0
   3bbe2:	f000 84ec 	beq.w	3c5be <__TI_printfi+0xa3e>
   3bbe6:	f8dd 8220 	ldr.w	r8, [sp, #544]	; 0x220
   3bbea:	f8d8 1000 	ldr.w	r1, [r8]
   3bbee:	9a8a      	ldr	r2, [sp, #552]	; 0x228
   3bbf0:	7820      	ldrb	r0, [r4, #0]
   3bbf2:	1c49      	adds	r1, r1, #1
   3bbf4:	f8c8 1000 	str.w	r1, [r8]
   3bbf8:	9989      	ldr	r1, [sp, #548]	; 0x224
   3bbfa:	4790      	blx	r2
   3bbfc:	f8d8 4000 	ldr.w	r4, [r8]
   3bc00:	7827      	ldrb	r7, [r4, #0]
   3bc02:	2f25      	cmp	r7, #37	; 0x25
   3bc04:	f10b 0b01 	add.w	fp, fp, #1
   3bc08:	d1ea      	bne.n	3bbe0 <__TI_printfi+0x60>
   3bc0a:	9a81      	ldr	r2, [sp, #516]	; 0x204
   3bc0c:	9988      	ldr	r1, [sp, #544]	; 0x220
   3bc0e:	460b      	mov	r3, r1
   3bc10:	6808      	ldr	r0, [r1, #0]
   3bc12:	9c90      	ldr	r4, [sp, #576]	; 0x240
   3bc14:	1c40      	adds	r0, r0, #1
   3bc16:	6018      	str	r0, [r3, #0]
   3bc18:	e011      	b.n	3bc3e <__TI_printfi+0xbe>
   3bc1a:	f042 0210 	orr.w	r2, r2, #16
   3bc1e:	e00a      	b.n	3bc36 <__TI_printfi+0xb6>
   3bc20:	f042 0201 	orr.w	r2, r2, #1
   3bc24:	e007      	b.n	3bc36 <__TI_printfi+0xb6>
   3bc26:	f042 0202 	orr.w	r2, r2, #2
   3bc2a:	e004      	b.n	3bc36 <__TI_printfi+0xb6>
   3bc2c:	f042 0208 	orr.w	r2, r2, #8
   3bc30:	e001      	b.n	3bc36 <__TI_printfi+0xb6>
   3bc32:	f042 0204 	orr.w	r2, r2, #4
   3bc36:	9281      	str	r2, [sp, #516]	; 0x204
   3bc38:	6808      	ldr	r0, [r1, #0]
   3bc3a:	1c40      	adds	r0, r0, #1
   3bc3c:	6008      	str	r0, [r1, #0]
   3bc3e:	6808      	ldr	r0, [r1, #0]
   3bc40:	7800      	ldrb	r0, [r0, #0]
   3bc42:	3820      	subs	r0, #32
   3bc44:	d0f5      	beq.n	3bc32 <__TI_printfi+0xb2>
   3bc46:	1ec0      	subs	r0, r0, #3
   3bc48:	d0f0      	beq.n	3bc2c <__TI_printfi+0xac>
   3bc4a:	3808      	subs	r0, #8
   3bc4c:	d0eb      	beq.n	3bc26 <__TI_printfi+0xa6>
   3bc4e:	1e80      	subs	r0, r0, #2
   3bc50:	d0e6      	beq.n	3bc20 <__TI_printfi+0xa0>
   3bc52:	461d      	mov	r5, r3
   3bc54:	1ec0      	subs	r0, r0, #3
   3bc56:	d0e0      	beq.n	3bc1a <__TI_printfi+0x9a>
   3bc58:	6828      	ldr	r0, [r5, #0]
   3bc5a:	7801      	ldrb	r1, [r0, #0]
   3bc5c:	292a      	cmp	r1, #42	; 0x2a
   3bc5e:	d017      	beq.n	3bc90 <__TI_printfi+0x110>
   3bc60:	2930      	cmp	r1, #48	; 0x30
   3bc62:	aa01      	add	r2, sp, #4
   3bc64:	db0a      	blt.n	3bc7c <__TI_printfi+0xfc>
   3bc66:	293a      	cmp	r1, #58	; 0x3a
   3bc68:	4601      	mov	r1, r0
   3bc6a:	da07      	bge.n	3bc7c <__TI_printfi+0xfc>
   3bc6c:	1c40      	adds	r0, r0, #1
   3bc6e:	6028      	str	r0, [r5, #0]
   3bc70:	7809      	ldrb	r1, [r1, #0]
   3bc72:	f802 1b01 	strb.w	r1, [r2], #1
   3bc76:	7801      	ldrb	r1, [r0, #0]
   3bc78:	2930      	cmp	r1, #48	; 0x30
   3bc7a:	daf4      	bge.n	3bc66 <__TI_printfi+0xe6>
   3bc7c:	9887      	ldr	r0, [sp, #540]	; 0x21c
   3bc7e:	7010      	strb	r0, [r2, #0]
   3bc80:	f89d 7004 	ldrb.w	r7, [sp, #4]
   3bc84:	b1b7      	cbz	r7, 3bcb4 <__TI_printfi+0x134>
   3bc86:	a801      	add	r0, sp, #4
   3bc88:	f008 f9fa 	bl	44080 <atoi>
   3bc8c:	9082      	str	r0, [sp, #520]	; 0x208
   3bc8e:	e011      	b.n	3bcb4 <__TI_printfi+0x134>
   3bc90:	1ce4      	adds	r4, r4, #3
   3bc92:	f024 0403 	bic.w	r4, r4, #3
   3bc96:	1d24      	adds	r4, r4, #4
   3bc98:	f042 0201 	orr.w	r2, r2, #1
   3bc9c:	f854 0c04 	ldr.w	r0, [r4, #-4]
   3bca0:	2800      	cmp	r0, #0
   3bca2:	d501      	bpl.n	3bca8 <__TI_printfi+0x128>
   3bca4:	9281      	str	r2, [sp, #516]	; 0x204
   3bca6:	4240      	negs	r0, r0
   3bca8:	9082      	str	r0, [sp, #520]	; 0x208
   3bcaa:	6828      	ldr	r0, [r5, #0]
   3bcac:	4627      	mov	r7, r4
   3bcae:	9790      	str	r7, [sp, #576]	; 0x240
   3bcb0:	1c40      	adds	r0, r0, #1
   3bcb2:	6028      	str	r0, [r5, #0]
   3bcb4:	6828      	ldr	r0, [r5, #0]
   3bcb6:	7801      	ldrb	r1, [r0, #0]
   3bcb8:	1c40      	adds	r0, r0, #1
   3bcba:	292e      	cmp	r1, #46	; 0x2e
   3bcbc:	d128      	bne.n	3bd10 <__TI_printfi+0x190>
   3bcbe:	6028      	str	r0, [r5, #0]
   3bcc0:	7801      	ldrb	r1, [r0, #0]
   3bcc2:	292a      	cmp	r1, #42	; 0x2a
   3bcc4:	d019      	beq.n	3bcfa <__TI_printfi+0x17a>
   3bcc6:	2930      	cmp	r1, #48	; 0x30
   3bcc8:	aa01      	add	r2, sp, #4
   3bcca:	db0a      	blt.n	3bce2 <__TI_printfi+0x162>
   3bccc:	293a      	cmp	r1, #58	; 0x3a
   3bcce:	4601      	mov	r1, r0
   3bcd0:	da07      	bge.n	3bce2 <__TI_printfi+0x162>
   3bcd2:	1c40      	adds	r0, r0, #1
   3bcd4:	6028      	str	r0, [r5, #0]
   3bcd6:	7809      	ldrb	r1, [r1, #0]
   3bcd8:	f802 1b01 	strb.w	r1, [r2], #1
   3bcdc:	7801      	ldrb	r1, [r0, #0]
   3bcde:	2930      	cmp	r1, #48	; 0x30
   3bce0:	daf4      	bge.n	3bccc <__TI_printfi+0x14c>
   3bce2:	9887      	ldr	r0, [sp, #540]	; 0x21c
   3bce4:	7010      	strb	r0, [r2, #0]
   3bce6:	f89d 0004 	ldrb.w	r0, [sp, #4]
   3bcea:	2800      	cmp	r0, #0
   3bcec:	bf08      	it	eq
   3bcee:	9887      	ldreq	r0, [sp, #540]	; 0x21c
   3bcf0:	d00d      	beq.n	3bd0e <__TI_printfi+0x18e>
   3bcf2:	a801      	add	r0, sp, #4
   3bcf4:	f008 f9c4 	bl	44080 <atoi>
   3bcf8:	e009      	b.n	3bd0e <__TI_printfi+0x18e>
   3bcfa:	6829      	ldr	r1, [r5, #0]
   3bcfc:	1ce4      	adds	r4, r4, #3
   3bcfe:	f024 0403 	bic.w	r4, r4, #3
   3bd02:	1d24      	adds	r4, r4, #4
   3bd04:	9490      	str	r4, [sp, #576]	; 0x240
   3bd06:	1c49      	adds	r1, r1, #1
   3bd08:	f854 0c04 	ldr.w	r0, [r4, #-4]
   3bd0c:	6029      	str	r1, [r5, #0]
   3bd0e:	9083      	str	r0, [sp, #524]	; 0x20c
   3bd10:	9e81      	ldr	r6, [sp, #516]	; 0x204
   3bd12:	4628      	mov	r0, r5
   3bd14:	6801      	ldr	r1, [r0, #0]
   3bd16:	7808      	ldrb	r0, [r1, #0]
   3bd18:	384c      	subs	r0, #76	; 0x4c
   3bd1a:	d03b      	beq.n	3bd94 <__TI_printfi+0x214>
   3bd1c:	462a      	mov	r2, r5
   3bd1e:	381c      	subs	r0, #28
   3bd20:	d01a      	beq.n	3bd58 <__TI_printfi+0x1d8>
   3bd22:	1e80      	subs	r0, r0, #2
   3bd24:	d031      	beq.n	3bd8a <__TI_printfi+0x20a>
   3bd26:	1e80      	subs	r0, r0, #2
   3bd28:	d006      	beq.n	3bd38 <__TI_printfi+0x1b8>
   3bd2a:	3808      	subs	r0, #8
   3bd2c:	d028      	beq.n	3bd80 <__TI_printfi+0x200>
   3bd2e:	1f80      	subs	r0, r0, #6
   3bd30:	f446 5080 	orr.w	r0, r6, #4096	; 0x1000
   3bd34:	d021      	beq.n	3bd7a <__TI_printfi+0x1fa>
   3bd36:	e036      	b.n	3bda6 <__TI_printfi+0x226>
   3bd38:	1c49      	adds	r1, r1, #1
   3bd3a:	462a      	mov	r2, r5
   3bd3c:	7808      	ldrb	r0, [r1, #0]
   3bd3e:	6011      	str	r1, [r2, #0]
   3bd40:	286c      	cmp	r0, #108	; 0x6c
   3bd42:	bf1c      	itt	ne
   3bd44:	f046 0040 	orrne.w	r0, r6, #64	; 0x40
   3bd48:	f046 0640 	orrne.w	r6, r6, #64	; 0x40
   3bd4c:	d10e      	bne.n	3bd6c <__TI_printfi+0x1ec>
   3bd4e:	f446 7080 	orr.w	r0, r6, #256	; 0x100
   3bd52:	f446 7680 	orr.w	r6, r6, #256	; 0x100
   3bd56:	e021      	b.n	3bd9c <__TI_printfi+0x21c>
   3bd58:	6811      	ldr	r1, [r2, #0]
   3bd5a:	1c49      	adds	r1, r1, #1
   3bd5c:	6011      	str	r1, [r2, #0]
   3bd5e:	7808      	ldrb	r0, [r1, #0]
   3bd60:	2868      	cmp	r0, #104	; 0x68
   3bd62:	f046 0020 	orr.w	r0, r6, #32
   3bd66:	d003      	beq.n	3bd70 <__TI_printfi+0x1f0>
   3bd68:	f046 0620 	orr.w	r6, r6, #32
   3bd6c:	9081      	str	r0, [sp, #516]	; 0x204
   3bd6e:	e01a      	b.n	3bda6 <__TI_printfi+0x226>
   3bd70:	f446 7000 	orr.w	r0, r6, #512	; 0x200
   3bd74:	f446 7600 	orr.w	r6, r6, #512	; 0x200
   3bd78:	e010      	b.n	3bd9c <__TI_printfi+0x21c>
   3bd7a:	f446 5680 	orr.w	r6, r6, #4096	; 0x1000
   3bd7e:	e00d      	b.n	3bd9c <__TI_printfi+0x21c>
   3bd80:	f446 5000 	orr.w	r0, r6, #8192	; 0x2000
   3bd84:	f446 5600 	orr.w	r6, r6, #8192	; 0x2000
   3bd88:	e008      	b.n	3bd9c <__TI_printfi+0x21c>
   3bd8a:	f446 6000 	orr.w	r0, r6, #2048	; 0x800
   3bd8e:	f446 6600 	orr.w	r6, r6, #2048	; 0x800
   3bd92:	e003      	b.n	3bd9c <__TI_printfi+0x21c>
   3bd94:	f046 0080 	orr.w	r0, r6, #128	; 0x80
   3bd98:	f046 0680 	orr.w	r6, r6, #128	; 0x80
   3bd9c:	9081      	str	r0, [sp, #516]	; 0x204
   3bd9e:	4628      	mov	r0, r5
   3bda0:	6801      	ldr	r1, [r0, #0]
   3bda2:	1c49      	adds	r1, r1, #1
   3bda4:	6001      	str	r1, [r0, #0]
   3bda6:	7809      	ldrb	r1, [r1, #0]
   3bda8:	462a      	mov	r2, r5
   3bdaa:	f88d 1210 	strb.w	r1, [sp, #528]	; 0x210
   3bdae:	296e      	cmp	r1, #110	; 0x6e
   3bdb0:	6810      	ldr	r0, [r2, #0]
   3bdb2:	f100 0001 	add.w	r0, r0, #1
   3bdb6:	6010      	str	r0, [r2, #0]
   3bdb8:	f000 83c4 	beq.w	3c544 <__TI_printfi+0x9c4>
   3bdbc:	2973      	cmp	r1, #115	; 0x73
   3bdbe:	f000 831e 	beq.w	3c3fe <__TI_printfi+0x87e>
   3bdc2:	f20d 2001 	addw	r0, sp, #513	; 0x201
   3bdc6:	9d82      	ldr	r5, [sp, #520]	; 0x208
   3bdc8:	2120      	movs	r1, #32
   3bdca:	9085      	str	r0, [sp, #532]	; 0x214
   3bdcc:	f44f 72ff 	mov.w	r2, #510	; 0x1fe
   3bdd0:	a801      	add	r0, sp, #4
   3bdd2:	f007 ffd2 	bl	43d7a <memset>
   3bdd6:	9985      	ldr	r1, [sp, #532]	; 0x214
   3bdd8:	eb0d 0005 	add.w	r0, sp, r5
   3bddc:	9f93      	ldr	r7, [sp, #588]	; 0x24c
   3bdde:	f100 0a04 	add.w	sl, r0, #4
   3bde2:	978d      	str	r7, [sp, #564]	; 0x234
   3bde4:	f50d 7c00 	add.w	ip, sp, #512	; 0x200
   3bde8:	978e      	str	r7, [sp, #568]	; 0x238
   3bdea:	463a      	mov	r2, r7
   3bdec:	700a      	strb	r2, [r1, #0]
   3bdee:	4615      	mov	r5, r2
   3bdf0:	f89d 3210 	ldrb.w	r3, [sp, #528]	; 0x210
   3bdf4:	958f      	str	r5, [sp, #572]	; 0x23c
   3bdf6:	f8cd c214 	str.w	ip, [sp, #532]	; 0x214
   3bdfa:	4618      	mov	r0, r3
   3bdfc:	2864      	cmp	r0, #100	; 0x64
   3bdfe:	dc17      	bgt.n	3be30 <__TI_printfi+0x2b0>
   3be00:	2864      	cmp	r0, #100	; 0x64
   3be02:	d025      	beq.n	3be50 <__TI_printfi+0x2d0>
   3be04:	3825      	subs	r0, #37	; 0x25
   3be06:	f000 82eb 	beq.w	3c3e0 <__TI_printfi+0x860>
   3be0a:	381c      	subs	r0, #28
   3be0c:	f1a0 0004 	sub.w	r0, r0, #4
   3be10:	f000 8151 	beq.w	3c0b6 <__TI_printfi+0x536>
   3be14:	2802      	cmp	r0, #2
   3be16:	f240 814e 	bls.w	3c0b6 <__TI_printfi+0x536>
   3be1a:	3813      	subs	r0, #19
   3be1c:	d018      	beq.n	3be50 <__TI_printfi+0x2d0>
   3be1e:	3809      	subs	r0, #9
   3be20:	f000 8149 	beq.w	3c0b6 <__TI_printfi+0x536>
   3be24:	1e80      	subs	r0, r0, #2
   3be26:	f104 0403 	add.w	r4, r4, #3
   3be2a:	f000 8228 	beq.w	3c27e <__TI_printfi+0x6fe>
   3be2e:	e1fe      	b.n	3c22e <__TI_printfi+0x6ae>
   3be30:	3865      	subs	r0, #101	; 0x65
   3be32:	2802      	cmp	r0, #2
   3be34:	f240 813f 	bls.w	3c0b6 <__TI_printfi+0x536>
   3be38:	1f00      	subs	r0, r0, #4
   3be3a:	f1a0 0006 	sub.w	r0, r0, #6
   3be3e:	d007      	beq.n	3be50 <__TI_printfi+0x2d0>
   3be40:	2801      	cmp	r0, #1
   3be42:	d905      	bls.n	3be50 <__TI_printfi+0x2d0>
   3be44:	1f80      	subs	r0, r0, #6
   3be46:	bf18      	it	ne
   3be48:	f1b0 0003 	subsne.w	r0, r0, #3
   3be4c:	f040 81ef 	bne.w	3c22e <__TI_printfi+0x6ae>
   3be50:	9983      	ldr	r1, [sp, #524]	; 0x20c
   3be52:	9881      	ldr	r0, [sp, #516]	; 0x204
   3be54:	2900      	cmp	r1, #0
   3be56:	f020 0010 	bic.w	r0, r0, #16
   3be5a:	d401      	bmi.n	3be60 <__TI_printfi+0x2e0>
   3be5c:	9081      	str	r0, [sp, #516]	; 0x204
   3be5e:	e002      	b.n	3be66 <__TI_printfi+0x2e6>
   3be60:	2001      	movs	r0, #1
   3be62:	9083      	str	r0, [sp, #524]	; 0x20c
   3be64:	4601      	mov	r1, r0
   3be66:	f1b3 0058 	subs.w	r0, r3, #88	; 0x58
   3be6a:	d007      	beq.n	3be7c <__TI_printfi+0x2fc>
   3be6c:	3817      	subs	r0, #23
   3be6e:	d009      	beq.n	3be84 <__TI_printfi+0x304>
   3be70:	1e40      	subs	r0, r0, #1
   3be72:	d003      	beq.n	3be7c <__TI_printfi+0x2fc>
   3be74:	3808      	subs	r0, #8
   3be76:	bf18      	it	ne
   3be78:	220a      	movne	r2, #10
   3be7a:	d104      	bne.n	3be86 <__TI_printfi+0x306>
   3be7c:	2210      	movs	r2, #16
   3be7e:	e002      	b.n	3be86 <__TI_printfi+0x306>
   3be80:	000fffff 	.word	0x000fffff
   3be84:	2208      	movs	r2, #8
   3be86:	2b70      	cmp	r3, #112	; 0x70
   3be88:	9881      	ldr	r0, [sp, #516]	; 0x204
   3be8a:	f000 80b3 	beq.w	3bff4 <__TI_printfi+0x474>
   3be8e:	f643 7660 	movw	r6, #16224	; 0x3f60
   3be92:	46b9      	mov	r9, r7
   3be94:	4030      	ands	r0, r6
   3be96:	3820      	subs	r0, #32
   3be98:	46b8      	mov	r8, r7
   3be9a:	f000 808d 	beq.w	3bfb8 <__TI_printfi+0x438>
   3be9e:	3820      	subs	r0, #32
   3bea0:	d075      	beq.n	3bf8e <__TI_printfi+0x40e>
   3bea2:	38c0      	subs	r0, #192	; 0xc0
   3bea4:	d05c      	beq.n	3bf60 <__TI_printfi+0x3e0>
   3bea6:	f5b0 7080 	subs.w	r0, r0, #256	; 0x100
   3beaa:	d042      	beq.n	3bf32 <__TI_printfi+0x3b2>
   3beac:	f5b0 60c0 	subs.w	r0, r0, #1536	; 0x600
   3beb0:	d031      	beq.n	3bf16 <__TI_printfi+0x396>
   3beb2:	f5b0 6000 	subs.w	r0, r0, #2048	; 0x800
   3beb6:	d020      	beq.n	3befa <__TI_printfi+0x37a>
   3beb8:	f5b0 5080 	subs.w	r0, r0, #4096	; 0x1000
   3bebc:	d00f      	beq.n	3bede <__TI_printfi+0x35e>
   3bebe:	f1b3 0058 	subs.w	r0, r3, #88	; 0x58
   3bec2:	d072      	beq.n	3bfaa <__TI_printfi+0x42a>
   3bec4:	380c      	subs	r0, #12
   3bec6:	f000 808c 	beq.w	3bfe2 <__TI_printfi+0x462>
   3beca:	1f40      	subs	r0, r0, #5
   3becc:	f000 8089 	beq.w	3bfe2 <__TI_printfi+0x462>
   3bed0:	1f80      	subs	r0, r0, #6
   3bed2:	d06a      	beq.n	3bfaa <__TI_printfi+0x42a>
   3bed4:	1f80      	subs	r0, r0, #6
   3bed6:	d068      	beq.n	3bfaa <__TI_printfi+0x42a>
   3bed8:	1ec0      	subs	r0, r0, #3
   3beda:	d066      	beq.n	3bfaa <__TI_printfi+0x42a>
   3bedc:	e094      	b.n	3c008 <__TI_printfi+0x488>
   3bede:	f1b3 0058 	subs.w	r0, r3, #88	; 0x58
   3bee2:	d062      	beq.n	3bfaa <__TI_printfi+0x42a>
   3bee4:	380c      	subs	r0, #12
   3bee6:	d07c      	beq.n	3bfe2 <__TI_printfi+0x462>
   3bee8:	1f40      	subs	r0, r0, #5
   3beea:	d07a      	beq.n	3bfe2 <__TI_printfi+0x462>
   3beec:	1f80      	subs	r0, r0, #6
   3beee:	d05c      	beq.n	3bfaa <__TI_printfi+0x42a>
   3bef0:	1f80      	subs	r0, r0, #6
   3bef2:	d05a      	beq.n	3bfaa <__TI_printfi+0x42a>
   3bef4:	1ec0      	subs	r0, r0, #3
   3bef6:	d058      	beq.n	3bfaa <__TI_printfi+0x42a>
   3bef8:	e086      	b.n	3c008 <__TI_printfi+0x488>
   3befa:	f1b3 0058 	subs.w	r0, r3, #88	; 0x58
   3befe:	d054      	beq.n	3bfaa <__TI_printfi+0x42a>
   3bf00:	380c      	subs	r0, #12
   3bf02:	d06e      	beq.n	3bfe2 <__TI_printfi+0x462>
   3bf04:	1f40      	subs	r0, r0, #5
   3bf06:	d06c      	beq.n	3bfe2 <__TI_printfi+0x462>
   3bf08:	1f80      	subs	r0, r0, #6
   3bf0a:	d04e      	beq.n	3bfaa <__TI_printfi+0x42a>
   3bf0c:	1f80      	subs	r0, r0, #6
   3bf0e:	d04c      	beq.n	3bfaa <__TI_printfi+0x42a>
   3bf10:	1ec0      	subs	r0, r0, #3
   3bf12:	d04a      	beq.n	3bfaa <__TI_printfi+0x42a>
   3bf14:	e078      	b.n	3c008 <__TI_printfi+0x488>
   3bf16:	f1b3 0058 	subs.w	r0, r3, #88	; 0x58
   3bf1a:	d02f      	beq.n	3bf7c <__TI_printfi+0x3fc>
   3bf1c:	380c      	subs	r0, #12
   3bf1e:	d02d      	beq.n	3bf7c <__TI_printfi+0x3fc>
   3bf20:	1f40      	subs	r0, r0, #5
   3bf22:	d02b      	beq.n	3bf7c <__TI_printfi+0x3fc>
   3bf24:	1f80      	subs	r0, r0, #6
   3bf26:	d029      	beq.n	3bf7c <__TI_printfi+0x3fc>
   3bf28:	1f80      	subs	r0, r0, #6
   3bf2a:	d027      	beq.n	3bf7c <__TI_printfi+0x3fc>
   3bf2c:	1ec0      	subs	r0, r0, #3
   3bf2e:	d025      	beq.n	3bf7c <__TI_printfi+0x3fc>
   3bf30:	e06a      	b.n	3c008 <__TI_printfi+0x488>
   3bf32:	f1b3 0058 	subs.w	r0, r3, #88	; 0x58
   3bf36:	d00a      	beq.n	3bf4e <__TI_printfi+0x3ce>
   3bf38:	380c      	subs	r0, #12
   3bf3a:	d052      	beq.n	3bfe2 <__TI_printfi+0x462>
   3bf3c:	1f40      	subs	r0, r0, #5
   3bf3e:	d050      	beq.n	3bfe2 <__TI_printfi+0x462>
   3bf40:	1f80      	subs	r0, r0, #6
   3bf42:	d004      	beq.n	3bf4e <__TI_printfi+0x3ce>
   3bf44:	1f80      	subs	r0, r0, #6
   3bf46:	bf18      	it	ne
   3bf48:	f1b0 0003 	subsne.w	r0, r0, #3
   3bf4c:	d15c      	bne.n	3c008 <__TI_printfi+0x488>
   3bf4e:	1ce4      	adds	r4, r4, #3
   3bf50:	f024 0403 	bic.w	r4, r4, #3
   3bf54:	1d24      	adds	r4, r4, #4
   3bf56:	f814 9c01 	ldrb.w	r9, [r4, #-1]
   3bf5a:	f04f 0800 	mov.w	r8, #0
   3bf5e:	e052      	b.n	3c006 <__TI_printfi+0x486>
   3bf60:	f1b3 0058 	subs.w	r0, r3, #88	; 0x58
   3bf64:	d00a      	beq.n	3bf7c <__TI_printfi+0x3fc>
   3bf66:	380c      	subs	r0, #12
   3bf68:	d008      	beq.n	3bf7c <__TI_printfi+0x3fc>
   3bf6a:	1f40      	subs	r0, r0, #5
   3bf6c:	d006      	beq.n	3bf7c <__TI_printfi+0x3fc>
   3bf6e:	1f80      	subs	r0, r0, #6
   3bf70:	d004      	beq.n	3bf7c <__TI_printfi+0x3fc>
   3bf72:	1f80      	subs	r0, r0, #6
   3bf74:	bf18      	it	ne
   3bf76:	f1b0 0003 	subsne.w	r0, r0, #3
   3bf7a:	d145      	bne.n	3c008 <__TI_printfi+0x488>
   3bf7c:	1de4      	adds	r4, r4, #7
   3bf7e:	f024 0407 	bic.w	r4, r4, #7
   3bf82:	3408      	adds	r4, #8
   3bf84:	f1a4 0008 	sub.w	r0, r4, #8
   3bf88:	e890 0300 	ldmia.w	r0, {r8, r9}
   3bf8c:	e03b      	b.n	3c006 <__TI_printfi+0x486>
   3bf8e:	f1b3 0058 	subs.w	r0, r3, #88	; 0x58
   3bf92:	d00a      	beq.n	3bfaa <__TI_printfi+0x42a>
   3bf94:	380c      	subs	r0, #12
   3bf96:	d024      	beq.n	3bfe2 <__TI_printfi+0x462>
   3bf98:	1f40      	subs	r0, r0, #5
   3bf9a:	d022      	beq.n	3bfe2 <__TI_printfi+0x462>
   3bf9c:	1f80      	subs	r0, r0, #6
   3bf9e:	d004      	beq.n	3bfaa <__TI_printfi+0x42a>
   3bfa0:	1f80      	subs	r0, r0, #6
   3bfa2:	bf18      	it	ne
   3bfa4:	f1b0 0003 	subsne.w	r0, r0, #3
   3bfa8:	d12e      	bne.n	3c008 <__TI_printfi+0x488>
   3bfaa:	1ce4      	adds	r4, r4, #3
   3bfac:	f024 0403 	bic.w	r4, r4, #3
   3bfb0:	1d24      	adds	r4, r4, #4
   3bfb2:	f854 9c04 	ldr.w	r9, [r4, #-4]
   3bfb6:	e7d0      	b.n	3bf5a <__TI_printfi+0x3da>
   3bfb8:	f1b3 0058 	subs.w	r0, r3, #88	; 0x58
   3bfbc:	d00a      	beq.n	3bfd4 <__TI_printfi+0x454>
   3bfbe:	380c      	subs	r0, #12
   3bfc0:	d00f      	beq.n	3bfe2 <__TI_printfi+0x462>
   3bfc2:	1f40      	subs	r0, r0, #5
   3bfc4:	d00d      	beq.n	3bfe2 <__TI_printfi+0x462>
   3bfc6:	1f80      	subs	r0, r0, #6
   3bfc8:	d004      	beq.n	3bfd4 <__TI_printfi+0x454>
   3bfca:	1f80      	subs	r0, r0, #6
   3bfcc:	bf18      	it	ne
   3bfce:	f1b0 0003 	subsne.w	r0, r0, #3
   3bfd2:	d119      	bne.n	3c008 <__TI_printfi+0x488>
   3bfd4:	1ce4      	adds	r4, r4, #3
   3bfd6:	f024 0403 	bic.w	r4, r4, #3
   3bfda:	1d24      	adds	r4, r4, #4
   3bfdc:	f834 9c02 	ldrh.w	r9, [r4, #-2]
   3bfe0:	e7bb      	b.n	3bf5a <__TI_printfi+0x3da>
   3bfe2:	1ce4      	adds	r4, r4, #3
   3bfe4:	f024 0403 	bic.w	r4, r4, #3
   3bfe8:	1d24      	adds	r4, r4, #4
   3bfea:	f854 5c04 	ldr.w	r5, [r4, #-4]
   3bfee:	ea4f 78e5 	mov.w	r8, r5, asr #31
   3bff2:	e007      	b.n	3c004 <__TI_printfi+0x484>
   3bff4:	1ce4      	adds	r4, r4, #3
   3bff6:	f024 0403 	bic.w	r4, r4, #3
   3bffa:	1d24      	adds	r4, r4, #4
   3bffc:	f04f 0800 	mov.w	r8, #0
   3c000:	f854 5c04 	ldr.w	r5, [r4, #-4]
   3c004:	46a9      	mov	r9, r5
   3c006:	9490      	str	r4, [sp, #576]	; 0x240
   3c008:	4640      	mov	r0, r8
   3c00a:	17cc      	asrs	r4, r1, #31
   3c00c:	ea50 0604 	orrs.w	r6, r0, r4
   3c010:	464d      	mov	r5, r9
   3c012:	ea45 0101 	orr.w	r1, r5, r1
   3c016:	bf08      	it	eq
   3c018:	2900      	cmpeq	r1, #0
   3c01a:	9981      	ldr	r1, [sp, #516]	; 0x204
   3c01c:	d102      	bne.n	3c024 <__TI_printfi+0x4a4>
   3c01e:	090c      	lsrs	r4, r1, #4
   3c020:	f0c0 8142 	bcc.w	3c2a8 <__TI_printfi+0x728>
   3c024:	2b64      	cmp	r3, #100	; 0x64
   3c026:	bf18      	it	ne
   3c028:	2b69      	cmpne	r3, #105	; 0x69
   3c02a:	d108      	bne.n	3c03e <__TI_printfi+0x4be>
   3c02c:	2800      	cmp	r0, #0
   3c02e:	da06      	bge.n	3c03e <__TI_printfi+0x4be>
   3c030:	426d      	negs	r5, r5
   3c032:	f04f 0100 	mov.w	r1, #0
   3c036:	eb61 0000 	sbc.w	r0, r1, r0
   3c03a:	2601      	movs	r6, #1
   3c03c:	968e      	str	r6, [sp, #568]	; 0x238
   3c03e:	a985      	add	r1, sp, #532	; 0x214
   3c040:	9100      	str	r1, [sp, #0]
   3c042:	4629      	mov	r1, r5
   3c044:	f007 fd6e 	bl	43b24 <_ltostr>
   3c048:	9983      	ldr	r1, [sp, #524]	; 0x20c
   3c04a:	1c40      	adds	r0, r0, #1
   3c04c:	f89d 3210 	ldrb.w	r3, [sp, #528]	; 0x210
   3c050:	4281      	cmp	r1, r0
   3c052:	9985      	ldr	r1, [sp, #532]	; 0x214
   3c054:	da29      	bge.n	3c0aa <__TI_printfi+0x52a>
   3c056:	2b78      	cmp	r3, #120	; 0x78
   3c058:	d003      	beq.n	3c062 <__TI_printfi+0x4e2>
   3c05a:	2b58      	cmp	r3, #88	; 0x58
   3c05c:	bf18      	it	ne
   3c05e:	2b70      	cmpne	r3, #112	; 0x70
   3c060:	d111      	bne.n	3c086 <__TI_printfi+0x506>
   3c062:	9981      	ldr	r1, [sp, #516]	; 0x204
   3c064:	0908      	lsrs	r0, r1, #4
   3c066:	d30f      	bcc.n	3c088 <__TI_printfi+0x508>
   3c068:	2b70      	cmp	r3, #112	; 0x70
   3c06a:	bf08      	it	eq
   3c06c:	2378      	moveq	r3, #120	; 0x78
   3c06e:	9885      	ldr	r0, [sp, #532]	; 0x214
   3c070:	2130      	movs	r1, #48	; 0x30
   3c072:	7003      	strb	r3, [r0, #0]
   3c074:	9885      	ldr	r0, [sp, #532]	; 0x214
   3c076:	1e40      	subs	r0, r0, #1
   3c078:	9085      	str	r0, [sp, #532]	; 0x214
   3c07a:	7001      	strb	r1, [r0, #0]
   3c07c:	9885      	ldr	r0, [sp, #532]	; 0x214
   3c07e:	f89d 3210 	ldrb.w	r3, [sp, #528]	; 0x210
   3c082:	1e40      	subs	r0, r0, #1
   3c084:	9085      	str	r0, [sp, #532]	; 0x214
   3c086:	9981      	ldr	r1, [sp, #516]	; 0x204
   3c088:	2b6f      	cmp	r3, #111	; 0x6f
   3c08a:	f040 810d 	bne.w	3c2a8 <__TI_printfi+0x728>
   3c08e:	0908      	lsrs	r0, r1, #4
   3c090:	9885      	ldr	r0, [sp, #532]	; 0x214
   3c092:	f0c0 8109 	bcc.w	3c2a8 <__TI_printfi+0x728>
   3c096:	7842      	ldrb	r2, [r0, #1]
   3c098:	2a30      	cmp	r2, #48	; 0x30
   3c09a:	f000 8105 	beq.w	3c2a8 <__TI_printfi+0x728>
   3c09e:	2130      	movs	r1, #48	; 0x30
   3c0a0:	7001      	strb	r1, [r0, #0]
   3c0a2:	9885      	ldr	r0, [sp, #532]	; 0x214
   3c0a4:	1e40      	subs	r0, r0, #1
   3c0a6:	9085      	str	r0, [sp, #532]	; 0x214
   3c0a8:	e0bf      	b.n	3c22a <__TI_printfi+0x6aa>
   3c0aa:	2230      	movs	r2, #48	; 0x30
   3c0ac:	700a      	strb	r2, [r1, #0]
   3c0ae:	9985      	ldr	r1, [sp, #532]	; 0x214
   3c0b0:	1e49      	subs	r1, r1, #1
   3c0b2:	9185      	str	r1, [sp, #532]	; 0x214
   3c0b4:	e7c8      	b.n	3c048 <__TI_printfi+0x4c8>
   3c0b6:	1de4      	adds	r4, r4, #7
   3c0b8:	f024 0407 	bic.w	r4, r4, #7
   3c0bc:	3408      	adds	r4, #8
   3c0be:	9490      	str	r4, [sp, #576]	; 0x240
   3c0c0:	4618      	mov	r0, r3
   3c0c2:	f1a0 0161 	sub.w	r1, r0, #97	; 0x61
   3c0c6:	291a      	cmp	r1, #26
   3c0c8:	ed14 0b02 	vldr	d0, [r4, #-8]
   3c0cc:	bf38      	it	cc
   3c0ce:	3820      	subcc	r0, #32
   3c0d0:	4298      	cmp	r0, r3
   3c0d2:	4639      	mov	r1, r7
   3c0d4:	bf08      	it	eq
   3c0d6:	2101      	moveq	r1, #1
   3c0d8:	ec58 9b10 	vmov	r9, r8, d0
   3c0dc:	f647 74f0 	movw	r4, #32752	; 0x7ff0
   3c0e0:	f647 70f0 	movw	r0, #32752	; 0x7ff0
   3c0e4:	ea04 4418 	and.w	r4, r4, r8, lsr #16
   3c0e8:	42a0      	cmp	r0, r4
   3c0ea:	4645      	mov	r5, r8
   3c0ec:	d114      	bne.n	3c118 <__TI_printfi+0x598>
   3c0ee:	9e91      	ldr	r6, [sp, #580]	; 0x244
   3c0f0:	4628      	mov	r0, r5
   3c0f2:	0000      	movs	r0, r0
   3c0f4:	f04f 0e00 	mov.w	lr, #0
   3c0f8:	ea4e 0000 	orr.w	r0, lr, r0
   3c0fc:	ec58 9b10 	vmov	r9, r8, d0
   3c100:	4006      	ands	r6, r0
   3c102:	464a      	mov	r2, r9
   3c104:	f04f 36ff 	mov.w	r6, #4294967295	; 0xffffffff
   3c108:	ea42 020e 	orr.w	r2, r2, lr
   3c10c:	ea06 0002 	and.w	r0, r6, r2
   3c110:	bf08      	it	eq
   3c112:	2800      	cmpeq	r0, #0
   3c114:	f040 8098 	bne.w	3c248 <__TI_printfi+0x6c8>
   3c118:	f647 70f0 	movw	r0, #32752	; 0x7ff0
   3c11c:	002a      	movs	r2, r5
   3c11e:	42a0      	cmp	r0, r4
   3c120:	ec58 9b10 	vmov	r9, r8, d0
   3c124:	d15a      	bne.n	3c1dc <__TI_printfi+0x65c>
   3c126:	9e92      	ldr	r6, [sp, #584]	; 0x248
   3c128:	f04f 0e00 	mov.w	lr, #0
   3c12c:	4675      	mov	r5, lr
   3c12e:	ea42 040e 	orr.w	r4, r2, lr
   3c132:	4648      	mov	r0, r9
   3c134:	4026      	ands	r6, r4
   3c136:	ea45 0000 	orr.w	r0, r5, r0
   3c13a:	f04f 34ff 	mov.w	r4, #4294967295	; 0xffffffff
   3c13e:	ea04 0000 	and.w	r0, r4, r0
   3c142:	bf08      	it	eq
   3c144:	2800      	cmpeq	r0, #0
   3c146:	d149      	bne.n	3c1dc <__TI_printfi+0x65c>
   3c148:	eeb5 0bc0 	vcmpe.f64	d0, #0.0
   3c14c:	eef1 fa10 	vmrs	APSR_nzcv, fpscr
   3c150:	d320      	bcc.n	3c194 <__TI_printfi+0x614>
   3c152:	2900      	cmp	r1, #0
   3c154:	bf14      	ite	ne
   3c156:	2046      	movne	r0, #70	; 0x46
   3c158:	2066      	moveq	r0, #102	; 0x66
   3c15a:	2900      	cmp	r1, #0
   3c15c:	f88d 0200 	strb.w	r0, [sp, #512]	; 0x200
   3c160:	4662      	mov	r2, ip
   3c162:	f1a2 0201 	sub.w	r2, r2, #1
   3c166:	9285      	str	r2, [sp, #532]	; 0x214
   3c168:	bf14      	ite	ne
   3c16a:	204e      	movne	r0, #78	; 0x4e
   3c16c:	206e      	moveq	r0, #110	; 0x6e
   3c16e:	7010      	strb	r0, [r2, #0]
   3c170:	1e52      	subs	r2, r2, #1
   3c172:	9885      	ldr	r0, [sp, #532]	; 0x214
   3c174:	2900      	cmp	r1, #0
   3c176:	f1a0 0001 	sub.w	r0, r0, #1
   3c17a:	9085      	str	r0, [sp, #532]	; 0x214
   3c17c:	bf14      	ite	ne
   3c17e:	2049      	movne	r0, #73	; 0x49
   3c180:	2069      	moveq	r0, #105	; 0x69
   3c182:	7010      	strb	r0, [r2, #0]
   3c184:	262b      	movs	r6, #43	; 0x2b
   3c186:	9885      	ldr	r0, [sp, #532]	; 0x214
   3c188:	2703      	movs	r7, #3
   3c18a:	1e40      	subs	r0, r0, #1
   3c18c:	9085      	str	r0, [sp, #532]	; 0x214
   3c18e:	f802 6c01 	strb.w	r6, [r2, #-1]
   3c192:	e01f      	b.n	3c1d4 <__TI_printfi+0x654>
   3c194:	2900      	cmp	r1, #0
   3c196:	bf14      	ite	ne
   3c198:	2046      	movne	r0, #70	; 0x46
   3c19a:	2066      	moveq	r0, #102	; 0x66
   3c19c:	2900      	cmp	r1, #0
   3c19e:	f88d 0200 	strb.w	r0, [sp, #512]	; 0x200
   3c1a2:	4662      	mov	r2, ip
   3c1a4:	f1a2 0201 	sub.w	r2, r2, #1
   3c1a8:	9285      	str	r2, [sp, #532]	; 0x214
   3c1aa:	bf14      	ite	ne
   3c1ac:	204e      	movne	r0, #78	; 0x4e
   3c1ae:	206e      	moveq	r0, #110	; 0x6e
   3c1b0:	7010      	strb	r0, [r2, #0]
   3c1b2:	1e52      	subs	r2, r2, #1
   3c1b4:	9885      	ldr	r0, [sp, #532]	; 0x214
   3c1b6:	2900      	cmp	r1, #0
   3c1b8:	f1a0 0001 	sub.w	r0, r0, #1
   3c1bc:	9085      	str	r0, [sp, #532]	; 0x214
   3c1be:	bf14      	ite	ne
   3c1c0:	2049      	movne	r0, #73	; 0x49
   3c1c2:	2069      	moveq	r0, #105	; 0x69
   3c1c4:	7010      	strb	r0, [r2, #0]
   3c1c6:	272d      	movs	r7, #45	; 0x2d
   3c1c8:	9885      	ldr	r0, [sp, #532]	; 0x214
   3c1ca:	1e40      	subs	r0, r0, #1
   3c1cc:	9085      	str	r0, [sp, #532]	; 0x214
   3c1ce:	f802 7c01 	strb.w	r7, [r2, #-1]
   3c1d2:	2704      	movs	r7, #4
   3c1d4:	9a85      	ldr	r2, [sp, #532]	; 0x214
   3c1d6:	9981      	ldr	r1, [sp, #516]	; 0x204
   3c1d8:	4694      	mov	ip, r2
   3c1da:	e060      	b.n	3c29e <__TI_printfi+0x71e>
   3c1dc:	f04f 4600 	mov.w	r6, #2147483648	; 0x80000000
   3c1e0:	4016      	ands	r6, r2
   3c1e2:	4638      	mov	r0, r7
   3c1e4:	f04f 0100 	mov.w	r1, #0
   3c1e8:	ea00 0001 	and.w	r0, r0, r1
   3c1ec:	bf0e      	itee	eq
   3c1ee:	2800      	cmpeq	r0, #0
   3c1f0:	eeb1 0b40 	vnegne.f64	d0, d0
   3c1f4:	2701      	movne	r7, #1
   3c1f6:	f1b3 0041 	subs.w	r0, r3, #65	; 0x41
   3c1fa:	d01f      	beq.n	3c23c <__TI_printfi+0x6bc>
   3c1fc:	1f00      	subs	r0, r0, #4
   3c1fe:	d018      	beq.n	3c232 <__TI_printfi+0x6b2>
   3c200:	1e40      	subs	r0, r0, #1
   3c202:	d00e      	beq.n	3c222 <__TI_printfi+0x6a2>
   3c204:	1e40      	subs	r0, r0, #1
   3c206:	d007      	beq.n	3c218 <__TI_printfi+0x698>
   3c208:	381a      	subs	r0, #26
   3c20a:	d017      	beq.n	3c23c <__TI_printfi+0x6bc>
   3c20c:	1f00      	subs	r0, r0, #4
   3c20e:	d010      	beq.n	3c232 <__TI_printfi+0x6b2>
   3c210:	1e40      	subs	r0, r0, #1
   3c212:	d006      	beq.n	3c222 <__TI_printfi+0x6a2>
   3c214:	1e40      	subs	r0, r0, #1
   3c216:	d10a      	bne.n	3c22e <__TI_printfi+0x6ae>
   3c218:	a881      	add	r0, sp, #516	; 0x204
   3c21a:	a985      	add	r1, sp, #532	; 0x214
   3c21c:	f006 fd7e 	bl	42d1c <_pconv_g>
   3c220:	e003      	b.n	3c22a <__TI_printfi+0x6aa>
   3c222:	a881      	add	r0, sp, #516	; 0x204
   3c224:	a985      	add	r1, sp, #532	; 0x214
   3c226:	f007 ff03 	bl	44030 <_pconv_f>
   3c22a:	f89d 3210 	ldrb.w	r3, [sp, #528]	; 0x210
   3c22e:	9981      	ldr	r1, [sp, #516]	; 0x204
   3c230:	e03a      	b.n	3c2a8 <__TI_printfi+0x728>
   3c232:	a881      	add	r0, sp, #516	; 0x204
   3c234:	a985      	add	r1, sp, #532	; 0x214
   3c236:	f007 f8f5 	bl	43424 <_pconv_e>
   3c23a:	e003      	b.n	3c244 <__TI_printfi+0x6c4>
   3c23c:	a881      	add	r0, sp, #516	; 0x204
   3c23e:	a985      	add	r1, sp, #532	; 0x214
   3c240:	f006 fc48 	bl	42ad4 <_pconv_a>
   3c244:	9981      	ldr	r1, [sp, #516]	; 0x204
   3c246:	e02d      	b.n	3c2a4 <__TI_printfi+0x724>
   3c248:	2900      	cmp	r1, #0
   3c24a:	bf14      	ite	ne
   3c24c:	204e      	movne	r0, #78	; 0x4e
   3c24e:	206e      	moveq	r0, #110	; 0x6e
   3c250:	2900      	cmp	r1, #0
   3c252:	f88d 0200 	strb.w	r0, [sp, #512]	; 0x200
   3c256:	4662      	mov	r2, ip
   3c258:	f1a2 0201 	sub.w	r2, r2, #1
   3c25c:	9285      	str	r2, [sp, #532]	; 0x214
   3c25e:	bf14      	ite	ne
   3c260:	2041      	movne	r0, #65	; 0x41
   3c262:	2061      	moveq	r0, #97	; 0x61
   3c264:	7010      	strb	r0, [r2, #0]
   3c266:	1e52      	subs	r2, r2, #1
   3c268:	9885      	ldr	r0, [sp, #532]	; 0x214
   3c26a:	2900      	cmp	r1, #0
   3c26c:	f1a0 0001 	sub.w	r0, r0, #1
   3c270:	9085      	str	r0, [sp, #532]	; 0x214
   3c272:	bf14      	ite	ne
   3c274:	204e      	movne	r0, #78	; 0x4e
   3c276:	206e      	moveq	r0, #110	; 0x6e
   3c278:	7010      	strb	r0, [r2, #0]
   3c27a:	2702      	movs	r7, #2
   3c27c:	e7aa      	b.n	3c1d4 <__TI_printfi+0x654>
   3c27e:	f024 0403 	bic.w	r4, r4, #3
   3c282:	1d24      	adds	r4, r4, #4
   3c284:	9490      	str	r4, [sp, #576]	; 0x240
   3c286:	f814 6c01 	ldrb.w	r6, [r4, #-1]
   3c28a:	463c      	mov	r4, r7
   3c28c:	b906      	cbnz	r6, 3c290 <__TI_printfi+0x710>
   3c28e:	2401      	movs	r4, #1
   3c290:	9981      	ldr	r1, [sp, #516]	; 0x204
   3c292:	f88d 6200 	strb.w	r6, [sp, #512]	; 0x200
   3c296:	948f      	str	r4, [sp, #572]	; 0x23c
   3c298:	f021 0102 	bic.w	r1, r1, #2
   3c29c:	9181      	str	r1, [sp, #516]	; 0x204
   3c29e:	4662      	mov	r2, ip
   3c2a0:	1e50      	subs	r0, r2, #1
   3c2a2:	9085      	str	r0, [sp, #532]	; 0x214
   3c2a4:	f89d 3210 	ldrb.w	r3, [sp, #528]	; 0x210
   3c2a8:	9885      	ldr	r0, [sp, #532]	; 0x214
   3c2aa:	2b75      	cmp	r3, #117	; 0x75
   3c2ac:	f100 0401 	add.w	r4, r0, #1
   3c2b0:	d02a      	beq.n	3c308 <__TI_printfi+0x788>
   3c2b2:	2b6f      	cmp	r3, #111	; 0x6f
   3c2b4:	d028      	beq.n	3c308 <__TI_printfi+0x788>
   3c2b6:	2b78      	cmp	r3, #120	; 0x78
   3c2b8:	d026      	beq.n	3c308 <__TI_printfi+0x788>
   3c2ba:	2b58      	cmp	r3, #88	; 0x58
   3c2bc:	d024      	beq.n	3c308 <__TI_printfi+0x788>
   3c2be:	2b70      	cmp	r3, #112	; 0x70
   3c2c0:	d022      	beq.n	3c308 <__TI_printfi+0x788>
   3c2c2:	b127      	cbz	r7, 3c2ce <__TI_printfi+0x74e>
   3c2c4:	1e7f      	subs	r7, r7, #1
   3c2c6:	f04f 0201 	mov.w	r2, #1
   3c2ca:	d11d      	bne.n	3c308 <__TI_printfi+0x788>
   3c2cc:	928e      	str	r2, [sp, #568]	; 0x238
   3c2ce:	9f8e      	ldr	r7, [sp, #568]	; 0x238
   3c2d0:	f001 0202 	and.w	r2, r1, #2
   3c2d4:	928d      	str	r2, [sp, #564]	; 0x234
   3c2d6:	b91f      	cbnz	r7, 3c2e0 <__TI_printfi+0x760>
   3c2d8:	088a      	lsrs	r2, r1, #2
   3c2da:	d308      	bcc.n	3c2ee <__TI_printfi+0x76e>
   3c2dc:	212b      	movs	r1, #43	; 0x2b
   3c2de:	e000      	b.n	3c2e2 <__TI_printfi+0x762>
   3c2e0:	212d      	movs	r1, #45	; 0x2d
   3c2e2:	7001      	strb	r1, [r0, #0]
   3c2e4:	9885      	ldr	r0, [sp, #532]	; 0x214
   3c2e6:	9981      	ldr	r1, [sp, #516]	; 0x204
   3c2e8:	1e40      	subs	r0, r0, #1
   3c2ea:	9085      	str	r0, [sp, #532]	; 0x214
   3c2ec:	1e64      	subs	r4, r4, #1
   3c2ee:	9e8d      	ldr	r6, [sp, #564]	; 0x234
   3c2f0:	4337      	orrs	r7, r6
   3c2f2:	d109      	bne.n	3c308 <__TI_printfi+0x788>
   3c2f4:	08c8      	lsrs	r0, r1, #3
   3c2f6:	9885      	ldr	r0, [sp, #532]	; 0x214
   3c2f8:	d306      	bcc.n	3c308 <__TI_printfi+0x788>
   3c2fa:	2120      	movs	r1, #32
   3c2fc:	1e64      	subs	r4, r4, #1
   3c2fe:	7001      	strb	r1, [r0, #0]
   3c300:	9885      	ldr	r0, [sp, #532]	; 0x214
   3c302:	9981      	ldr	r1, [sp, #516]	; 0x204
   3c304:	1e40      	subs	r0, r0, #1
   3c306:	9085      	str	r0, [sp, #532]	; 0x214
   3c308:	9d85      	ldr	r5, [sp, #532]	; 0x214
   3c30a:	0848      	lsrs	r0, r1, #1
   3c30c:	9882      	ldr	r0, [sp, #520]	; 0x208
   3c30e:	d20b      	bcs.n	3c328 <__TI_printfi+0x7a8>
   3c310:	ebad 0105 	sub.w	r1, sp, r5
   3c314:	f201 2101 	addw	r1, r1, #513	; 0x201
   3c318:	4288      	cmp	r0, r1
   3c31a:	a801      	add	r0, sp, #4
   3c31c:	db04      	blt.n	3c328 <__TI_printfi+0x7a8>
   3c31e:	1a2d      	subs	r5, r5, r0
   3c320:	4455      	add	r5, sl
   3c322:	f5a5 75fe 	sub.w	r5, r5, #508	; 0x1fc
   3c326:	e000      	b.n	3c32a <__TI_printfi+0x7aa>
   3c328:	ad01      	add	r5, sp, #4
   3c32a:	4628      	mov	r0, r5
   3c32c:	9a93      	ldr	r2, [sp, #588]	; 0x24c
   3c32e:	4621      	mov	r1, r4
   3c330:	f44f 73ff 	mov.w	r3, #510	; 0x1fe
   3c334:	f007 ffcb 	bl	442ce <memccpy>
   3c338:	9f8f      	ldr	r7, [sp, #572]	; 0x23c
   3c33a:	9987      	ldr	r1, [sp, #540]	; 0x21c
   3c33c:	9085      	str	r0, [sp, #532]	; 0x214
   3c33e:	b11f      	cbz	r7, 3c348 <__TI_printfi+0x7c8>
   3c340:	7001      	strb	r1, [r0, #0]
   3c342:	9885      	ldr	r0, [sp, #532]	; 0x214
   3c344:	1c40      	adds	r0, r0, #1
   3c346:	9085      	str	r0, [sp, #532]	; 0x214
   3c348:	4582      	cmp	sl, r0
   3c34a:	d309      	bcc.n	3c360 <__TI_printfi+0x7e0>
   3c34c:	ebaa 0200 	sub.w	r2, sl, r0
   3c350:	2120      	movs	r1, #32
   3c352:	1e40      	subs	r0, r0, #1
   3c354:	1c52      	adds	r2, r2, #1
   3c356:	f007 fd10 	bl	43d7a <memset>
   3c35a:	9887      	ldr	r0, [sp, #540]	; 0x21c
   3c35c:	f88a 0000 	strb.w	r0, [sl]
   3c360:	9881      	ldr	r0, [sp, #516]	; 0x204
   3c362:	0940      	lsrs	r0, r0, #5
   3c364:	a801      	add	r0, sp, #4
   3c366:	d32d      	bcc.n	3c3c4 <__TI_printfi+0x844>
   3c368:	42a8      	cmp	r0, r5
   3c36a:	d032      	beq.n	3c3d2 <__TI_printfi+0x852>
   3c36c:	a801      	add	r0, sp, #4
   3c36e:	2130      	movs	r1, #48	; 0x30
   3c370:	1a2a      	subs	r2, r5, r0
   3c372:	a801      	add	r0, sp, #4
   3c374:	f007 fd01 	bl	43d7a <memset>
   3c378:	9e8e      	ldr	r6, [sp, #568]	; 0x238
   3c37a:	9f8d      	ldr	r7, [sp, #564]	; 0x234
   3c37c:	9881      	ldr	r0, [sp, #516]	; 0x204
   3c37e:	4337      	orrs	r7, r6
   3c380:	d104      	bne.n	3c38c <__TI_printfi+0x80c>
   3c382:	08c0      	lsrs	r0, r0, #3
   3c384:	bf38      	it	cc
   3c386:	f10d 0005 	addcc.w	r0, sp, #5
   3c38a:	d307      	bcc.n	3c39c <__TI_printfi+0x81c>
   3c38c:	7828      	ldrb	r0, [r5, #0]
   3c38e:	f88d 0004 	strb.w	r0, [sp, #4]
   3c392:	2130      	movs	r1, #48	; 0x30
   3c394:	f10d 0006 	add.w	r0, sp, #6
   3c398:	f805 1b01 	strb.w	r1, [r5], #1
   3c39c:	f89d 2210 	ldrb.w	r2, [sp, #528]	; 0x210
   3c3a0:	2a78      	cmp	r2, #120	; 0x78
   3c3a2:	d003      	beq.n	3c3ac <__TI_printfi+0x82c>
   3c3a4:	2a58      	cmp	r2, #88	; 0x58
   3c3a6:	bf18      	it	ne
   3c3a8:	2a70      	cmpne	r2, #112	; 0x70
   3c3aa:	d102      	bne.n	3c3b2 <__TI_printfi+0x832>
   3c3ac:	9981      	ldr	r1, [sp, #516]	; 0x204
   3c3ae:	0909      	lsrs	r1, r1, #4
   3c3b0:	d203      	bcs.n	3c3ba <__TI_printfi+0x83a>
   3c3b2:	2a61      	cmp	r2, #97	; 0x61
   3c3b4:	bf18      	it	ne
   3c3b6:	2a41      	cmpne	r2, #65	; 0x41
   3c3b8:	d10b      	bne.n	3c3d2 <__TI_printfi+0x852>
   3c3ba:	7869      	ldrb	r1, [r5, #1]
   3c3bc:	7001      	strb	r1, [r0, #0]
   3c3be:	2730      	movs	r7, #48	; 0x30
   3c3c0:	706f      	strb	r7, [r5, #1]
   3c3c2:	e006      	b.n	3c3d2 <__TI_printfi+0x852>
   3c3c4:	a801      	add	r0, sp, #4
   3c3c6:	1a2d      	subs	r5, r5, r0
   3c3c8:	462a      	mov	r2, r5
   3c3ca:	2120      	movs	r1, #32
   3c3cc:	a801      	add	r0, sp, #4
   3c3ce:	f007 fcd4 	bl	43d7a <memset>
   3c3d2:	a801      	add	r0, sp, #4
   3c3d4:	f007 ff94 	bl	44300 <strlen>
   3c3d8:	9f8f      	ldr	r7, [sp, #572]	; 0x23c
   3c3da:	4602      	mov	r2, r0
   3c3dc:	19d2      	adds	r2, r2, r7
   3c3de:	e004      	b.n	3c3ea <__TI_printfi+0x86a>
   3c3e0:	a179      	add	r1, pc, #484	; (adr r1, 3c5c8 <__TI_printfi+0xa48>)
   3c3e2:	a801      	add	r0, sp, #4
   3c3e4:	2201      	movs	r2, #1
   3c3e6:	8809      	ldrh	r1, [r1, #0]
   3c3e8:	8001      	strh	r1, [r0, #0]
   3c3ea:	9b8b      	ldr	r3, [sp, #556]	; 0x22c
   3c3ec:	9989      	ldr	r1, [sp, #548]	; 0x224
   3c3ee:	a801      	add	r0, sp, #4
   3c3f0:	4798      	blx	r3
   3c3f2:	f1b0 3fff 	cmp.w	r0, #4294967295	; 0xffffffff
   3c3f6:	f000 809e 	beq.w	3c536 <__TI_printfi+0x9b6>
   3c3fa:	4483      	add	fp, r0
   3c3fc:	e0d6      	b.n	3c5ac <__TI_printfi+0xa2c>
   3c3fe:	9d83      	ldr	r5, [sp, #524]	; 0x20c
   3c400:	09f0      	lsrs	r0, r6, #7
   3c402:	d24a      	bcs.n	3c49a <__TI_printfi+0x91a>
   3c404:	f8dd 9224 	ldr.w	r9, [sp, #548]	; 0x224
   3c408:	1ce4      	adds	r4, r4, #3
   3c40a:	f024 0403 	bic.w	r4, r4, #3
   3c40e:	1d24      	adds	r4, r4, #4
   3c410:	9490      	str	r4, [sp, #576]	; 0x240
   3c412:	f854 8c04 	ldr.w	r8, [r4, #-4]
   3c416:	f1b8 0f00 	cmp.w	r8, #0
   3c41a:	d03c      	beq.n	3c496 <__TI_printfi+0x916>
   3c41c:	2d00      	cmp	r5, #0
   3c41e:	9c82      	ldr	r4, [sp, #520]	; 0x208
   3c420:	d406      	bmi.n	3c430 <__TI_printfi+0x8b0>
   3c422:	4640      	mov	r0, r8
   3c424:	f007 ff6c 	bl	44300 <strlen>
   3c428:	42a8      	cmp	r0, r5
   3c42a:	bf88      	it	hi
   3c42c:	1c28      	addhi	r0, r5, #0
   3c42e:	d802      	bhi.n	3c436 <__TI_printfi+0x8b6>
   3c430:	4640      	mov	r0, r8
   3c432:	f007 ff65 	bl	44300 <strlen>
   3c436:	4605      	mov	r5, r0
   3c438:	42a5      	cmp	r5, r4
   3c43a:	bfa8      	it	ge
   3c43c:	1c04      	addge	r4, r0, #0
   3c43e:	42ac      	cmp	r4, r5
   3c440:	44a3      	add	fp, r4
   3c442:	dd0b      	ble.n	3c45c <__TI_printfi+0x8dc>
   3c444:	0870      	lsrs	r0, r6, #1
   3c446:	eba4 0705 	sub.w	r7, r4, r5
   3c44a:	d207      	bcs.n	3c45c <__TI_printfi+0x8dc>
   3c44c:	2f00      	cmp	r7, #0
   3c44e:	dd05      	ble.n	3c45c <__TI_printfi+0x8dc>
   3c450:	9a8a      	ldr	r2, [sp, #552]	; 0x228
   3c452:	4649      	mov	r1, r9
   3c454:	2020      	movs	r0, #32
   3c456:	4790      	blx	r2
   3c458:	1e7f      	subs	r7, r7, #1
   3c45a:	d1f9      	bne.n	3c450 <__TI_printfi+0x8d0>
   3c45c:	2d00      	cmp	r5, #0
   3c45e:	462f      	mov	r7, r5
   3c460:	dd06      	ble.n	3c470 <__TI_printfi+0x8f0>
   3c462:	9a8a      	ldr	r2, [sp, #552]	; 0x228
   3c464:	f818 0b01 	ldrb.w	r0, [r8], #1
   3c468:	4649      	mov	r1, r9
   3c46a:	4790      	blx	r2
   3c46c:	1e7f      	subs	r7, r7, #1
   3c46e:	d1f8      	bne.n	3c462 <__TI_printfi+0x8e2>
   3c470:	42ac      	cmp	r4, r5
   3c472:	9881      	ldr	r0, [sp, #516]	; 0x204
   3c474:	f340 809a 	ble.w	3c5ac <__TI_printfi+0xa2c>
   3c478:	1b64      	subs	r4, r4, r5
   3c47a:	0840      	lsrs	r0, r0, #1
   3c47c:	f0c0 8096 	bcc.w	3c5ac <__TI_printfi+0xa2c>
   3c480:	2c00      	cmp	r4, #0
   3c482:	4627      	mov	r7, r4
   3c484:	f340 8092 	ble.w	3c5ac <__TI_printfi+0xa2c>
   3c488:	9a8a      	ldr	r2, [sp, #552]	; 0x228
   3c48a:	4649      	mov	r1, r9
   3c48c:	2020      	movs	r0, #32
   3c48e:	4790      	blx	r2
   3c490:	1e7f      	subs	r7, r7, #1
   3c492:	d1f9      	bne.n	3c488 <__TI_printfi+0x908>
   3c494:	e08a      	b.n	3c5ac <__TI_printfi+0xa2c>
   3c496:	4649      	mov	r1, r9
   3c498:	e050      	b.n	3c53c <__TI_printfi+0x9bc>
   3c49a:	f8dd 8224 	ldr.w	r8, [sp, #548]	; 0x224
   3c49e:	1ce4      	adds	r4, r4, #3
   3c4a0:	f024 0403 	bic.w	r4, r4, #3
   3c4a4:	1d24      	adds	r4, r4, #4
   3c4a6:	9490      	str	r4, [sp, #576]	; 0x240
   3c4a8:	4641      	mov	r1, r8
   3c4aa:	f854 7c04 	ldr.w	r7, [r4, #-4]
   3c4ae:	2f00      	cmp	r7, #0
   3c4b0:	d044      	beq.n	3c53c <__TI_printfi+0x9bc>
   3c4b2:	2d00      	cmp	r5, #0
   3c4b4:	d406      	bmi.n	3c4c4 <__TI_printfi+0x944>
   3c4b6:	4638      	mov	r0, r7
   3c4b8:	f007 ff2d 	bl	44316 <wcslen>
   3c4bc:	42a8      	cmp	r0, r5
   3c4be:	bf88      	it	hi
   3c4c0:	9c83      	ldrhi	r4, [sp, #524]	; 0x20c
   3c4c2:	d803      	bhi.n	3c4cc <__TI_printfi+0x94c>
   3c4c4:	4638      	mov	r0, r7
   3c4c6:	f007 ff26 	bl	44316 <wcslen>
   3c4ca:	4604      	mov	r4, r0
   3c4cc:	9e82      	ldr	r6, [sp, #520]	; 0x208
   3c4ce:	42b4      	cmp	r4, r6
   3c4d0:	bfa8      	it	ge
   3c4d2:	1c26      	addge	r6, r4, #0
   3c4d4:	42a6      	cmp	r6, r4
   3c4d6:	44b3      	add	fp, r6
   3c4d8:	dd0b      	ble.n	3c4f2 <__TI_printfi+0x972>
   3c4da:	9881      	ldr	r0, [sp, #516]	; 0x204
   3c4dc:	1b35      	subs	r5, r6, r4
   3c4de:	0840      	lsrs	r0, r0, #1
   3c4e0:	d207      	bcs.n	3c4f2 <__TI_printfi+0x972>
   3c4e2:	2d00      	cmp	r5, #0
   3c4e4:	dd05      	ble.n	3c4f2 <__TI_printfi+0x972>
   3c4e6:	9a8a      	ldr	r2, [sp, #552]	; 0x228
   3c4e8:	4641      	mov	r1, r8
   3c4ea:	2020      	movs	r0, #32
   3c4ec:	4790      	blx	r2
   3c4ee:	1e6d      	subs	r5, r5, #1
   3c4f0:	d1f9      	bne.n	3c4e6 <__TI_printfi+0x966>
   3c4f2:	2c00      	cmp	r4, #0
   3c4f4:	dd0b      	ble.n	3c50e <__TI_printfi+0x98e>
   3c4f6:	1ebf      	subs	r7, r7, #2
   3c4f8:	4625      	mov	r5, r4
   3c4fa:	f837 1f02 	ldrh.w	r1, [r7, #2]!
   3c4fe:	b2c8      	uxtb	r0, r1
   3c500:	4288      	cmp	r0, r1
   3c502:	d114      	bne.n	3c52e <__TI_printfi+0x9ae>
   3c504:	9a8a      	ldr	r2, [sp, #552]	; 0x228
   3c506:	4641      	mov	r1, r8
   3c508:	4790      	blx	r2
   3c50a:	1e6d      	subs	r5, r5, #1
   3c50c:	d1f5      	bne.n	3c4fa <__TI_printfi+0x97a>
   3c50e:	42a6      	cmp	r6, r4
   3c510:	9881      	ldr	r0, [sp, #516]	; 0x204
   3c512:	dd4b      	ble.n	3c5ac <__TI_printfi+0xa2c>
   3c514:	1b36      	subs	r6, r6, r4
   3c516:	0840      	lsrs	r0, r0, #1
   3c518:	d348      	bcc.n	3c5ac <__TI_printfi+0xa2c>
   3c51a:	2e00      	cmp	r6, #0
   3c51c:	4637      	mov	r7, r6
   3c51e:	dd45      	ble.n	3c5ac <__TI_printfi+0xa2c>
   3c520:	9a8a      	ldr	r2, [sp, #552]	; 0x228
   3c522:	4641      	mov	r1, r8
   3c524:	2020      	movs	r0, #32
   3c526:	4790      	blx	r2
   3c528:	1e7f      	subs	r7, r7, #1
   3c52a:	d1f9      	bne.n	3c520 <__TI_printfi+0x9a0>
   3c52c:	e03e      	b.n	3c5ac <__TI_printfi+0xa2c>
   3c52e:	f007 ff09 	bl	44344 <__aeabi_errno_addr>
   3c532:	2158      	movs	r1, #88	; 0x58
   3c534:	6001      	str	r1, [r0, #0]
   3c536:	f04f 3bff 	mov.w	fp, #4294967295	; 0xffffffff
   3c53a:	e040      	b.n	3c5be <__TI_printfi+0xa3e>
   3c53c:	9a8a      	ldr	r2, [sp, #552]	; 0x228
   3c53e:	9893      	ldr	r0, [sp, #588]	; 0x24c
   3c540:	4790      	blx	r2
   3c542:	e033      	b.n	3c5ac <__TI_printfi+0xa2c>
   3c544:	f643 7060 	movw	r0, #16224	; 0x3f60
   3c548:	4030      	ands	r0, r6
   3c54a:	3820      	subs	r0, #32
   3c54c:	d025      	beq.n	3c59a <__TI_printfi+0xa1a>
   3c54e:	38e0      	subs	r0, #224	; 0xe0
   3c550:	d00e      	beq.n	3c570 <__TI_printfi+0x9f0>
   3c552:	f5b0 7080 	subs.w	r0, r0, #256	; 0x100
   3c556:	d017      	beq.n	3c588 <__TI_printfi+0xa08>
   3c558:	f5b0 60c0 	subs.w	r0, r0, #1536	; 0x600
   3c55c:	d008      	beq.n	3c570 <__TI_printfi+0x9f0>
   3c55e:	1ce4      	adds	r4, r4, #3
   3c560:	f024 0403 	bic.w	r4, r4, #3
   3c564:	1d24      	adds	r4, r4, #4
   3c566:	f854 0c04 	ldr.w	r0, [r4, #-4]
   3c56a:	f8c0 b000 	str.w	fp, [r0]
   3c56e:	e01c      	b.n	3c5aa <__TI_printfi+0xa2a>
   3c570:	1ce4      	adds	r4, r4, #3
   3c572:	f024 0403 	bic.w	r4, r4, #3
   3c576:	1d24      	adds	r4, r4, #4
   3c578:	f854 2c04 	ldr.w	r2, [r4, #-4]
   3c57c:	4658      	mov	r0, fp
   3c57e:	4659      	mov	r1, fp
   3c580:	17c0      	asrs	r0, r0, #31
   3c582:	e882 0003 	stmia.w	r2, {r0, r1}
   3c586:	e010      	b.n	3c5aa <__TI_printfi+0xa2a>
   3c588:	1ce4      	adds	r4, r4, #3
   3c58a:	f024 0403 	bic.w	r4, r4, #3
   3c58e:	1d24      	adds	r4, r4, #4
   3c590:	f854 0c04 	ldr.w	r0, [r4, #-4]
   3c594:	f880 b000 	strb.w	fp, [r0]
   3c598:	e007      	b.n	3c5aa <__TI_printfi+0xa2a>
   3c59a:	1ce4      	adds	r4, r4, #3
   3c59c:	f024 0403 	bic.w	r4, r4, #3
   3c5a0:	1d24      	adds	r4, r4, #4
   3c5a2:	f854 0c04 	ldr.w	r0, [r4, #-4]
   3c5a6:	f8a0 b000 	strh.w	fp, [r0]
   3c5aa:	9490      	str	r4, [sp, #576]	; 0x240
   3c5ac:	9888      	ldr	r0, [sp, #544]	; 0x220
   3c5ae:	f1bb 3fff 	cmp.w	fp, #4294967295	; 0xffffffff
   3c5b2:	d004      	beq.n	3c5be <__TI_printfi+0xa3e>
   3c5b4:	9f8c      	ldr	r7, [sp, #560]	; 0x230
   3c5b6:	6804      	ldr	r4, [r0, #0]
   3c5b8:	42a7      	cmp	r7, r4
   3c5ba:	f63f ab03 	bhi.w	3bbc4 <__TI_printfi+0x44>
   3c5be:	4658      	mov	r0, fp
   3c5c0:	b07f      	add	sp, #508	; 0x1fc
   3c5c2:	b016      	add	sp, #88	; 0x58
   3c5c4:	e8bd 8ff0 	ldmia.w	sp!, {r4, r5, r6, r7, r8, r9, sl, fp, pc}
   3c5c8:	2500      	.short	0x2500

0003c5ca <_nop>:
   3c5ca:	4770      	bx	lr

0003c5cc <sciInit>:
   3c5cc:	e59f098c 	ldr	r0, [pc, #2444]	; 3cf60 <scilinGetConfigValue+0x158>
   3c5d0:	e3a0c000 	mov	ip, #0
   3c5d4:	e580c000 	str	ip, [r0]
   3c5d8:	e59f0980 	ldr	r0, [pc, #2432]	; 3cf60 <scilinGetConfigValue+0x158>
   3c5dc:	e3a0c001 	mov	ip, #1
   3c5e0:	e580c000 	str	ip, [r0]
   3c5e4:	e59f0978 	ldr	r0, [pc, #2424]	; 3cf64 <scilinGetConfigValue+0x15c>
   3c5e8:	e3e0c000 	mvn	ip, #0
   3c5ec:	e580c000 	str	ip, [r0]
   3c5f0:	e59f0970 	ldr	r0, [pc, #2416]	; 3cf68 <scilinGetConfigValue+0x160>
   3c5f4:	e3e0c000 	mvn	ip, #0
   3c5f8:	e580c000 	str	ip, [r0]
   3c5fc:	e59f0968 	ldr	r0, [pc, #2408]	; 3cf6c <scilinGetConfigValue+0x164>
   3c600:	e59fc968 	ldr	ip, [pc, #2408]	; 3cf70 <scilinGetConfigValue+0x168>
   3c604:	e580c000 	str	ip, [r0]
   3c608:	e59f0964 	ldr	r0, [pc, #2404]	; 3cf74 <scilinGetConfigValue+0x16c>
   3c60c:	e3a0c030 	mov	ip, #48	; 0x30
   3c610:	e580c000 	str	ip, [r0]
   3c614:	e59f095c 	ldr	r0, [pc, #2396]	; 3cf78 <scilinGetConfigValue+0x170>
   3c618:	e3a0c007 	mov	ip, #7
   3c61c:	e580c000 	str	ip, [r0]
   3c620:	e59f0954 	ldr	r0, [pc, #2388]	; 3cf7c <scilinGetConfigValue+0x174>
   3c624:	e3a0c006 	mov	ip, #6
   3c628:	e580c000 	str	ip, [r0]
   3c62c:	e59f094c 	ldr	r0, [pc, #2380]	; 3cf80 <scilinGetConfigValue+0x178>
   3c630:	e3a0c000 	mov	ip, #0
   3c634:	e580c000 	str	ip, [r0]
   3c638:	e59f0944 	ldr	r0, [pc, #2372]	; 3cf84 <scilinGetConfigValue+0x17c>
   3c63c:	e3a0c000 	mov	ip, #0
   3c640:	e580c000 	str	ip, [r0]
   3c644:	e59f093c 	ldr	r0, [pc, #2364]	; 3cf88 <scilinGetConfigValue+0x180>
   3c648:	e3a0c000 	mov	ip, #0
   3c64c:	e580c000 	str	ip, [r0]
   3c650:	e59f0934 	ldr	r0, [pc, #2356]	; 3cf8c <scilinGetConfigValue+0x184>
   3c654:	e3a0c000 	mov	ip, #0
   3c658:	e580c000 	str	ip, [r0]
   3c65c:	e59f092c 	ldr	r0, [pc, #2348]	; 3cf90 <scilinGetConfigValue+0x188>
   3c660:	e3a0c006 	mov	ip, #6
   3c664:	e580c000 	str	ip, [r0]
   3c668:	e59f0924 	ldr	r0, [pc, #2340]	; 3cf94 <scilinGetConfigValue+0x18c>
   3c66c:	e3a0cc02 	mov	ip, #512	; 0x200
   3c670:	e580c000 	str	ip, [r0]
   3c674:	e59f091c 	ldr	r0, [pc, #2332]	; 3cf98 <scilinGetConfigValue+0x190>
   3c678:	e3a0cc02 	mov	ip, #512	; 0x200
   3c67c:	e580c000 	str	ip, [r0]
   3c680:	e59f0914 	ldr	r0, [pc, #2324]	; 3cf9c <scilinGetConfigValue+0x194>
   3c684:	e3a0c000 	mov	ip, #0
   3c688:	e580c000 	str	ip, [r0]
   3c68c:	e59f090c 	ldr	r0, [pc, #2316]	; 3cfa0 <scilinGetConfigValue+0x198>
   3c690:	e3a0c000 	mov	ip, #0
   3c694:	e580c000 	str	ip, [r0]
   3c698:	e59f0904 	ldr	r0, [pc, #2308]	; 3cfa4 <scilinGetConfigValue+0x19c>
   3c69c:	e3a0c000 	mov	ip, #0
   3c6a0:	e580c000 	str	ip, [r0]
   3c6a4:	e59f08c0 	ldr	r0, [pc, #2240]	; 3cf6c <scilinGetConfigValue+0x164>
   3c6a8:	e590c000 	ldr	ip, [r0]
   3c6ac:	e38cc080 	orr	ip, ip, #128	; 0x80
   3c6b0:	e580c000 	str	ip, [r0]
   3c6b4:	e59f08ec 	ldr	r0, [pc, #2284]	; 3cfa8 <scilinGetConfigValue+0x1a0>
   3c6b8:	e3a0c000 	mov	ip, #0
   3c6bc:	e580c000 	str	ip, [r0]
   3c6c0:	e59f08e0 	ldr	r0, [pc, #2272]	; 3cfa8 <scilinGetConfigValue+0x1a0>
   3c6c4:	e3a0c001 	mov	ip, #1
   3c6c8:	e580c000 	str	ip, [r0]
   3c6cc:	e59f08d8 	ldr	r0, [pc, #2264]	; 3cfac <scilinGetConfigValue+0x1a4>
   3c6d0:	e3e0c000 	mvn	ip, #0
   3c6d4:	e580c000 	str	ip, [r0]
   3c6d8:	e59f08d0 	ldr	r0, [pc, #2256]	; 3cfb0 <scilinGetConfigValue+0x1a8>
   3c6dc:	e3e0c000 	mvn	ip, #0
   3c6e0:	e580c000 	str	ip, [r0]
   3c6e4:	e59f08c8 	ldr	r0, [pc, #2248]	; 3cfb4 <scilinGetConfigValue+0x1ac>
   3c6e8:	e59fc880 	ldr	ip, [pc, #2176]	; 3cf70 <scilinGetConfigValue+0x168>
   3c6ec:	e580c000 	str	ip, [r0]
   3c6f0:	e59f08c0 	ldr	r0, [pc, #2240]	; 3cfb8 <scilinGetConfigValue+0x1b0>
   3c6f4:	e3a0c030 	mov	ip, #48	; 0x30
   3c6f8:	e580c000 	str	ip, [r0]
   3c6fc:	e59f08b8 	ldr	r0, [pc, #2232]	; 3cfbc <scilinGetConfigValue+0x1b4>
   3c700:	e3a0c007 	mov	ip, #7
   3c704:	e580c000 	str	ip, [r0]
   3c708:	e59f08b0 	ldr	r0, [pc, #2224]	; 3cfc0 <scilinGetConfigValue+0x1b8>
   3c70c:	e3a0c006 	mov	ip, #6
   3c710:	e580c000 	str	ip, [r0]
   3c714:	e59f08a8 	ldr	r0, [pc, #2216]	; 3cfc4 <scilinGetConfigValue+0x1bc>
   3c718:	e3a0c000 	mov	ip, #0
   3c71c:	e580c000 	str	ip, [r0]
   3c720:	e59f08a0 	ldr	r0, [pc, #2208]	; 3cfc8 <scilinGetConfigValue+0x1c0>
   3c724:	e3a0c000 	mov	ip, #0
   3c728:	e580c000 	str	ip, [r0]
   3c72c:	e59f0898 	ldr	r0, [pc, #2200]	; 3cfcc <scilinGetConfigValue+0x1c4>
   3c730:	e3a0c000 	mov	ip, #0
   3c734:	e580c000 	str	ip, [r0]
   3c738:	e59f0890 	ldr	r0, [pc, #2192]	; 3cfd0 <scilinGetConfigValue+0x1c8>
   3c73c:	e3a0c000 	mov	ip, #0
   3c740:	e580c000 	str	ip, [r0]
   3c744:	e59f0888 	ldr	r0, [pc, #2184]	; 3cfd4 <scilinGetConfigValue+0x1cc>
   3c748:	e3a0c006 	mov	ip, #6
   3c74c:	e580c000 	str	ip, [r0]
   3c750:	e59f0880 	ldr	r0, [pc, #2176]	; 3cfd8 <scilinGetConfigValue+0x1d0>
   3c754:	e3a0c000 	mov	ip, #0
   3c758:	e580c000 	str	ip, [r0]
   3c75c:	e59f0878 	ldr	r0, [pc, #2168]	; 3cfdc <scilinGetConfigValue+0x1d4>
   3c760:	e3a0cc02 	mov	ip, #512	; 0x200
   3c764:	e580c000 	str	ip, [r0]
   3c768:	e59f0870 	ldr	r0, [pc, #2160]	; 3cfe0 <scilinGetConfigValue+0x1d8>
   3c76c:	e3a0c000 	mov	ip, #0
   3c770:	e580c000 	str	ip, [r0]
   3c774:	e59f0868 	ldr	r0, [pc, #2152]	; 3cfe4 <scilinGetConfigValue+0x1dc>
   3c778:	e3a0c000 	mov	ip, #0
   3c77c:	e580c000 	str	ip, [r0]
   3c780:	e59f0860 	ldr	r0, [pc, #2144]	; 3cfe8 <scilinGetConfigValue+0x1e0>
   3c784:	e3a0c000 	mov	ip, #0
   3c788:	e580c000 	str	ip, [r0]
   3c78c:	e59f0820 	ldr	r0, [pc, #2080]	; 3cfb4 <scilinGetConfigValue+0x1ac>
   3c790:	e590c000 	ldr	ip, [r0]
   3c794:	e38cc080 	orr	ip, ip, #128	; 0x80
   3c798:	e580c000 	str	ip, [r0]
   3c79c:	e12fff1e 	bx	lr

0003c7a0 <sciSetFunctional>:
   3c7a0:	e24dd008 	sub	sp, sp, #8
   3c7a4:	e58d1004 	str	r1, [sp, #4]
   3c7a8:	e58d0000 	str	r0, [sp]
   3c7ac:	e59d0000 	ldr	r0, [sp]
   3c7b0:	e59dc004 	ldr	ip, [sp, #4]
   3c7b4:	e580c03c 	str	ip, [r0, #60]	; 0x3c
   3c7b8:	e28dd008 	add	sp, sp, #8
   3c7bc:	e12fff1e 	bx	lr

0003c7c0 <sciSetBaudrate>:
   3c7c0:	e92d4000 	stmfd	sp!, {lr}
   3c7c4:	e24dd024 	sub	sp, sp, #36	; 0x24
   3c7c8:	e58d1014 	str	r1, [sp, #20]
   3c7cc:	e58d0010 	str	r0, [sp, #16]
   3c7d0:	e28fcd0f 	add	ip, pc, #960	; 0x3c0
   3c7d4:	ed9c0b00 	vldr	d0, [ip]
   3c7d8:	ed8d0b00 	vstr	d0, [sp]
   3c7dc:	e59dc010 	ldr	ip, [sp, #16]
   3c7e0:	e59cc004 	ldr	ip, [ip, #4]
   3c7e4:	e31c0002 	tst	ip, #2
   3c7e8:	0a000001 	beq	3c7f4 <sciSetBaudrate+0x34>
   3c7ec:	e3a0c010 	mov	ip, #16
   3c7f0:	ea000000 	b	3c7f8 <sciSetBaudrate+0x38>
   3c7f4:	e3a0c001 	mov	ip, #1
   3c7f8:	e58dc018 	str	ip, [sp, #24]
   3c7fc:	e59d0014 	ldr	r0, [sp, #20]
   3c800:	e59dc018 	ldr	ip, [sp, #24]
   3c804:	e00c0c90 	mul	ip, r0, ip
   3c808:	e58dc01c 	str	ip, [sp, #28]
   3c80c:	ed9d0a07 	vldr	s0, [sp, #28]
   3c810:	eeb80b40 	vcvt.f64.u32	d0, s0
   3c814:	ed9d1b00 	vldr	d1, [sp]
   3c818:	ee811b00 	vdiv.f64	d1, d1, d0
   3c81c:	eeb70b00 	vmov.f64	d0, #112	; 0x3f800000  1.0
   3c820:	ee310b40 	vsub.f64	d0, d1, d0
   3c824:	ed8d0b02 	vstr	d0, [sp, #8]
   3c828:	ed9d0b02 	vldr	d0, [sp, #8]
   3c82c:	eeb61b00 	vmov.f64	d1, #96	; 0x3f000000  0.5
   3c830:	ee310b00 	vadd.f64	d0, d1, d0
   3c834:	fa001bf1 	blx	43800 <floor>
   3c838:	ed8d0b02 	vstr	d0, [sp, #8]
   3c83c:	ed9d0b02 	vldr	d0, [sp, #8]
   3c840:	eebc0bc0 	vcvt.u32.f64	s0, d0
   3c844:	e59d0010 	ldr	r0, [sp, #16]
   3c848:	ee10ca10 	vmov	ip, s0
   3c84c:	e3ccc4ff 	bic	ip, ip, #-16777216	; 0xff000000
   3c850:	e580c02c 	str	ip, [r0, #44]	; 0x2c
   3c854:	e28dd024 	add	sp, sp, #36	; 0x24
   3c858:	e8bd8000 	ldmfd	sp!, {pc}

0003c85c <sciIsTxReady>:
   3c85c:	e24dd008 	sub	sp, sp, #8
   3c860:	e58d0000 	str	r0, [sp]
   3c864:	e59dc000 	ldr	ip, [sp]
   3c868:	e59cc01c 	ldr	ip, [ip, #28]
   3c86c:	e20c0c01 	and	r0, ip, #256	; 0x100
   3c870:	e28dd008 	add	sp, sp, #8
   3c874:	e12fff1e 	bx	lr

0003c878 <sciSendByte>:
   3c878:	e24dd008 	sub	sp, sp, #8
   3c87c:	e5cd1004 	strb	r1, [sp, #4]
   3c880:	e58d0000 	str	r0, [sp]
   3c884:	e59dc000 	ldr	ip, [sp]
   3c888:	e59cc01c 	ldr	ip, [ip, #28]
   3c88c:	e31c0c01 	tst	ip, #256	; 0x100
   3c890:	0afffffb 	beq	3c884 <sciSendByte+0xc>
   3c894:	e59d0000 	ldr	r0, [sp]
   3c898:	e5ddc004 	ldrb	ip, [sp, #4]
   3c89c:	e580c038 	str	ip, [r0, #56]	; 0x38
   3c8a0:	e28dd008 	add	sp, sp, #8
   3c8a4:	e12fff1e 	bx	lr

0003c8a8 <sciSend>:
   3c8a8:	e24dd018 	sub	sp, sp, #24
   3c8ac:	e58d2008 	str	r2, [sp, #8]
   3c8b0:	e58d1004 	str	r1, [sp, #4]
   3c8b4:	e58d0000 	str	r0, [sp]
   3c8b8:	e59f06a0 	ldr	r0, [pc, #1696]	; 3cf60 <scilinGetConfigValue+0x158>
   3c8bc:	e59dc000 	ldr	ip, [sp]
   3c8c0:	e150000c 	cmp	r0, ip
   3c8c4:	1a000001 	bne	3c8d0 <sciSend+0x28>
   3c8c8:	e3a0c000 	mov	ip, #0
   3c8cc:	ea000000 	b	3c8d4 <sciSend+0x2c>
   3c8d0:	e3a0c001 	mov	ip, #1
   3c8d4:	e58dc00c 	str	ip, [sp, #12]
   3c8d8:	e59f16bc 	ldr	r1, [pc, #1724]	; 3cf9c <scilinGetConfigValue+0x194>
   3c8dc:	e59dc00c 	ldr	ip, [sp, #12]
   3c8e0:	e1a0020c 	lsl	r0, ip, #4
   3c8e4:	e080c10c 	add	ip, r0, ip, lsl #2
   3c8e8:	e791c00c 	ldr	ip, [r1, ip]
   3c8ec:	e31c0c01 	tst	ip, #256	; 0x100
   3c8f0:	0a000021 	beq	3c97c <sciSend+0xd4>
   3c8f4:	e59dc00c 	ldr	ip, [sp, #12]
   3c8f8:	e59f16a0 	ldr	r1, [pc, #1696]	; 3cfa0 <scilinGetConfigValue+0x198>
   3c8fc:	e1a0020c 	lsl	r0, ip, #4
   3c900:	e080010c 	add	r0, r0, ip, lsl #2
   3c904:	e59dc004 	ldr	ip, [sp, #4]
   3c908:	e781c000 	str	ip, [r1, r0]
   3c90c:	e59dc00c 	ldr	ip, [sp, #12]
   3c910:	e59f16d4 	ldr	r1, [pc, #1748]	; 3cfec <scilinGetConfigValue+0x1e4>
   3c914:	e1a0020c 	lsl	r0, ip, #4
   3c918:	e080010c 	add	r0, r0, ip, lsl #2
   3c91c:	e59dc008 	ldr	ip, [sp, #8]
   3c920:	e781c000 	str	ip, [r1, r0]
   3c924:	e59dc00c 	ldr	ip, [sp, #12]
   3c928:	e59f16bc 	ldr	r1, [pc, #1724]	; 3cfec <scilinGetConfigValue+0x1e4>
   3c92c:	e1a0020c 	lsl	r0, ip, #4
   3c930:	e080c10c 	add	ip, r0, ip, lsl #2
   3c934:	e791c00c 	ldr	ip, [r1, ip]
   3c938:	e5dcc000 	ldrb	ip, [ip]
   3c93c:	e5cdc010 	strb	ip, [sp, #16]
   3c940:	e59d0000 	ldr	r0, [sp]
   3c944:	e5ddc010 	ldrb	ip, [sp, #16]
   3c948:	e580c038 	str	ip, [r0, #56]	; 0x38
   3c94c:	e59dc00c 	ldr	ip, [sp, #12]
   3c950:	e59f1644 	ldr	r1, [pc, #1604]	; 3cf9c <scilinGetConfigValue+0x194>
   3c954:	e1a0020c 	lsl	r0, ip, #4
   3c958:	e080c10c 	add	ip, r0, ip, lsl #2
   3c95c:	e081c00c 	add	ip, r1, ip
   3c960:	e59c000c 	ldr	r0, [ip, #12]
   3c964:	e2800001 	add	r0, r0, #1
   3c968:	e58c000c 	str	r0, [ip, #12]
   3c96c:	e59dc000 	ldr	ip, [sp]
   3c970:	e3a00c01 	mov	r0, #256	; 0x100
   3c974:	e58c000c 	str	r0, [ip, #12]
   3c978:	ea000015 	b	3c9d4 <sciSend+0x12c>
   3c97c:	e59dc004 	ldr	ip, [sp, #4]
   3c980:	e35c0000 	cmp	ip, #0
   3c984:	0a000012 	beq	3c9d4 <sciSend+0x12c>
   3c988:	e59dc000 	ldr	ip, [sp]
   3c98c:	e59cc01c 	ldr	ip, [ip, #28]
   3c990:	e31c0c01 	tst	ip, #256	; 0x100
   3c994:	0afffffb 	beq	3c988 <sciSend+0xe0>
   3c998:	e59dc008 	ldr	ip, [sp, #8]
   3c99c:	e5dcc000 	ldrb	ip, [ip]
   3c9a0:	e5cdc010 	strb	ip, [sp, #16]
   3c9a4:	e59d0000 	ldr	r0, [sp]
   3c9a8:	e5ddc010 	ldrb	ip, [sp, #16]
   3c9ac:	e580c038 	str	ip, [r0, #56]	; 0x38
   3c9b0:	e59dc008 	ldr	ip, [sp, #8]
   3c9b4:	e28cc001 	add	ip, ip, #1
   3c9b8:	e58dc008 	str	ip, [sp, #8]
   3c9bc:	e59dc004 	ldr	ip, [sp, #4]
   3c9c0:	e24cc001 	sub	ip, ip, #1
   3c9c4:	e58dc004 	str	ip, [sp, #4]
   3c9c8:	e59dc004 	ldr	ip, [sp, #4]
   3c9cc:	e35c0000 	cmp	ip, #0
   3c9d0:	1affffec 	bne	3c988 <sciSend+0xe0>
   3c9d4:	e28dd018 	add	sp, sp, #24
   3c9d8:	e12fff1e 	bx	lr

0003c9dc <sciIsRxReady>:
   3c9dc:	e24dd008 	sub	sp, sp, #8
   3c9e0:	e58d0000 	str	r0, [sp]
   3c9e4:	e59dc000 	ldr	ip, [sp]
   3c9e8:	e59cc01c 	ldr	ip, [ip, #28]
   3c9ec:	e20c0c02 	and	r0, ip, #512	; 0x200
   3c9f0:	e28dd008 	add	sp, sp, #8
   3c9f4:	e12fff1e 	bx	lr

0003c9f8 <sciIsIdleDetected>:
   3c9f8:	e24dd008 	sub	sp, sp, #8
   3c9fc:	e58d0000 	str	r0, [sp]
   3ca00:	e59dc000 	ldr	ip, [sp]
   3ca04:	e59cc01c 	ldr	ip, [ip, #28]
   3ca08:	e20c0004 	and	r0, ip, #4
   3ca0c:	e28dd008 	add	sp, sp, #8
   3ca10:	e12fff1e 	bx	lr

0003ca14 <sciRxError>:
   3ca14:	e24dd008 	sub	sp, sp, #8
   3ca18:	e58d0000 	str	r0, [sp]
   3ca1c:	e59dc000 	ldr	ip, [sp]
   3ca20:	e59cc01c 	ldr	ip, [ip, #28]
   3ca24:	e20cc407 	and	ip, ip, #117440512	; 0x7000000
   3ca28:	e58dc004 	str	ip, [sp, #4]
   3ca2c:	e59dc000 	ldr	ip, [sp]
   3ca30:	e3a00407 	mov	r0, #117440512	; 0x7000000
   3ca34:	e58c001c 	str	r0, [ip, #28]
   3ca38:	e59d0004 	ldr	r0, [sp, #4]
   3ca3c:	e28dd008 	add	sp, sp, #8
   3ca40:	e12fff1e 	bx	lr

0003ca44 <sciReceiveByte>:
   3ca44:	e24dd008 	sub	sp, sp, #8
   3ca48:	e58d0000 	str	r0, [sp]
   3ca4c:	e59dc000 	ldr	ip, [sp]
   3ca50:	e59cc01c 	ldr	ip, [ip, #28]
   3ca54:	e31c0c02 	tst	ip, #512	; 0x200
   3ca58:	0afffffb 	beq	3ca4c <sciReceiveByte+0x8>
   3ca5c:	e59dc000 	ldr	ip, [sp]
   3ca60:	e59cc034 	ldr	ip, [ip, #52]	; 0x34
   3ca64:	e20c00ff 	and	r0, ip, #255	; 0xff
   3ca68:	e28dd008 	add	sp, sp, #8
   3ca6c:	e12fff1e 	bx	lr

0003ca70 <sciReceive>:
   3ca70:	e24dd010 	sub	sp, sp, #16
   3ca74:	e58d2008 	str	r2, [sp, #8]
   3ca78:	e58d1004 	str	r1, [sp, #4]
   3ca7c:	e58d0000 	str	r0, [sp]
   3ca80:	e59dc000 	ldr	ip, [sp]
   3ca84:	e59cc00c 	ldr	ip, [ip, #12]
   3ca88:	e31c0c02 	tst	ip, #512	; 0x200
   3ca8c:	0a000017 	beq	3caf0 <sciReceive+0x80>
   3ca90:	e59f04c8 	ldr	r0, [pc, #1224]	; 3cf60 <scilinGetConfigValue+0x158>
   3ca94:	e59dc000 	ldr	ip, [sp]
   3ca98:	e150000c 	cmp	r0, ip
   3ca9c:	1a000001 	bne	3caa8 <sciReceive+0x38>
   3caa0:	e3a0c000 	mov	ip, #0
   3caa4:	ea000000 	b	3caac <sciReceive+0x3c>
   3caa8:	e3a0c001 	mov	ip, #1
   3caac:	e58dc00c 	str	ip, [sp, #12]
   3cab0:	e59dc000 	ldr	ip, [sp]
   3cab4:	e3a00407 	mov	r0, #117440512	; 0x7000000
   3cab8:	e58c001c 	str	r0, [ip, #28]
   3cabc:	e59dc00c 	ldr	ip, [sp, #12]
   3cac0:	e59f14dc 	ldr	r1, [pc, #1244]	; 3cfa4 <scilinGetConfigValue+0x19c>
   3cac4:	e1a0020c 	lsl	r0, ip, #4
   3cac8:	e080010c 	add	r0, r0, ip, lsl #2
   3cacc:	e59dc004 	ldr	ip, [sp, #4]
   3cad0:	e781c000 	str	ip, [r1, r0]
   3cad4:	e59dc00c 	ldr	ip, [sp, #12]
   3cad8:	e59f1510 	ldr	r1, [pc, #1296]	; 3cff0 <scilinGetConfigValue+0x1e8>
   3cadc:	e1a0020c 	lsl	r0, ip, #4
   3cae0:	e080010c 	add	r0, r0, ip, lsl #2
   3cae4:	e59dc008 	ldr	ip, [sp, #8]
   3cae8:	e781c000 	str	ip, [r1, r0]
   3caec:	ea000013 	b	3cb40 <sciReceive+0xd0>
   3caf0:	e59dc004 	ldr	ip, [sp, #4]
   3caf4:	e35c0000 	cmp	ip, #0
   3caf8:	0a000010 	beq	3cb40 <sciReceive+0xd0>
   3cafc:	e59dc000 	ldr	ip, [sp]
   3cb00:	e59cc01c 	ldr	ip, [ip, #28]
   3cb04:	e31c0c02 	tst	ip, #512	; 0x200
   3cb08:	0afffffb 	beq	3cafc <sciReceive+0x8c>
   3cb0c:	e59dc000 	ldr	ip, [sp]
   3cb10:	e59d0008 	ldr	r0, [sp, #8]
   3cb14:	e59cc034 	ldr	ip, [ip, #52]	; 0x34
   3cb18:	e5c0c000 	strb	ip, [r0]
   3cb1c:	e59dc008 	ldr	ip, [sp, #8]
   3cb20:	e28cc001 	add	ip, ip, #1
   3cb24:	e58dc008 	str	ip, [sp, #8]
   3cb28:	e59dc004 	ldr	ip, [sp, #4]
   3cb2c:	e24cc001 	sub	ip, ip, #1
   3cb30:	e58dc004 	str	ip, [sp, #4]
   3cb34:	e59dc004 	ldr	ip, [sp, #4]
   3cb38:	e35c0000 	cmp	ip, #0
   3cb3c:	1affffee 	bne	3cafc <sciReceive+0x8c>
   3cb40:	e28dd010 	add	sp, sp, #16
   3cb44:	e12fff1e 	bx	lr

0003cb48 <sciEnableLoopback>:
   3cb48:	e24dd008 	sub	sp, sp, #8
   3cb4c:	e5cd1004 	strb	r1, [sp, #4]
   3cb50:	e58d0000 	str	r0, [sp]
   3cb54:	e59dc000 	ldr	ip, [sp]
   3cb58:	e3a00000 	mov	r0, #0
   3cb5c:	e58c0090 	str	r0, [ip, #144]	; 0x90
   3cb60:	e5ddc004 	ldrb	ip, [sp, #4]
   3cb64:	e59d0000 	ldr	r0, [sp]
   3cb68:	e1a0c08c 	lsl	ip, ip, #1
   3cb6c:	e38ccc0a 	orr	ip, ip, #2560	; 0xa00
   3cb70:	e580c090 	str	ip, [r0, #144]	; 0x90
   3cb74:	e28dd008 	add	sp, sp, #8
   3cb78:	e12fff1e 	bx	lr

0003cb7c <sciDisableLoopback>:
   3cb7c:	e24dd008 	sub	sp, sp, #8
   3cb80:	e58d0000 	str	r0, [sp]
   3cb84:	e59dc000 	ldr	ip, [sp]
   3cb88:	e3a00c05 	mov	r0, #1280	; 0x500
   3cb8c:	e58c0090 	str	r0, [ip, #144]	; 0x90
   3cb90:	e28dd008 	add	sp, sp, #8
   3cb94:	e12fff1e 	bx	lr
   3cb98:	4195752a 	.word	0x4195752a
   3cb9c:	00000000 	.word	0x00000000

0003cba0 <sciEnableNotification>:
   3cba0:	e24dd010 	sub	sp, sp, #16
   3cba4:	e58d1004 	str	r1, [sp, #4]
   3cba8:	e58d0000 	str	r0, [sp]
   3cbac:	e59f03ac 	ldr	r0, [pc, #940]	; 3cf60 <scilinGetConfigValue+0x158>
   3cbb0:	e59dc000 	ldr	ip, [sp]
   3cbb4:	e150000c 	cmp	r0, ip
   3cbb8:	1a000001 	bne	3cbc4 <sciEnableNotification+0x24>
   3cbbc:	e3a0c000 	mov	ip, #0
   3cbc0:	ea000000 	b	3cbc8 <sciEnableNotification+0x28>
   3cbc4:	e3a0c001 	mov	ip, #1
   3cbc8:	e58dc008 	str	ip, [sp, #8]
   3cbcc:	e59dc008 	ldr	ip, [sp, #8]
   3cbd0:	e59f03c4 	ldr	r0, [pc, #964]	; 3cf9c <scilinGetConfigValue+0x194>
   3cbd4:	e1a0120c 	lsl	r1, ip, #4
   3cbd8:	e081c10c 	add	ip, r1, ip, lsl #2
   3cbdc:	e59d2004 	ldr	r2, [sp, #4]
   3cbe0:	e79c1000 	ldr	r1, [ip, r0]
   3cbe4:	e2022c01 	and	r2, r2, #256	; 0x100
   3cbe8:	e1821001 	orr	r1, r2, r1
   3cbec:	e78c1000 	str	r1, [ip, r0]
   3cbf0:	e59d0000 	ldr	r0, [sp]
   3cbf4:	e59dc004 	ldr	ip, [sp, #4]
   3cbf8:	e3cccc01 	bic	ip, ip, #256	; 0x100
   3cbfc:	e580c00c 	str	ip, [r0, #12]
   3cc00:	e28dd010 	add	sp, sp, #16
   3cc04:	e12fff1e 	bx	lr

0003cc08 <sciDisableNotification>:
   3cc08:	e24dd010 	sub	sp, sp, #16
   3cc0c:	e58d1004 	str	r1, [sp, #4]
   3cc10:	e58d0000 	str	r0, [sp]
   3cc14:	e59f0344 	ldr	r0, [pc, #836]	; 3cf60 <scilinGetConfigValue+0x158>
   3cc18:	e59dc000 	ldr	ip, [sp]
   3cc1c:	e150000c 	cmp	r0, ip
   3cc20:	1a000001 	bne	3cc2c <sciDisableNotification+0x24>
   3cc24:	e3a0c000 	mov	ip, #0
   3cc28:	ea000000 	b	3cc30 <sciDisableNotification+0x28>
   3cc2c:	e3a0c001 	mov	ip, #1
   3cc30:	e58dc008 	str	ip, [sp, #8]
   3cc34:	e59dc008 	ldr	ip, [sp, #8]
   3cc38:	e59f035c 	ldr	r0, [pc, #860]	; 3cf9c <scilinGetConfigValue+0x194>
   3cc3c:	e1a0120c 	lsl	r1, ip, #4
   3cc40:	e081c10c 	add	ip, r1, ip, lsl #2
   3cc44:	e59d1004 	ldr	r1, [sp, #4]
   3cc48:	e79c2000 	ldr	r2, [ip, r0]
   3cc4c:	e2011c01 	and	r1, r1, #256	; 0x100
   3cc50:	e1c21001 	bic	r1, r2, r1
   3cc54:	e78c1000 	str	r1, [ip, r0]
   3cc58:	e59d0000 	ldr	r0, [sp]
   3cc5c:	e59dc004 	ldr	ip, [sp, #4]
   3cc60:	e3cccc01 	bic	ip, ip, #256	; 0x100
   3cc64:	e580c010 	str	ip, [r0, #16]
   3cc68:	e28dd010 	add	sp, sp, #16
   3cc6c:	e12fff1e 	bx	lr

0003cc70 <sciEnterResetState>:
   3cc70:	e24dd008 	sub	sp, sp, #8
   3cc74:	e58d0000 	str	r0, [sp]
   3cc78:	e59dc000 	ldr	ip, [sp]
   3cc7c:	e59c0004 	ldr	r0, [ip, #4]
   3cc80:	e3c00080 	bic	r0, r0, #128	; 0x80
   3cc84:	e58c0004 	str	r0, [ip, #4]
   3cc88:	e28dd008 	add	sp, sp, #8
   3cc8c:	e12fff1e 	bx	lr

0003cc90 <sciExitResetState>:
   3cc90:	e24dd008 	sub	sp, sp, #8
   3cc94:	e58d0000 	str	r0, [sp]
   3cc98:	e59dc000 	ldr	ip, [sp]
   3cc9c:	e59c0004 	ldr	r0, [ip, #4]
   3cca0:	e3800080 	orr	r0, r0, #128	; 0x80
   3cca4:	e58c0004 	str	r0, [ip, #4]
   3cca8:	e28dd008 	add	sp, sp, #8
   3ccac:	e12fff1e 	bx	lr

0003ccb0 <sciGetConfigValue>:
   3ccb0:	e24dd008 	sub	sp, sp, #8
   3ccb4:	e5cd1004 	strb	r1, [sp, #4]
   3ccb8:	e58d0000 	str	r0, [sp]
   3ccbc:	e5ddc004 	ldrb	ip, [sp, #4]
   3ccc0:	e35c0000 	cmp	ip, #0
   3ccc4:	1a000021 	bne	3cd50 <sciGetConfigValue+0xa0>
   3ccc8:	e59dc000 	ldr	ip, [sp]
   3cccc:	e3a00001 	mov	r0, #1
   3ccd0:	e58c0000 	str	r0, [ip]
   3ccd4:	e59dc000 	ldr	ip, [sp]
   3ccd8:	e59f0314 	ldr	r0, [pc, #788]	; 3cff4 <scilinGetConfigValue+0x1ec>
   3ccdc:	e58c0004 	str	r0, [ip, #4]
   3cce0:	e59dc000 	ldr	ip, [sp]
   3cce4:	e3a00c02 	mov	r0, #512	; 0x200
   3cce8:	e58c0008 	str	r0, [ip, #8]
   3ccec:	e59dc000 	ldr	ip, [sp]
   3ccf0:	e3a00c02 	mov	r0, #512	; 0x200
   3ccf4:	e58c000c 	str	r0, [ip, #12]
   3ccf8:	e59dc000 	ldr	ip, [sp]
   3ccfc:	e3a00007 	mov	r0, #7
   3cd00:	e58c0010 	str	r0, [ip, #16]
   3cd04:	e59dc000 	ldr	ip, [sp]
   3cd08:	e3a00030 	mov	r0, #48	; 0x30
   3cd0c:	e58c0014 	str	r0, [ip, #20]
   3cd10:	e59dc000 	ldr	ip, [sp]
   3cd14:	e3a00006 	mov	r0, #6
   3cd18:	e58c0018 	str	r0, [ip, #24]
   3cd1c:	e59dc000 	ldr	ip, [sp]
   3cd20:	e3a00000 	mov	r0, #0
   3cd24:	e58c001c 	str	r0, [ip, #28]
   3cd28:	e59dc000 	ldr	ip, [sp]
   3cd2c:	e3a00000 	mov	r0, #0
   3cd30:	e58c0020 	str	r0, [ip, #32]
   3cd34:	e59dc000 	ldr	ip, [sp]
   3cd38:	e3a00000 	mov	r0, #0
   3cd3c:	e58c0024 	str	r0, [ip, #36]	; 0x24
   3cd40:	e59dc000 	ldr	ip, [sp]
   3cd44:	e3a00006 	mov	r0, #6
   3cd48:	e58c0028 	str	r0, [ip, #40]	; 0x28
   3cd4c:	ea00002b 	b	3ce00 <sciGetConfigValue+0x150>
   3cd50:	e59fc208 	ldr	ip, [pc, #520]	; 3cf60 <scilinGetConfigValue+0x158>
   3cd54:	e59d0000 	ldr	r0, [sp]
   3cd58:	e59cc000 	ldr	ip, [ip]
   3cd5c:	e580c000 	str	ip, [r0]
   3cd60:	e59fc204 	ldr	ip, [pc, #516]	; 3cf6c <scilinGetConfigValue+0x164>
   3cd64:	e59d0000 	ldr	r0, [sp]
   3cd68:	e59cc000 	ldr	ip, [ip]
   3cd6c:	e580c004 	str	ip, [r0, #4]
   3cd70:	e59fc220 	ldr	ip, [pc, #544]	; 3cf98 <scilinGetConfigValue+0x190>
   3cd74:	e59d0000 	ldr	r0, [sp]
   3cd78:	e59cc000 	ldr	ip, [ip]
   3cd7c:	e580c008 	str	ip, [r0, #8]
   3cd80:	e59fc20c 	ldr	ip, [pc, #524]	; 3cf94 <scilinGetConfigValue+0x18c>
   3cd84:	e59d0000 	ldr	r0, [sp]
   3cd88:	e59cc000 	ldr	ip, [ip]
   3cd8c:	e580c00c 	str	ip, [r0, #12]
   3cd90:	e59fc1e0 	ldr	ip, [pc, #480]	; 3cf78 <scilinGetConfigValue+0x170>
   3cd94:	e59d0000 	ldr	r0, [sp]
   3cd98:	e59cc000 	ldr	ip, [ip]
   3cd9c:	e580c010 	str	ip, [r0, #16]
   3cda0:	e59fc1cc 	ldr	ip, [pc, #460]	; 3cf74 <scilinGetConfigValue+0x16c>
   3cda4:	e59d0000 	ldr	r0, [sp]
   3cda8:	e59cc000 	ldr	ip, [ip]
   3cdac:	e580c014 	str	ip, [r0, #20]
   3cdb0:	e59fc1c4 	ldr	ip, [pc, #452]	; 3cf7c <scilinGetConfigValue+0x174>
   3cdb4:	e59d0000 	ldr	r0, [sp]
   3cdb8:	e59cc000 	ldr	ip, [ip]
   3cdbc:	e580c018 	str	ip, [r0, #24]
   3cdc0:	e59fc1bc 	ldr	ip, [pc, #444]	; 3cf84 <scilinGetConfigValue+0x17c>
   3cdc4:	e59d0000 	ldr	r0, [sp]
   3cdc8:	e59cc000 	ldr	ip, [ip]
   3cdcc:	e580c01c 	str	ip, [r0, #28]
   3cdd0:	e59fc1b0 	ldr	ip, [pc, #432]	; 3cf88 <scilinGetConfigValue+0x180>
   3cdd4:	e59d0000 	ldr	r0, [sp]
   3cdd8:	e59cc000 	ldr	ip, [ip]
   3cddc:	e580c020 	str	ip, [r0, #32]
   3cde0:	e59fc1a4 	ldr	ip, [pc, #420]	; 3cf8c <scilinGetConfigValue+0x184>
   3cde4:	e59d0000 	ldr	r0, [sp]
   3cde8:	e59cc000 	ldr	ip, [ip]
   3cdec:	e580c024 	str	ip, [r0, #36]	; 0x24
   3cdf0:	e59fc198 	ldr	ip, [pc, #408]	; 3cf90 <scilinGetConfigValue+0x188>
   3cdf4:	e59d0000 	ldr	r0, [sp]
   3cdf8:	e59cc000 	ldr	ip, [ip]
   3cdfc:	e580c028 	str	ip, [r0, #40]	; 0x28
   3ce00:	e28dd008 	add	sp, sp, #8
   3ce04:	e12fff1e 	bx	lr

0003ce08 <scilinGetConfigValue>:
   3ce08:	e24dd008 	sub	sp, sp, #8
   3ce0c:	e5cd1004 	strb	r1, [sp, #4]
   3ce10:	e58d0000 	str	r0, [sp]
   3ce14:	e5ddc004 	ldrb	ip, [sp, #4]
   3ce18:	e35c0000 	cmp	ip, #0
   3ce1c:	1a000021 	bne	3cea8 <scilinGetConfigValue+0xa0>
   3ce20:	e59dc000 	ldr	ip, [sp]
   3ce24:	e3a00001 	mov	r0, #1
   3ce28:	e58c0000 	str	r0, [ip]
   3ce2c:	e59dc000 	ldr	ip, [sp]
   3ce30:	e59f01bc 	ldr	r0, [pc, #444]	; 3cff4 <scilinGetConfigValue+0x1ec>
   3ce34:	e58c0004 	str	r0, [ip, #4]
   3ce38:	e59dc000 	ldr	ip, [sp]
   3ce3c:	e3a00c02 	mov	r0, #512	; 0x200
   3ce40:	e58c0008 	str	r0, [ip, #8]
   3ce44:	e59dc000 	ldr	ip, [sp]
   3ce48:	e3a00000 	mov	r0, #0
   3ce4c:	e58c000c 	str	r0, [ip, #12]
   3ce50:	e59dc000 	ldr	ip, [sp]
   3ce54:	e3a00007 	mov	r0, #7
   3ce58:	e58c0010 	str	r0, [ip, #16]
   3ce5c:	e59dc000 	ldr	ip, [sp]
   3ce60:	e3a00030 	mov	r0, #48	; 0x30
   3ce64:	e58c0014 	str	r0, [ip, #20]
   3ce68:	e59dc000 	ldr	ip, [sp]
   3ce6c:	e3a00006 	mov	r0, #6
   3ce70:	e58c0018 	str	r0, [ip, #24]
   3ce74:	e59dc000 	ldr	ip, [sp]
   3ce78:	e3a00000 	mov	r0, #0
   3ce7c:	e58c001c 	str	r0, [ip, #28]
   3ce80:	e59dc000 	ldr	ip, [sp]
   3ce84:	e3a00000 	mov	r0, #0
   3ce88:	e58c0020 	str	r0, [ip, #32]
   3ce8c:	e59dc000 	ldr	ip, [sp]
   3ce90:	e3a00000 	mov	r0, #0
   3ce94:	e58c0024 	str	r0, [ip, #36]	; 0x24
   3ce98:	e59dc000 	ldr	ip, [sp]
   3ce9c:	e3a00006 	mov	r0, #6
   3cea0:	e58c0028 	str	r0, [ip, #40]	; 0x28
   3cea4:	ea00002b 	b	3cf58 <scilinGetConfigValue+0x150>
   3cea8:	e59fc0f8 	ldr	ip, [pc, #248]	; 3cfa8 <scilinGetConfigValue+0x1a0>
   3ceac:	e59d0000 	ldr	r0, [sp]
   3ceb0:	e59cc000 	ldr	ip, [ip]
   3ceb4:	e580c000 	str	ip, [r0]
   3ceb8:	e59fc0f4 	ldr	ip, [pc, #244]	; 3cfb4 <scilinGetConfigValue+0x1ac>
   3cebc:	e59d0000 	ldr	r0, [sp]
   3cec0:	e59cc000 	ldr	ip, [ip]
   3cec4:	e580c004 	str	ip, [r0, #4]
   3cec8:	e59fc10c 	ldr	ip, [pc, #268]	; 3cfdc <scilinGetConfigValue+0x1d4>
   3cecc:	e59d0000 	ldr	r0, [sp]
   3ced0:	e59cc000 	ldr	ip, [ip]
   3ced4:	e580c008 	str	ip, [r0, #8]
   3ced8:	e59fc0f8 	ldr	ip, [pc, #248]	; 3cfd8 <scilinGetConfigValue+0x1d0>
   3cedc:	e59d0000 	ldr	r0, [sp]
   3cee0:	e59cc000 	ldr	ip, [ip]
   3cee4:	e580c00c 	str	ip, [r0, #12]
   3cee8:	e59fc0cc 	ldr	ip, [pc, #204]	; 3cfbc <scilinGetConfigValue+0x1b4>
   3ceec:	e59d0000 	ldr	r0, [sp]
   3cef0:	e59cc000 	ldr	ip, [ip]
   3cef4:	e580c010 	str	ip, [r0, #16]
   3cef8:	e59fc0b8 	ldr	ip, [pc, #184]	; 3cfb8 <scilinGetConfigValue+0x1b0>
   3cefc:	e59d0000 	ldr	r0, [sp]
   3cf00:	e59cc000 	ldr	ip, [ip]
   3cf04:	e580c014 	str	ip, [r0, #20]
   3cf08:	e59fc0b0 	ldr	ip, [pc, #176]	; 3cfc0 <scilinGetConfigValue+0x1b8>
   3cf0c:	e59d0000 	ldr	r0, [sp]
   3cf10:	e59cc000 	ldr	ip, [ip]
   3cf14:	e580c018 	str	ip, [r0, #24]
   3cf18:	e59fc0a8 	ldr	ip, [pc, #168]	; 3cfc8 <scilinGetConfigValue+0x1c0>
   3cf1c:	e59d0000 	ldr	r0, [sp]
   3cf20:	e59cc000 	ldr	ip, [ip]
   3cf24:	e580c01c 	str	ip, [r0, #28]
   3cf28:	e59fc09c 	ldr	ip, [pc, #156]	; 3cfcc <scilinGetConfigValue+0x1c4>
   3cf2c:	e59d0000 	ldr	r0, [sp]
   3cf30:	e59cc000 	ldr	ip, [ip]
   3cf34:	e580c020 	str	ip, [r0, #32]
   3cf38:	e59fc090 	ldr	ip, [pc, #144]	; 3cfd0 <scilinGetConfigValue+0x1c8>
   3cf3c:	e59d0000 	ldr	r0, [sp]
   3cf40:	e59cc000 	ldr	ip, [ip]
   3cf44:	e580c024 	str	ip, [r0, #36]	; 0x24
   3cf48:	e59fc084 	ldr	ip, [pc, #132]	; 3cfd4 <scilinGetConfigValue+0x1cc>
   3cf4c:	e59d0000 	ldr	r0, [sp]
   3cf50:	e59cc000 	ldr	ip, [ip]
   3cf54:	e580c028 	str	ip, [r0, #40]	; 0x28
   3cf58:	e28dd008 	add	sp, sp, #8
   3cf5c:	e12fff1e 	bx	lr
   3cf60:	fff7e500 	.word	0xfff7e500
   3cf64:	fff7e510 	.word	0xfff7e510
   3cf68:	fff7e518 	.word	0xfff7e518
   3cf6c:	fff7e504 	.word	0xfff7e504
   3cf70:	03000022 	.word	0x03000022
   3cf74:	fff7e52c 	.word	0xfff7e52c
   3cf78:	fff7e528 	.word	0xfff7e528
   3cf7c:	fff7e53c 	.word	0xfff7e53c
   3cf80:	fff7e548 	.word	0xfff7e548
   3cf84:	fff7e540 	.word	0xfff7e540
   3cf88:	fff7e554 	.word	0xfff7e554
   3cf8c:	fff7e558 	.word	0xfff7e558
   3cf90:	fff7e55c 	.word	0xfff7e55c
   3cf94:	fff7e514 	.word	0xfff7e514
   3cf98:	fff7e50c 	.word	0xfff7e50c
   3cf9c:	08012398 	.word	0x08012398
   3cfa0:	0801239c 	.word	0x0801239c
   3cfa4:	080123a0 	.word	0x080123a0
   3cfa8:	fff7e400 	.word	0xfff7e400
   3cfac:	fff7e410 	.word	0xfff7e410
   3cfb0:	fff7e418 	.word	0xfff7e418
   3cfb4:	fff7e404 	.word	0xfff7e404
   3cfb8:	fff7e42c 	.word	0xfff7e42c
   3cfbc:	fff7e428 	.word	0xfff7e428
   3cfc0:	fff7e43c 	.word	0xfff7e43c
   3cfc4:	fff7e448 	.word	0xfff7e448
   3cfc8:	fff7e440 	.word	0xfff7e440
   3cfcc:	fff7e454 	.word	0xfff7e454
   3cfd0:	fff7e458 	.word	0xfff7e458
   3cfd4:	fff7e45c 	.word	0xfff7e45c
   3cfd8:	fff7e414 	.word	0xfff7e414
   3cfdc:	fff7e40c 	.word	0xfff7e40c
   3cfe0:	080123ac 	.word	0x080123ac
   3cfe4:	080123b0 	.word	0x080123b0
   3cfe8:	080123b4 	.word	0x080123b4
   3cfec:	080123a4 	.word	0x080123a4
   3cff0:	080123a8 	.word	0x080123a8
   3cff4:	030000a2 	.word	0x030000a2

0003cff8 <hetInit>:
   3cff8:	e92d4008 	push	{r3, lr}
   3cffc:	e59f089c 	ldr	r0, [pc, #2204]	; 3d8a0 <het1GetConfigValue+0x190>
   3d000:	e3a0c000 	mov	ip, #0
   3d004:	e580c000 	str	ip, [r0]
   3d008:	e59f0894 	ldr	r0, [pc, #2196]	; 3d8a4 <het1GetConfigValue+0x194>
   3d00c:	e3a0c000 	mov	ip, #0
   3d010:	e580c000 	str	ip, [r0]
   3d014:	e59f088c 	ldr	r0, [pc, #2188]	; 3d8a8 <het1GetConfigValue+0x198>
   3d018:	e3a0c000 	mov	ip, #0
   3d01c:	e580c000 	str	ip, [r0]
   3d020:	e59f0884 	ldr	r0, [pc, #2180]	; 3d8ac <het1GetConfigValue+0x19c>
   3d024:	e3a0c000 	mov	ip, #0
   3d028:	e580c000 	str	ip, [r0]
   3d02c:	e59f087c 	ldr	r0, [pc, #2172]	; 3d8b0 <het1GetConfigValue+0x1a0>
   3d030:	e3a0c000 	mov	ip, #0
   3d034:	e580c000 	str	ip, [r0]
   3d038:	e59f0874 	ldr	r0, [pc, #2164]	; 3d8b4 <het1GetConfigValue+0x1a4>
   3d03c:	e30fc00f 	movw	ip, #61455	; 0xf00f
   3d040:	e580c000 	str	ip, [r0]
   3d044:	e59f086c 	ldr	r0, [pc, #2156]	; 3d8b8 <het1GetConfigValue+0x1a8>
   3d048:	e3a0c000 	mov	ip, #0
   3d04c:	e580c000 	str	ip, [r0]
   3d050:	e59f0864 	ldr	r0, [pc, #2148]	; 3d8bc <het1GetConfigValue+0x1ac>
   3d054:	e3a0c000 	mov	ip, #0
   3d058:	e580c000 	str	ip, [r0]
   3d05c:	e59f085c 	ldr	r0, [pc, #2140]	; 3d8c0 <het1GetConfigValue+0x1b0>
   3d060:	e3a0cc07 	mov	ip, #1792	; 0x700
   3d064:	e580c000 	str	ip, [r0]
   3d068:	e59f0854 	ldr	r0, [pc, #2132]	; 3d8c4 <het1GetConfigValue+0x1b4>
   3d06c:	e3a0c005 	mov	ip, #5
   3d070:	e580c000 	str	ip, [r0]
   3d074:	e59f1850 	ldr	r1, [pc, #2128]	; 3d8cc <het1GetConfigValue+0x1bc>
   3d078:	e59f0848 	ldr	r0, [pc, #2120]	; 3d8c8 <het1GetConfigValue+0x1b8>
   3d07c:	e3a02e3a 	mov	r2, #928	; 0x3a0
   3d080:	fb001ad2 	blx	43bd2 <__aeabi_memcpy>
   3d084:	e59f0844 	ldr	r0, [pc, #2116]	; 3d8d0 <het1GetConfigValue+0x1c0>
   3d088:	e3a0c000 	mov	ip, #0
   3d08c:	e580c000 	str	ip, [r0]
   3d090:	e59f083c 	ldr	r0, [pc, #2108]	; 3d8d4 <het1GetConfigValue+0x1c4>
   3d094:	e3e0c000 	mvn	ip, #0
   3d098:	e580c000 	str	ip, [r0]
   3d09c:	e59f0834 	ldr	r0, [pc, #2100]	; 3d8d8 <het1GetConfigValue+0x1c8>
   3d0a0:	e3a0c004 	mov	ip, #4
   3d0a4:	e580c000 	str	ip, [r0]
   3d0a8:	e59f082c 	ldr	r0, [pc, #2092]	; 3d8dc <het1GetConfigValue+0x1cc>
   3d0ac:	e59fc82c 	ldr	ip, [pc, #2092]	; 3d8e0 <het1GetConfigValue+0x1d0>
   3d0b0:	e580c000 	str	ip, [r0]
   3d0b4:	e8bd8008 	pop	{r3, pc}

0003d0b8 <pwmStart>:
   3d0b8:	e24dd008 	sub	sp, sp, #8
   3d0bc:	e58d1004 	str	r1, [sp, #4]
   3d0c0:	e58d0000 	str	r0, [sp]
   3d0c4:	e59dc004 	ldr	ip, [sp, #4]
   3d0c8:	e59d0000 	ldr	r0, [sp]
   3d0cc:	e1a0c28c 	lsl	ip, ip, #5
   3d0d0:	e28cce29 	add	ip, ip, #656	; 0x290
   3d0d4:	e080c00c 	add	ip, r0, ip
   3d0d8:	e59c0004 	ldr	r0, [ip, #4]
   3d0dc:	e3800501 	orr	r0, r0, #4194304	; 0x400000
   3d0e0:	e58c0004 	str	r0, [ip, #4]
   3d0e4:	e28dd008 	add	sp, sp, #8
   3d0e8:	e12fff1e 	bx	lr

0003d0ec <pwmStop>:
   3d0ec:	e24dd008 	sub	sp, sp, #8
   3d0f0:	e58d1004 	str	r1, [sp, #4]
   3d0f4:	e58d0000 	str	r0, [sp]
   3d0f8:	e59dc004 	ldr	ip, [sp, #4]
   3d0fc:	e59d0000 	ldr	r0, [sp]
   3d100:	e1a0c28c 	lsl	ip, ip, #5
   3d104:	e28cce29 	add	ip, ip, #656	; 0x290
   3d108:	e080c00c 	add	ip, r0, ip
   3d10c:	e59c0004 	ldr	r0, [ip, #4]
   3d110:	e3c00501 	bic	r0, r0, #4194304	; 0x400000
   3d114:	e58c0004 	str	r0, [ip, #4]
   3d118:	e28dd008 	add	sp, sp, #8
   3d11c:	e12fff1e 	bx	lr

0003d120 <pwmSetDuty>:
   3d120:	e92d4000 	stmfd	sp!, {lr}
   3d124:	e24dd01c 	sub	sp, sp, #28
   3d128:	e58d2008 	str	r2, [sp, #8]
   3d12c:	e58d1004 	str	r1, [sp, #4]
   3d130:	e58d0000 	str	r0, [sp]
   3d134:	e3a0c000 	mov	ip, #0
   3d138:	e58dc010 	str	ip, [sp, #16]
   3d13c:	e59dc004 	ldr	ip, [sp, #4]
   3d140:	e59d0000 	ldr	r0, [sp]
   3d144:	e1a0c28c 	lsl	ip, ip, #5
   3d148:	e28cce2a 	add	ip, ip, #672	; 0x2a0
   3d14c:	e080c00c 	add	ip, r0, ip
   3d150:	e59cc008 	ldr	ip, [ip, #8]
   3d154:	e28cc080 	add	ip, ip, #128	; 0x80
   3d158:	e58dc014 	str	ip, [sp, #20]
   3d15c:	e59dc014 	ldr	ip, [sp, #20]
   3d160:	e1a0c3ac 	lsr	ip, ip, #7
   3d164:	e58dc014 	str	ip, [sp, #20]
   3d168:	e59dc000 	ldr	ip, [sp]
   3d16c:	e37c08ba 	cmn	ip, #12189696	; 0xba0000
   3d170:	1a000003 	bne	3d184 <pwmSetDuty+0x64>
   3d174:	e59dc004 	ldr	ip, [sp, #4]
   3d178:	e59f0764 	ldr	r0, [pc, #1892]	; 3d8e4 <het1GetConfigValue+0x1d4>
   3d17c:	e790c10c 	ldr	ip, [r0, ip, lsl #2]
   3d180:	e58dc010 	str	ip, [sp, #16]
   3d184:	e59dc008 	ldr	ip, [sp, #8]
   3d188:	e35c0000 	cmp	ip, #0
   3d18c:	1a000007 	bne	3d1b0 <pwmSetDuty+0x90>
   3d190:	e59dc010 	ldr	ip, [sp, #16]
   3d194:	e35c0003 	cmp	ip, #3
   3d198:	1a000001 	bne	3d1a4 <pwmSetDuty+0x84>
   3d19c:	e3a0c000 	mov	ip, #0
   3d1a0:	ea000000 	b	3d1a8 <pwmSetDuty+0x88>
   3d1a4:	e3a0c002 	mov	ip, #2
   3d1a8:	e58dc00c 	str	ip, [sp, #12]
   3d1ac:	ea00000c 	b	3d1e4 <pwmSetDuty+0xc4>
   3d1b0:	e59dc008 	ldr	ip, [sp, #8]
   3d1b4:	e35c0064 	cmp	ip, #100	; 0x64
   3d1b8:	3a000007 	bcc	3d1dc <pwmSetDuty+0xbc>
   3d1bc:	e59dc010 	ldr	ip, [sp, #16]
   3d1c0:	e35c0003 	cmp	ip, #3
   3d1c4:	1a000001 	bne	3d1d0 <pwmSetDuty+0xb0>
   3d1c8:	e3a0c002 	mov	ip, #2
   3d1cc:	ea000000 	b	3d1d4 <pwmSetDuty+0xb4>
   3d1d0:	e3a0c000 	mov	ip, #0
   3d1d4:	e58dc00c 	str	ip, [sp, #12]
   3d1d8:	ea000001 	b	3d1e4 <pwmSetDuty+0xc4>
   3d1dc:	e59dc010 	ldr	ip, [sp, #16]
   3d1e0:	e58dc00c 	str	ip, [sp, #12]
   3d1e4:	e59dc004 	ldr	ip, [sp, #4]
   3d1e8:	e59d0000 	ldr	r0, [sp]
   3d1ec:	e1a0c28c 	lsl	ip, ip, #5
   3d1f0:	e28cce29 	add	ip, ip, #656	; 0x290
   3d1f4:	e59d1004 	ldr	r1, [sp, #4]
   3d1f8:	e080000c 	add	r0, r0, ip
   3d1fc:	e59d2000 	ldr	r2, [sp]
   3d200:	e59dc00c 	ldr	ip, [sp, #12]
   3d204:	e1a01281 	lsl	r1, r1, #5
   3d208:	e5900004 	ldr	r0, [r0, #4]
   3d20c:	e2811e29 	add	r1, r1, #656	; 0x290
   3d210:	e0821001 	add	r1, r2, r1
   3d214:	e3c00018 	bic	r0, r0, #24
   3d218:	e180c18c 	orr	ip, r0, ip, lsl #3
   3d21c:	e581c004 	str	ip, [r1, #4]
   3d220:	e59dc014 	ldr	ip, [sp, #20]
   3d224:	e59d0008 	ldr	r0, [sp, #8]
   3d228:	e000009c 	mul	r0, ip, r0
   3d22c:	e3a01064 	mov	r1, #100	; 0x64
   3d230:	eb001ba6 	bl	440d0 <__aeabi_uidiv>
   3d234:	e59dc004 	ldr	ip, [sp, #4]
   3d238:	e59d1000 	ldr	r1, [sp]
   3d23c:	e1a0c28c 	lsl	ip, ip, #5
   3d240:	e28cce29 	add	ip, ip, #656	; 0x290
   3d244:	e081100c 	add	r1, r1, ip
   3d248:	e1a0c380 	lsl	ip, r0, #7
   3d24c:	e28cc080 	add	ip, ip, #128	; 0x80
   3d250:	e581c008 	str	ip, [r1, #8]
   3d254:	e28dd01c 	add	sp, sp, #28
   3d258:	e8bd8000 	ldmfd	sp!, {pc}

0003d25c <pwmSetSignal>:
   3d25c:	e92d000c 	push	{r2, r3}
   3d260:	e92d4080 	push	{r7, lr}
   3d264:	e28d7008 	add	r7, sp, #8
   3d268:	e24dd018 	sub	sp, sp, #24
   3d26c:	e58d100c 	str	r1, [sp, #12]
   3d270:	e58d0008 	str	r0, [sp, #8]
   3d274:	e3a0c000 	mov	ip, #0
   3d278:	e58dc014 	str	ip, [sp, #20]
   3d27c:	e28fcfda 	add	ip, pc, #872	; 0x368
   3d280:	ed9c0b00 	vldr	d0, [ip]
   3d284:	ed8d0b00 	vstr	d0, [sp]
   3d288:	e59dc008 	ldr	ip, [sp, #8]
   3d28c:	e37c08ba 	cmn	ip, #12189696	; 0xba0000
   3d290:	1a00000b 	bne	3d2c4 <pwmSetSignal+0x68>
   3d294:	e28f0fd6 	add	r0, pc, #856	; 0x358
   3d298:	ed970b02 	vldr	d0, [r7, #8]
   3d29c:	e28fcfd6 	add	ip, pc, #856	; 0x358
   3d2a0:	ed901b00 	vldr	d1, [r0]
   3d2a4:	ee210b00 	vmul.f64	d0, d1, d0
   3d2a8:	ed9c1b00 	vldr	d1, [ip]
   3d2ac:	ee800b01 	vdiv.f64	d0, d0, d1
   3d2b0:	ed8d0b00 	vstr	d0, [sp]
   3d2b4:	e59dc00c 	ldr	ip, [sp, #12]
   3d2b8:	e59f0624 	ldr	r0, [pc, #1572]	; 3d8e4 <het1GetConfigValue+0x1d4>
   3d2bc:	e790c10c 	ldr	ip, [r0, ip, lsl #2]
   3d2c0:	e58dc014 	str	ip, [sp, #20]
   3d2c4:	e597c000 	ldr	ip, [r7]
   3d2c8:	e35c0000 	cmp	ip, #0
   3d2cc:	1a000007 	bne	3d2f0 <pwmSetSignal+0x94>
   3d2d0:	e59dc014 	ldr	ip, [sp, #20]
   3d2d4:	e35c0003 	cmp	ip, #3
   3d2d8:	1a000001 	bne	3d2e4 <pwmSetSignal+0x88>
   3d2dc:	e3a0c000 	mov	ip, #0
   3d2e0:	ea000000 	b	3d2e8 <pwmSetSignal+0x8c>
   3d2e4:	e3a0c002 	mov	ip, #2
   3d2e8:	e58dc010 	str	ip, [sp, #16]
   3d2ec:	ea00000c 	b	3d324 <pwmSetSignal+0xc8>
   3d2f0:	e597c000 	ldr	ip, [r7]
   3d2f4:	e35c0064 	cmp	ip, #100	; 0x64
   3d2f8:	3a000007 	bcc	3d31c <pwmSetSignal+0xc0>
   3d2fc:	e59dc014 	ldr	ip, [sp, #20]
   3d300:	e35c0003 	cmp	ip, #3
   3d304:	1a000001 	bne	3d310 <pwmSetSignal+0xb4>
   3d308:	e3a0c002 	mov	ip, #2
   3d30c:	ea000000 	b	3d314 <pwmSetSignal+0xb8>
   3d310:	e3a0c000 	mov	ip, #0
   3d314:	e58dc010 	str	ip, [sp, #16]
   3d318:	ea000001 	b	3d324 <pwmSetSignal+0xc8>
   3d31c:	e59dc014 	ldr	ip, [sp, #20]
   3d320:	e58dc010 	str	ip, [sp, #16]
   3d324:	e59dc00c 	ldr	ip, [sp, #12]
   3d328:	e59d0008 	ldr	r0, [sp, #8]
   3d32c:	e1a0c28c 	lsl	ip, ip, #5
   3d330:	e28cce29 	add	ip, ip, #656	; 0x290
   3d334:	e59d100c 	ldr	r1, [sp, #12]
   3d338:	e080000c 	add	r0, r0, ip
   3d33c:	e59d2008 	ldr	r2, [sp, #8]
   3d340:	e59dc010 	ldr	ip, [sp, #16]
   3d344:	e1a01281 	lsl	r1, r1, #5
   3d348:	e5900004 	ldr	r0, [r0, #4]
   3d34c:	e2811e29 	add	r1, r1, #656	; 0x290
   3d350:	e0821001 	add	r1, r2, r1
   3d354:	e3c00018 	bic	r0, r0, #24
   3d358:	e180c18c 	orr	ip, r0, ip, lsl #3
   3d35c:	e581c004 	str	ip, [r1, #4]
   3d360:	ed9d0b00 	vldr	d0, [sp]
   3d364:	eebc0bc0 	vcvt.u32.f64	s0, d0
   3d368:	e5970000 	ldr	r0, [r7]
   3d36c:	ee10ca10 	vmov	ip, s0
   3d370:	e000009c 	mul	r0, ip, r0
   3d374:	e3a01064 	mov	r1, #100	; 0x64
   3d378:	eb001b54 	bl	440d0 <__aeabi_uidiv>
   3d37c:	e59dc00c 	ldr	ip, [sp, #12]
   3d380:	e59d1008 	ldr	r1, [sp, #8]
   3d384:	e1a0c28c 	lsl	ip, ip, #5
   3d388:	e28cce29 	add	ip, ip, #656	; 0x290
   3d38c:	e081100c 	add	r1, r1, ip
   3d390:	e1a0c380 	lsl	ip, r0, #7
   3d394:	e28cc080 	add	ip, ip, #128	; 0x80
   3d398:	e581c008 	str	ip, [r1, #8]
   3d39c:	ed9d0b00 	vldr	d0, [sp]
   3d3a0:	eebc0bc0 	vcvt.u32.f64	s0, d0
   3d3a4:	e59dc00c 	ldr	ip, [sp, #12]
   3d3a8:	e1a0c28c 	lsl	ip, ip, #5
   3d3ac:	e59d1008 	ldr	r1, [sp, #8]
   3d3b0:	e28c0e2a 	add	r0, ip, #672	; 0x2a0
   3d3b4:	ee10ca10 	vmov	ip, s0
   3d3b8:	e0810000 	add	r0, r1, r0
   3d3bc:	e1a0c38c 	lsl	ip, ip, #7
   3d3c0:	e24cc080 	sub	ip, ip, #128	; 0x80
   3d3c4:	e580c008 	str	ip, [r0, #8]
   3d3c8:	e28dd018 	add	sp, sp, #24
   3d3cc:	e8bd4080 	pop	{r7, lr}
   3d3d0:	e28dd008 	add	sp, sp, #8
   3d3d4:	e12fff1e 	bx	lr

0003d3d8 <pwmGetSignal>:
   3d3d8:	e92d4000 	stmfd	sp!, {lr}
   3d3dc:	e24dd014 	sub	sp, sp, #20
   3d3e0:	e58d2008 	str	r2, [sp, #8]
   3d3e4:	e58d1004 	str	r1, [sp, #4]
   3d3e8:	e58d0000 	str	r0, [sp]
   3d3ec:	e59dc004 	ldr	ip, [sp, #4]
   3d3f0:	e59d0000 	ldr	r0, [sp]
   3d3f4:	e1a0c28c 	lsl	ip, ip, #5
   3d3f8:	e28cce29 	add	ip, ip, #656	; 0x290
   3d3fc:	e080c00c 	add	ip, r0, ip
   3d400:	e59cc008 	ldr	ip, [ip, #8]
   3d404:	e24cc080 	sub	ip, ip, #128	; 0x80
   3d408:	e1a0c3ac 	lsr	ip, ip, #7
   3d40c:	e58dc00c 	str	ip, [sp, #12]
   3d410:	e59dc004 	ldr	ip, [sp, #4]
   3d414:	e59d0000 	ldr	r0, [sp]
   3d418:	e1a0c28c 	lsl	ip, ip, #5
   3d41c:	e28cce2a 	add	ip, ip, #672	; 0x2a0
   3d420:	e080c00c 	add	ip, r0, ip
   3d424:	e59cc008 	ldr	ip, [ip, #8]
   3d428:	e28cc080 	add	ip, ip, #128	; 0x80
   3d42c:	e1a0c3ac 	lsr	ip, ip, #7
   3d430:	e58dc010 	str	ip, [sp, #16]
   3d434:	e59dc00c 	ldr	ip, [sp, #12]
   3d438:	e3a00064 	mov	r0, #100	; 0x64
   3d43c:	e59d1010 	ldr	r1, [sp, #16]
   3d440:	e000009c 	mul	r0, ip, r0
   3d444:	eb001b21 	bl	440d0 <__aeabi_uidiv>
   3d448:	e59dc008 	ldr	ip, [sp, #8]
   3d44c:	e58c0000 	str	r0, [ip]
   3d450:	e59dc000 	ldr	ip, [sp]
   3d454:	e37c08ba 	cmn	ip, #12189696	; 0xba0000
   3d458:	1a00000a 	bne	3d488 <pwmGetSignal+0xb0>
   3d45c:	ed9d0a04 	vldr	s0, [sp, #16]
   3d460:	eeb80b40 	vcvt.f64.u32	d0, s0
   3d464:	e28f0e19 	add	r0, pc, #400	; 0x190
   3d468:	e28fcf61 	add	ip, pc, #388	; 0x184
   3d46c:	ed901b00 	vldr	d1, [r0]
   3d470:	ee210b00 	vmul.f64	d0, d1, d0
   3d474:	ed9c1b00 	vldr	d1, [ip]
   3d478:	ee800b01 	vdiv.f64	d0, d0, d1
   3d47c:	e59dc008 	ldr	ip, [sp, #8]
   3d480:	ed8c0b02 	vstr	d0, [ip, #8]
   3d484:	ea000009 	b	3d4b0 <pwmGetSignal+0xd8>
   3d488:	ed9d0a04 	vldr	s0, [sp, #16]
   3d48c:	eeb80b40 	vcvt.f64.u32	d0, s0
   3d490:	e28f0f59 	add	r0, pc, #356	; 0x164
   3d494:	e28fcf56 	add	ip, pc, #344	; 0x158
   3d498:	ed901b00 	vldr	d1, [r0]
   3d49c:	ee210b00 	vmul.f64	d0, d1, d0
   3d4a0:	ed9c1b00 	vldr	d1, [ip]
   3d4a4:	ee800b01 	vdiv.f64	d0, d0, d1
   3d4a8:	e59dc008 	ldr	ip, [sp, #8]
   3d4ac:	ed8c0b02 	vstr	d0, [ip, #8]
   3d4b0:	e28dd014 	add	sp, sp, #20
   3d4b4:	e8bd8000 	ldmfd	sp!, {pc}

0003d4b8 <pwmEnableNotification>:
   3d4b8:	e24dd010 	sub	sp, sp, #16
   3d4bc:	e58d2008 	str	r2, [sp, #8]
   3d4c0:	e58d1004 	str	r1, [sp, #4]
   3d4c4:	e58d0000 	str	r0, [sp]
   3d4c8:	e59dc004 	ldr	ip, [sp, #4]
   3d4cc:	e59d0008 	ldr	r0, [sp, #8]
   3d4d0:	e59d1000 	ldr	r1, [sp]
   3d4d4:	e1a0c08c 	lsl	ip, ip, #1
   3d4d8:	e1a0cc10 	lsl	ip, r0, ip
   3d4dc:	e581c028 	str	ip, [r1, #40]	; 0x28
   3d4e0:	e59dc004 	ldr	ip, [sp, #4]
   3d4e4:	e59d0008 	ldr	r0, [sp, #8]
   3d4e8:	e59d1000 	ldr	r1, [sp]
   3d4ec:	e1a0c08c 	lsl	ip, ip, #1
   3d4f0:	e1a0cc10 	lsl	ip, r0, ip
   3d4f4:	e581c014 	str	ip, [r1, #20]
   3d4f8:	e28dd010 	add	sp, sp, #16
   3d4fc:	e12fff1e 	bx	lr

0003d500 <pwmDisableNotification>:
   3d500:	e24dd010 	sub	sp, sp, #16
   3d504:	e58d2008 	str	r2, [sp, #8]
   3d508:	e58d1004 	str	r1, [sp, #4]
   3d50c:	e58d0000 	str	r0, [sp]
   3d510:	e59dc004 	ldr	ip, [sp, #4]
   3d514:	e59d0008 	ldr	r0, [sp, #8]
   3d518:	e59d1000 	ldr	r1, [sp]
   3d51c:	e1a0c08c 	lsl	ip, ip, #1
   3d520:	e1a0cc10 	lsl	ip, r0, ip
   3d524:	e581c018 	str	ip, [r1, #24]
   3d528:	e28dd010 	add	sp, sp, #16
   3d52c:	e12fff1e 	bx	lr

0003d530 <edgeResetCounter>:
   3d530:	e24dd008 	sub	sp, sp, #8
   3d534:	e58d1004 	str	r1, [sp, #4]
   3d538:	e58d0000 	str	r0, [sp]
   3d53c:	e59dc004 	ldr	ip, [sp, #4]
   3d540:	e59d0000 	ldr	r0, [sp]
   3d544:	e28cc011 	add	ip, ip, #17
   3d548:	e080c20c 	add	ip, r0, ip, lsl #4
   3d54c:	e3a00000 	mov	r0, #0
   3d550:	e58c0008 	str	r0, [ip, #8]
   3d554:	e28dd008 	add	sp, sp, #8
   3d558:	e12fff1e 	bx	lr

0003d55c <edgeGetCounter>:
   3d55c:	e24dd008 	sub	sp, sp, #8
   3d560:	e58d1004 	str	r1, [sp, #4]
   3d564:	e58d0000 	str	r0, [sp]
   3d568:	e59dc004 	ldr	ip, [sp, #4]
   3d56c:	e59d0000 	ldr	r0, [sp]
   3d570:	e28cc011 	add	ip, ip, #17
   3d574:	e080c20c 	add	ip, r0, ip, lsl #4
   3d578:	e59cc008 	ldr	ip, [ip, #8]
   3d57c:	e1a003ac 	lsr	r0, ip, #7
   3d580:	e28dd008 	add	sp, sp, #8
   3d584:	e12fff1e 	bx	lr

0003d588 <edgeEnableNotification>:
   3d588:	e24dd008 	sub	sp, sp, #8
   3d58c:	e58d1004 	str	r1, [sp, #4]
   3d590:	e58d0000 	str	r0, [sp]
   3d594:	e59dc004 	ldr	ip, [sp, #4]
   3d598:	e59d0000 	ldr	r0, [sp]
   3d59c:	e3a01802 	mov	r1, #131072	; 0x20000
   3d5a0:	e1a0cc11 	lsl	ip, r1, ip
   3d5a4:	e580c028 	str	ip, [r0, #40]	; 0x28
   3d5a8:	e59dc004 	ldr	ip, [sp, #4]
   3d5ac:	e59d0000 	ldr	r0, [sp]
   3d5b0:	e3a01802 	mov	r1, #131072	; 0x20000
   3d5b4:	e1a0cc11 	lsl	ip, r1, ip
   3d5b8:	e580c014 	str	ip, [r0, #20]
   3d5bc:	e28dd008 	add	sp, sp, #8
   3d5c0:	e12fff1e 	bx	lr

0003d5c4 <edgeDisableNotification>:
   3d5c4:	e24dd008 	sub	sp, sp, #8
   3d5c8:	e58d1004 	str	r1, [sp, #4]
   3d5cc:	e58d0000 	str	r0, [sp]
   3d5d0:	e59dc004 	ldr	ip, [sp, #4]
   3d5d4:	e59d0000 	ldr	r0, [sp]
   3d5d8:	e3a01802 	mov	r1, #131072	; 0x20000
   3d5dc:	e1a0cc11 	lsl	ip, r1, ip
   3d5e0:	e580c018 	str	ip, [r0, #24]
   3d5e4:	e28dd008 	add	sp, sp, #8
   3d5e8:	e12fff1e 	bx	lr
	...
   3d5f4:	408f4000 	.word	0x408f4000
   3d5f8:	00000000 	.word	0x00000000
   3d5fc:	409638e3 	.word	0x409638e3
   3d600:	60000000 	.word	0x60000000

0003d604 <capGetSignal>:
   3d604:	e92d4000 	stmfd	sp!, {lr}
   3d608:	e24dd014 	sub	sp, sp, #20
   3d60c:	e58d2008 	str	r2, [sp, #8]
   3d610:	e58d1004 	str	r1, [sp, #4]
   3d614:	e58d0000 	str	r0, [sp]
   3d618:	e59dc004 	ldr	ip, [sp, #4]
   3d61c:	e59d0000 	ldr	r0, [sp]
   3d620:	e1a0c28c 	lsl	ip, ip, #5
   3d624:	e28cce19 	add	ip, ip, #400	; 0x190
   3d628:	e080c00c 	add	ip, r0, ip
   3d62c:	e59cc008 	ldr	ip, [ip, #8]
   3d630:	e1a0c3ac 	lsr	ip, ip, #7
   3d634:	e58dc00c 	str	ip, [sp, #12]
   3d638:	e59dc004 	ldr	ip, [sp, #4]
   3d63c:	e59d0000 	ldr	r0, [sp]
   3d640:	e1a0c28c 	lsl	ip, ip, #5
   3d644:	e28cce1a 	add	ip, ip, #416	; 0x1a0
   3d648:	e080c00c 	add	ip, r0, ip
   3d64c:	e59cc008 	ldr	ip, [ip, #8]
   3d650:	e1a0c3ac 	lsr	ip, ip, #7
   3d654:	e58dc010 	str	ip, [sp, #16]
   3d658:	e59dc00c 	ldr	ip, [sp, #12]
   3d65c:	e3a00064 	mov	r0, #100	; 0x64
   3d660:	e59d1010 	ldr	r1, [sp, #16]
   3d664:	e000009c 	mul	r0, ip, r0
   3d668:	eb001a98 	bl	440d0 <__aeabi_uidiv>
   3d66c:	e59dc008 	ldr	ip, [sp, #8]
   3d670:	e58c0000 	str	r0, [ip]
   3d674:	e59dc000 	ldr	ip, [sp]
   3d678:	e37c08ba 	cmn	ip, #12189696	; 0xba0000
   3d67c:	1a00000a 	bne	3d6ac <capGetSignal+0xa8>
   3d680:	ed9d0a04 	vldr	s0, [sp, #16]
   3d684:	eeb80b40 	vcvt.f64.u32	d0, s0
   3d688:	e24f0094 	sub	r0, pc, #148	; 0x94
   3d68c:	e24fc0a0 	sub	ip, pc, #160	; 0xa0
   3d690:	ed901b00 	vldr	d1, [r0]
   3d694:	ee210b00 	vmul.f64	d0, d1, d0
   3d698:	ed9c1b00 	vldr	d1, [ip]
   3d69c:	ee800b01 	vdiv.f64	d0, d0, d1
   3d6a0:	e59dc008 	ldr	ip, [sp, #8]
   3d6a4:	ed8c0b02 	vstr	d0, [ip, #8]
   3d6a8:	ea000009 	b	3d6d4 <capGetSignal+0xd0>
   3d6ac:	ed9d0a04 	vldr	s0, [sp, #16]
   3d6b0:	eeb80b40 	vcvt.f64.u32	d0, s0
   3d6b4:	e24f00c0 	sub	r0, pc, #192	; 0xc0
   3d6b8:	e24fc0cc 	sub	ip, pc, #204	; 0xcc
   3d6bc:	ed901b00 	vldr	d1, [r0]
   3d6c0:	ee210b00 	vmul.f64	d0, d1, d0
   3d6c4:	ed9c1b00 	vldr	d1, [ip]
   3d6c8:	ee800b01 	vdiv.f64	d0, d0, d1
   3d6cc:	e59dc008 	ldr	ip, [sp, #8]
   3d6d0:	ed8c0b02 	vstr	d0, [ip, #8]
   3d6d4:	e28dd014 	add	sp, sp, #20
   3d6d8:	e8bd8000 	ldmfd	sp!, {pc}

0003d6dc <hetResetTimestamp>:
   3d6dc:	e24dd008 	sub	sp, sp, #8
   3d6e0:	e58d0000 	str	r0, [sp]
   3d6e4:	e59dc000 	ldr	ip, [sp]
   3d6e8:	e3a00000 	mov	r0, #0
   3d6ec:	e58c0008 	str	r0, [ip, #8]
   3d6f0:	e28dd008 	add	sp, sp, #8
   3d6f4:	e12fff1e 	bx	lr

0003d6f8 <hetGetTimestamp>:
   3d6f8:	e24dd008 	sub	sp, sp, #8
   3d6fc:	e58d0000 	str	r0, [sp]
   3d700:	e59dc000 	ldr	ip, [sp]
   3d704:	e59c0398 	ldr	r0, [ip, #920]	; 0x398
   3d708:	e28dd008 	add	sp, sp, #8
   3d70c:	e12fff1e 	bx	lr

0003d710 <het1GetConfigValue>:
   3d710:	e24dd008 	sub	sp, sp, #8
   3d714:	e5cd1004 	strb	r1, [sp, #4]
   3d718:	e58d0000 	str	r0, [sp]
   3d71c:	e5ddc004 	ldrb	ip, [sp, #4]
   3d720:	e35c0000 	cmp	ip, #0
   3d724:	1a000027 	bne	3d7c8 <het1GetConfigValue+0xb8>
   3d728:	e59dc000 	ldr	ip, [sp]
   3d72c:	e59f01ac 	ldr	r0, [pc, #428]	; 3d8e0 <het1GetConfigValue+0x1d0>
   3d730:	e58c0000 	str	r0, [ip]
   3d734:	e59dc000 	ldr	ip, [sp]
   3d738:	e3a00c07 	mov	r0, #1792	; 0x700
   3d73c:	e58c0004 	str	r0, [ip, #4]
   3d740:	e59dc000 	ldr	ip, [sp]
   3d744:	e3a00004 	mov	r0, #4
   3d748:	e58c0008 	str	r0, [ip, #8]
   3d74c:	e59dc000 	ldr	ip, [sp]
   3d750:	e3a00004 	mov	r0, #4
   3d754:	e58c000c 	str	r0, [ip, #12]
   3d758:	e59dc000 	ldr	ip, [sp]
   3d75c:	e3a00000 	mov	r0, #0
   3d760:	e58c0010 	str	r0, [ip, #16]
   3d764:	e59dc000 	ldr	ip, [sp]
   3d768:	e3a00000 	mov	r0, #0
   3d76c:	e58c0014 	str	r0, [ip, #20]
   3d770:	e59dc000 	ldr	ip, [sp]
   3d774:	e30f000f 	movw	r0, #61455	; 0xf00f
   3d778:	e58c0018 	str	r0, [ip, #24]
   3d77c:	e59dc000 	ldr	ip, [sp]
   3d780:	e3a00000 	mov	r0, #0
   3d784:	e58c001c 	str	r0, [ip, #28]
   3d788:	e59dc000 	ldr	ip, [sp]
   3d78c:	e3a00000 	mov	r0, #0
   3d790:	e58c0020 	str	r0, [ip, #32]
   3d794:	e59dc000 	ldr	ip, [sp]
   3d798:	e3a00000 	mov	r0, #0
   3d79c:	e58c0024 	str	r0, [ip, #36]	; 0x24
   3d7a0:	e59dc000 	ldr	ip, [sp]
   3d7a4:	e3a00000 	mov	r0, #0
   3d7a8:	e58c0028 	str	r0, [ip, #40]	; 0x28
   3d7ac:	e59dc000 	ldr	ip, [sp]
   3d7b0:	e3a00000 	mov	r0, #0
   3d7b4:	e58c002c 	str	r0, [ip, #44]	; 0x2c
   3d7b8:	e59dc000 	ldr	ip, [sp]
   3d7bc:	e3a00005 	mov	r0, #5
   3d7c0:	e58c0030 	str	r0, [ip, #48]	; 0x30
   3d7c4:	ea000033 	b	3d898 <het1GetConfigValue+0x188>
   3d7c8:	e59fc10c 	ldr	ip, [pc, #268]	; 3d8dc <het1GetConfigValue+0x1cc>
   3d7cc:	e59d0000 	ldr	r0, [sp]
   3d7d0:	e59cc000 	ldr	ip, [ip]
   3d7d4:	e580c000 	str	ip, [r0]
   3d7d8:	e59fc0e0 	ldr	ip, [pc, #224]	; 3d8c0 <het1GetConfigValue+0x1b0>
   3d7dc:	e59d0000 	ldr	r0, [sp]
   3d7e0:	e59cc000 	ldr	ip, [ip]
   3d7e4:	e580c004 	str	ip, [r0, #4]
   3d7e8:	e59fc0e8 	ldr	ip, [pc, #232]	; 3d8d8 <het1GetConfigValue+0x1c8>
   3d7ec:	e59d0000 	ldr	r0, [sp]
   3d7f0:	e59cc000 	ldr	ip, [ip]
   3d7f4:	e580c008 	str	ip, [r0, #8]
   3d7f8:	e59fc0d4 	ldr	ip, [pc, #212]	; 3d8d4 <het1GetConfigValue+0x1c4>
   3d7fc:	e59d0000 	ldr	r0, [sp]
   3d800:	e59cc000 	ldr	ip, [ip]
   3d804:	e580c00c 	str	ip, [r0, #12]
   3d808:	e59fc0c0 	ldr	ip, [pc, #192]	; 3d8d0 <het1GetConfigValue+0x1c0>
   3d80c:	e59d0000 	ldr	r0, [sp]
   3d810:	e59cc000 	ldr	ip, [ip]
   3d814:	e580c010 	str	ip, [r0, #16]
   3d818:	e59fc098 	ldr	ip, [pc, #152]	; 3d8b8 <het1GetConfigValue+0x1a8>
   3d81c:	e59d0000 	ldr	r0, [sp]
   3d820:	e59cc000 	ldr	ip, [ip]
   3d824:	e580c014 	str	ip, [r0, #20]
   3d828:	e59fc084 	ldr	ip, [pc, #132]	; 3d8b4 <het1GetConfigValue+0x1a4>
   3d82c:	e59d0000 	ldr	r0, [sp]
   3d830:	e59cc000 	ldr	ip, [ip]
   3d834:	e580c018 	str	ip, [r0, #24]
   3d838:	e59fc07c 	ldr	ip, [pc, #124]	; 3d8bc <het1GetConfigValue+0x1ac>
   3d83c:	e59d0000 	ldr	r0, [sp]
   3d840:	e59cc000 	ldr	ip, [ip]
   3d844:	e580c01c 	str	ip, [r0, #28]
   3d848:	e59fc054 	ldr	ip, [pc, #84]	; 3d8a4 <het1GetConfigValue+0x194>
   3d84c:	e59d0000 	ldr	r0, [sp]
   3d850:	e59cc000 	ldr	ip, [ip]
   3d854:	e580c020 	str	ip, [r0, #32]
   3d858:	e59fc048 	ldr	ip, [pc, #72]	; 3d8a8 <het1GetConfigValue+0x198>
   3d85c:	e59d0000 	ldr	r0, [sp]
   3d860:	e59cc000 	ldr	ip, [ip]
   3d864:	e580c024 	str	ip, [r0, #36]	; 0x24
   3d868:	e59fc03c 	ldr	ip, [pc, #60]	; 3d8ac <het1GetConfigValue+0x19c>
   3d86c:	e59d0000 	ldr	r0, [sp]
   3d870:	e59cc000 	ldr	ip, [ip]
   3d874:	e580c028 	str	ip, [r0, #40]	; 0x28
   3d878:	e59fc030 	ldr	ip, [pc, #48]	; 3d8b0 <het1GetConfigValue+0x1a0>
   3d87c:	e59d0000 	ldr	r0, [sp]
   3d880:	e59cc000 	ldr	ip, [ip]
   3d884:	e580c02c 	str	ip, [r0, #44]	; 0x2c
   3d888:	e59fc034 	ldr	ip, [pc, #52]	; 3d8c4 <het1GetConfigValue+0x1b4>
   3d88c:	e59d0000 	ldr	r0, [sp]
   3d890:	e59cc000 	ldr	ip, [ip]
   3d894:	e580c030 	str	ip, [r0, #48]	; 0x30
   3d898:	e28dd008 	add	sp, sp, #8
   3d89c:	e12fff1e 	bx	lr
   3d8a0:	fff7b854 	.word	0xfff7b854
   3d8a4:	fff7b84c 	.word	0xfff7b84c
   3d8a8:	fff7b860 	.word	0xfff7b860
   3d8ac:	fff7b864 	.word	0xfff7b864
   3d8b0:	fff7b868 	.word	0xfff7b868
   3d8b4:	fff7b834 	.word	0xfff7b834
   3d8b8:	fff7b82c 	.word	0xfff7b82c
   3d8bc:	fff7b838 	.word	0xfff7b838
   3d8c0:	fff7b804 	.word	0xfff7b804
   3d8c4:	fff7b874 	.word	0xfff7b874
   3d8c8:	ff460000 	.word	0xff460000
   3d8cc:	00034abc 	.word	0x00034abc
   3d8d0:	fff7b824 	.word	0xfff7b824
   3d8d4:	fff7b818 	.word	0xfff7b818
   3d8d8:	fff7b814 	.word	0xfff7b814
   3d8dc:	fff7b800 	.word	0xfff7b800
   3d8e0:	00030001 	.word	0x00030001
   3d8e4:	000353a0 	.word	0x000353a0

0003d8e8 <vimInit>:
   3d8e8:	e24dd008 	sub	sp, sp, #8
   3d8ec:	e59f0778 	ldr	r0, [pc, #1912]	; 3e06c <vimGetConfigValue+0x430>
   3d8f0:	e3a0c00a 	mov	ip, #10
   3d8f4:	e580c000 	str	ip, [r0]
   3d8f8:	e3a0c000 	mov	ip, #0
   3d8fc:	e58dc000 	str	ip, [sp]
   3d900:	e59dc000 	ldr	ip, [sp]
   3d904:	e35c0060 	cmp	ip, #96	; 0x60
   3d908:	2a00000b 	bcs	3d93c <vimInit+0x54>
   3d90c:	e59dc000 	ldr	ip, [sp]
   3d910:	e59f175c 	ldr	r1, [pc, #1884]	; 3e074 <vimGetConfigValue+0x438>
   3d914:	e59d0000 	ldr	r0, [sp]
   3d918:	e59f2750 	ldr	r2, [pc, #1872]	; 3e070 <vimGetConfigValue+0x434>
   3d91c:	e791c10c 	ldr	ip, [r1, ip, lsl #2]
   3d920:	e782c100 	str	ip, [r2, r0, lsl #2]
   3d924:	e59dc000 	ldr	ip, [sp]
   3d928:	e28cc001 	add	ip, ip, #1
   3d92c:	e58dc000 	str	ip, [sp]
   3d930:	e59dc000 	ldr	ip, [sp]
   3d934:	e35c0060 	cmp	ip, #96	; 0x60
   3d938:	3afffff3 	bcc	3d90c <vimInit+0x24>
   3d93c:	e59f0734 	ldr	r0, [pc, #1844]	; 3e078 <vimGetConfigValue+0x43c>
   3d940:	e59fc734 	ldr	ip, [pc, #1844]	; 3e07c <vimGetConfigValue+0x440>
   3d944:	e580c000 	str	ip, [r0]
   3d948:	e59f0730 	ldr	r0, [pc, #1840]	; 3e080 <vimGetConfigValue+0x444>
   3d94c:	e3a0c003 	mov	ip, #3
   3d950:	e580c000 	str	ip, [r0]
   3d954:	e59f0728 	ldr	r0, [pc, #1832]	; 3e084 <vimGetConfigValue+0x448>
   3d958:	e3a0c000 	mov	ip, #0
   3d95c:	e580c000 	str	ip, [r0]
   3d960:	e59f0720 	ldr	r0, [pc, #1824]	; 3e088 <vimGetConfigValue+0x44c>
   3d964:	e3a0c000 	mov	ip, #0
   3d968:	e580c000 	str	ip, [r0]
   3d96c:	e59f0718 	ldr	r0, [pc, #1816]	; 3e08c <vimGetConfigValue+0x450>
   3d970:	e3a0c000 	mov	ip, #0
   3d974:	e580c000 	str	ip, [r0]
   3d978:	e59f0710 	ldr	r0, [pc, #1808]	; 3e090 <vimGetConfigValue+0x454>
   3d97c:	e59fc710 	ldr	ip, [pc, #1808]	; 3e094 <vimGetConfigValue+0x458>
   3d980:	e580c000 	str	ip, [r0]
   3d984:	e59f070c 	ldr	r0, [pc, #1804]	; 3e098 <vimGetConfigValue+0x45c>
   3d988:	e3a0c000 	mov	ip, #0
   3d98c:	e580c000 	str	ip, [r0]
   3d990:	e59f0704 	ldr	r0, [pc, #1796]	; 3e09c <vimGetConfigValue+0x460>
   3d994:	e3a0cb01 	mov	ip, #1024	; 0x400
   3d998:	e580c000 	str	ip, [r0]
   3d99c:	e59f06fc 	ldr	r0, [pc, #1788]	; 3e0a0 <vimGetConfigValue+0x464>
   3d9a0:	e3a0c000 	mov	ip, #0
   3d9a4:	e580c000 	str	ip, [r0]
   3d9a8:	e59f06f4 	ldr	r0, [pc, #1780]	; 3e0a4 <vimGetConfigValue+0x468>
   3d9ac:	e3a0c000 	mov	ip, #0
   3d9b0:	e580c000 	str	ip, [r0]
   3d9b4:	e28dd008 	add	sp, sp, #8
   3d9b8:	e12fff1e 	bx	lr

0003d9bc <vimChannelMap>:
   3d9bc:	e24dd018 	sub	sp, sp, #24
   3d9c0:	e58d2008 	str	r2, [sp, #8]
   3d9c4:	e58d1004 	str	r1, [sp, #4]
   3d9c8:	e58d0000 	str	r0, [sp]
   3d9cc:	e59dc004 	ldr	ip, [sp, #4]
   3d9d0:	e1a0c12c 	lsr	ip, ip, #2
   3d9d4:	e58dc00c 	str	ip, [sp, #12]
   3d9d8:	e59dc00c 	ldr	ip, [sp, #12]
   3d9dc:	e59d0004 	ldr	r0, [sp, #4]
   3d9e0:	e040c10c 	sub	ip, r0, ip, lsl #2
   3d9e4:	e58dc010 	str	ip, [sp, #16]
   3d9e8:	e59dc010 	ldr	ip, [sp, #16]
   3d9ec:	e26cc003 	rsb	ip, ip, #3
   3d9f0:	e58dc010 	str	ip, [sp, #16]
   3d9f4:	e59dc010 	ldr	ip, [sp, #16]
   3d9f8:	e1a0c18c 	lsl	ip, ip, #3
   3d9fc:	e58dc010 	str	ip, [sp, #16]
   3da00:	e59dc00c 	ldr	ip, [sp, #12]
   3da04:	e59f269c 	ldr	r2, [pc, #1692]	; 3e0a8 <vimGetConfigValue+0x46c>
   3da08:	e1a0c10c 	lsl	ip, ip, #2
   3da0c:	e59d0010 	ldr	r0, [sp, #16]
   3da10:	e3a030ff 	mov	r3, #255	; 0xff
   3da14:	e79c1002 	ldr	r1, [ip, r2]
   3da18:	e1c10013 	bic	r0, r1, r3, lsl r0
   3da1c:	e78c0002 	str	r0, [ip, r2]
   3da20:	e59dc00c 	ldr	ip, [sp, #12]
   3da24:	e59f367c 	ldr	r3, [pc, #1660]	; 3e0a8 <vimGetConfigValue+0x46c>
   3da28:	e1a0c10c 	lsl	ip, ip, #2
   3da2c:	e59d1000 	ldr	r1, [sp]
   3da30:	e59d0010 	ldr	r0, [sp, #16]
   3da34:	e79c2003 	ldr	r2, [ip, r3]
   3da38:	e1820011 	orr	r0, r2, r1, lsl r0
   3da3c:	e78c0003 	str	r0, [ip, r3]
   3da40:	e59dc004 	ldr	ip, [sp, #4]
   3da44:	e1a0c10c 	lsl	ip, ip, #2
   3da48:	e28cc004 	add	ip, ip, #4
   3da4c:	e24c0a7e 	sub	r0, ip, #516096	; 0x7e000
   3da50:	e59dc008 	ldr	ip, [sp, #8]
   3da54:	e580c000 	str	ip, [r0]
   3da58:	e28dd018 	add	sp, sp, #24
   3da5c:	e12fff1e 	bx	lr

0003da60 <vimEnableInterrupt>:
   3da60:	e24dd008 	sub	sp, sp, #8
   3da64:	e5cd1004 	strb	r1, [sp, #4]
   3da68:	e58d0000 	str	r0, [sp]
   3da6c:	e59dc000 	ldr	ip, [sp]
   3da70:	e35c0040 	cmp	ip, #64	; 0x40
   3da74:	3a000018 	bcc	3dadc <vimEnableInterrupt+0x7c>
   3da78:	e5ddc004 	ldrb	ip, [sp, #4]
   3da7c:	e35c0000 	cmp	ip, #0
   3da80:	1a000007 	bne	3daa4 <vimEnableInterrupt+0x44>
   3da84:	e59f15fc 	ldr	r1, [pc, #1532]	; 3e088 <vimGetConfigValue+0x44c>
   3da88:	e59dc000 	ldr	ip, [sp]
   3da8c:	e5910000 	ldr	r0, [r1]
   3da90:	e3a02001 	mov	r2, #1
   3da94:	e24cc040 	sub	ip, ip, #64	; 0x40
   3da98:	e1c0cc12 	bic	ip, r0, r2, lsl ip
   3da9c:	e581c000 	str	ip, [r1]
   3daa0:	ea000006 	b	3dac0 <vimEnableInterrupt+0x60>
   3daa4:	e59f15dc 	ldr	r1, [pc, #1500]	; 3e088 <vimGetConfigValue+0x44c>
   3daa8:	e59dc000 	ldr	ip, [sp]
   3daac:	e5910000 	ldr	r0, [r1]
   3dab0:	e3a02001 	mov	r2, #1
   3dab4:	e24cc040 	sub	ip, ip, #64	; 0x40
   3dab8:	e180cc12 	orr	ip, r0, r2, lsl ip
   3dabc:	e581c000 	str	ip, [r1]
   3dac0:	e59dc000 	ldr	ip, [sp]
   3dac4:	e59f15d0 	ldr	r1, [pc, #1488]	; 3e09c <vimGetConfigValue+0x460>
   3dac8:	e3a00001 	mov	r0, #1
   3dacc:	e24cc040 	sub	ip, ip, #64	; 0x40
   3dad0:	e1a0cc10 	lsl	ip, r0, ip
   3dad4:	e581c000 	str	ip, [r1]
   3dad8:	ea000034 	b	3dbb0 <vimEnableInterrupt+0x150>
   3dadc:	e59dc000 	ldr	ip, [sp]
   3dae0:	e35c0020 	cmp	ip, #32
   3dae4:	3a000018 	bcc	3db4c <vimEnableInterrupt+0xec>
   3dae8:	e5ddc004 	ldrb	ip, [sp, #4]
   3daec:	e35c0000 	cmp	ip, #0
   3daf0:	1a000007 	bne	3db14 <vimEnableInterrupt+0xb4>
   3daf4:	e59f1588 	ldr	r1, [pc, #1416]	; 3e084 <vimGetConfigValue+0x448>
   3daf8:	e59dc000 	ldr	ip, [sp]
   3dafc:	e5910000 	ldr	r0, [r1]
   3db00:	e3a02001 	mov	r2, #1
   3db04:	e24cc020 	sub	ip, ip, #32
   3db08:	e1c0cc12 	bic	ip, r0, r2, lsl ip
   3db0c:	e581c000 	str	ip, [r1]
   3db10:	ea000006 	b	3db30 <vimEnableInterrupt+0xd0>
   3db14:	e59f1568 	ldr	r1, [pc, #1384]	; 3e084 <vimGetConfigValue+0x448>
   3db18:	e59dc000 	ldr	ip, [sp]
   3db1c:	e5910000 	ldr	r0, [r1]
   3db20:	e3a02001 	mov	r2, #1
   3db24:	e24cc020 	sub	ip, ip, #32
   3db28:	e180cc12 	orr	ip, r0, r2, lsl ip
   3db2c:	e581c000 	str	ip, [r1]
   3db30:	e59dc000 	ldr	ip, [sp]
   3db34:	e59f155c 	ldr	r1, [pc, #1372]	; 3e098 <vimGetConfigValue+0x45c>
   3db38:	e3a00001 	mov	r0, #1
   3db3c:	e24cc020 	sub	ip, ip, #32
   3db40:	e1a0cc10 	lsl	ip, r0, ip
   3db44:	e581c000 	str	ip, [r1]
   3db48:	ea000018 	b	3dbb0 <vimEnableInterrupt+0x150>
   3db4c:	e59dc000 	ldr	ip, [sp]
   3db50:	e35c0002 	cmp	ip, #2
   3db54:	3a000015 	bcc	3dbb0 <vimEnableInterrupt+0x150>
   3db58:	e5ddc004 	ldrb	ip, [sp, #4]
   3db5c:	e35c0000 	cmp	ip, #0
   3db60:	1a000006 	bne	3db80 <vimEnableInterrupt+0x120>
   3db64:	e59f1514 	ldr	r1, [pc, #1300]	; 3e080 <vimGetConfigValue+0x444>
   3db68:	e59dc000 	ldr	ip, [sp]
   3db6c:	e3a02001 	mov	r2, #1
   3db70:	e5910000 	ldr	r0, [r1]
   3db74:	e1c0cc12 	bic	ip, r0, r2, lsl ip
   3db78:	e581c000 	str	ip, [r1]
   3db7c:	ea000005 	b	3db98 <vimEnableInterrupt+0x138>
   3db80:	e59f14f8 	ldr	r1, [pc, #1272]	; 3e080 <vimGetConfigValue+0x444>
   3db84:	e59dc000 	ldr	ip, [sp]
   3db88:	e3a02001 	mov	r2, #1
   3db8c:	e5910000 	ldr	r0, [r1]
   3db90:	e180cc12 	orr	ip, r0, r2, lsl ip
   3db94:	e581c000 	str	ip, [r1]
   3db98:	e59dc000 	ldr	ip, [sp]
   3db9c:	e59f14ec 	ldr	r1, [pc, #1260]	; 3e090 <vimGetConfigValue+0x454>
   3dba0:	e3a00001 	mov	r0, #1
   3dba4:	e1a0cc10 	lsl	ip, r0, ip
   3dba8:	e581c000 	str	ip, [r1]
   3dbac:	eaffffff 	b	3dbb0 <vimEnableInterrupt+0x150>
   3dbb0:	e28dd008 	add	sp, sp, #8
   3dbb4:	e12fff1e 	bx	lr

0003dbb8 <vimDisableInterrupt>:
   3dbb8:	e24dd008 	sub	sp, sp, #8
   3dbbc:	e58d0000 	str	r0, [sp]
   3dbc0:	e59dc000 	ldr	ip, [sp]
   3dbc4:	e35c0040 	cmp	ip, #64	; 0x40
   3dbc8:	3a000006 	bcc	3dbe8 <vimDisableInterrupt+0x30>
   3dbcc:	e59dc000 	ldr	ip, [sp]
   3dbd0:	e59f14d4 	ldr	r1, [pc, #1236]	; 3e0ac <vimGetConfigValue+0x470>
   3dbd4:	e3a00001 	mov	r0, #1
   3dbd8:	e24cc040 	sub	ip, ip, #64	; 0x40
   3dbdc:	e1a0cc10 	lsl	ip, r0, ip
   3dbe0:	e581c000 	str	ip, [r1]
   3dbe4:	ea000012 	b	3dc34 <vimDisableInterrupt+0x7c>
   3dbe8:	e59dc000 	ldr	ip, [sp]
   3dbec:	e35c0020 	cmp	ip, #32
   3dbf0:	3a000006 	bcc	3dc10 <vimDisableInterrupt+0x58>
   3dbf4:	e59dc000 	ldr	ip, [sp]
   3dbf8:	e59f14b0 	ldr	r1, [pc, #1200]	; 3e0b0 <vimGetConfigValue+0x474>
   3dbfc:	e3a00001 	mov	r0, #1
   3dc00:	e24cc020 	sub	ip, ip, #32
   3dc04:	e1a0cc10 	lsl	ip, r0, ip
   3dc08:	e581c000 	str	ip, [r1]
   3dc0c:	ea000008 	b	3dc34 <vimDisableInterrupt+0x7c>
   3dc10:	e59dc000 	ldr	ip, [sp]
   3dc14:	e35c0002 	cmp	ip, #2
   3dc18:	3a000005 	bcc	3dc34 <vimDisableInterrupt+0x7c>
   3dc1c:	e59dc000 	ldr	ip, [sp]
   3dc20:	e59f148c 	ldr	r1, [pc, #1164]	; 3e0b4 <vimGetConfigValue+0x478>
   3dc24:	e3a00001 	mov	r0, #1
   3dc28:	e1a0cc10 	lsl	ip, r0, ip
   3dc2c:	e581c000 	str	ip, [r1]
   3dc30:	eaffffff 	b	3dc34 <vimDisableInterrupt+0x7c>
   3dc34:	e28dd008 	add	sp, sp, #8
   3dc38:	e12fff1e 	bx	lr

0003dc3c <vimGetConfigValue>:
   3dc3c:	e24dd008 	sub	sp, sp, #8
   3dc40:	e5cd1004 	strb	r1, [sp, #4]
   3dc44:	e58d0000 	str	r0, [sp]
   3dc48:	e5ddc004 	ldrb	ip, [sp, #4]
   3dc4c:	e35c0000 	cmp	ip, #0
   3dc50:	1a00006f 	bne	3de14 <vimGetConfigValue+0x1d8>
   3dc54:	e59dc000 	ldr	ip, [sp]
   3dc58:	e3a00003 	mov	r0, #3
   3dc5c:	e58c0000 	str	r0, [ip]
   3dc60:	e59dc000 	ldr	ip, [sp]
   3dc64:	e3a00000 	mov	r0, #0
   3dc68:	e58c0004 	str	r0, [ip, #4]
   3dc6c:	e59dc000 	ldr	ip, [sp]
   3dc70:	e3a00000 	mov	r0, #0
   3dc74:	e58c0008 	str	r0, [ip, #8]
   3dc78:	e59dc000 	ldr	ip, [sp]
   3dc7c:	e3a00000 	mov	r0, #0
   3dc80:	e58c000c 	str	r0, [ip, #12]
   3dc84:	e59dc000 	ldr	ip, [sp]
   3dc88:	e59f0404 	ldr	r0, [pc, #1028]	; 3e094 <vimGetConfigValue+0x458>
   3dc8c:	e58c0010 	str	r0, [ip, #16]
   3dc90:	e59dc000 	ldr	ip, [sp]
   3dc94:	e3a00000 	mov	r0, #0
   3dc98:	e58c0014 	str	r0, [ip, #20]
   3dc9c:	e59dc000 	ldr	ip, [sp]
   3dca0:	e3a00b01 	mov	r0, #1024	; 0x400
   3dca4:	e58c0018 	str	r0, [ip, #24]
   3dca8:	e59dc000 	ldr	ip, [sp]
   3dcac:	e3a00000 	mov	r0, #0
   3dcb0:	e58c001c 	str	r0, [ip, #28]
   3dcb4:	e59dc000 	ldr	ip, [sp]
   3dcb8:	e3e00000 	mvn	r0, #0
   3dcbc:	e58c0020 	str	r0, [ip, #32]
   3dcc0:	e59dc000 	ldr	ip, [sp]
   3dcc4:	e3e00000 	mvn	r0, #0
   3dcc8:	e58c0024 	str	r0, [ip, #36]	; 0x24
   3dccc:	e59dc000 	ldr	ip, [sp]
   3dcd0:	e3e00000 	mvn	r0, #0
   3dcd4:	e58c0028 	str	r0, [ip, #40]	; 0x28
   3dcd8:	e59dc000 	ldr	ip, [sp]
   3dcdc:	e3a00000 	mov	r0, #0
   3dce0:	e58c002c 	str	r0, [ip, #44]	; 0x2c
   3dce4:	e59dc000 	ldr	ip, [sp]
   3dce8:	e3a00000 	mov	r0, #0
   3dcec:	e58c0030 	str	r0, [ip, #48]	; 0x30
   3dcf0:	e59dc000 	ldr	ip, [sp]
   3dcf4:	e59f03bc 	ldr	r0, [pc, #956]	; 3e0b8 <vimGetConfigValue+0x47c>
   3dcf8:	e58c0034 	str	r0, [ip, #52]	; 0x34
   3dcfc:	e59dc000 	ldr	ip, [sp]
   3dd00:	e59f03b4 	ldr	r0, [pc, #948]	; 3e0bc <vimGetConfigValue+0x480>
   3dd04:	e58c0038 	str	r0, [ip, #56]	; 0x38
   3dd08:	e59dc000 	ldr	ip, [sp]
   3dd0c:	e59f03ac 	ldr	r0, [pc, #940]	; 3e0c0 <vimGetConfigValue+0x484>
   3dd10:	e58c003c 	str	r0, [ip, #60]	; 0x3c
   3dd14:	e59dc000 	ldr	ip, [sp]
   3dd18:	e59f03a4 	ldr	r0, [pc, #932]	; 3e0c4 <vimGetConfigValue+0x488>
   3dd1c:	e58c0040 	str	r0, [ip, #64]	; 0x40
   3dd20:	e59dc000 	ldr	ip, [sp]
   3dd24:	e59f039c 	ldr	r0, [pc, #924]	; 3e0c8 <vimGetConfigValue+0x48c>
   3dd28:	e58c0044 	str	r0, [ip, #68]	; 0x44
   3dd2c:	e59dc000 	ldr	ip, [sp]
   3dd30:	e59f0394 	ldr	r0, [pc, #916]	; 3e0cc <vimGetConfigValue+0x490>
   3dd34:	e58c0048 	str	r0, [ip, #72]	; 0x48
   3dd38:	e59dc000 	ldr	ip, [sp]
   3dd3c:	e59f038c 	ldr	r0, [pc, #908]	; 3e0d0 <vimGetConfigValue+0x494>
   3dd40:	e58c004c 	str	r0, [ip, #76]	; 0x4c
   3dd44:	e59dc000 	ldr	ip, [sp]
   3dd48:	e59f0384 	ldr	r0, [pc, #900]	; 3e0d4 <vimGetConfigValue+0x498>
   3dd4c:	e58c0050 	str	r0, [ip, #80]	; 0x50
   3dd50:	e59dc000 	ldr	ip, [sp]
   3dd54:	e59f037c 	ldr	r0, [pc, #892]	; 3e0d8 <vimGetConfigValue+0x49c>
   3dd58:	e58c0054 	str	r0, [ip, #84]	; 0x54
   3dd5c:	e59dc000 	ldr	ip, [sp]
   3dd60:	e59f0374 	ldr	r0, [pc, #884]	; 3e0dc <vimGetConfigValue+0x4a0>
   3dd64:	e58c0058 	str	r0, [ip, #88]	; 0x58
   3dd68:	e59dc000 	ldr	ip, [sp]
   3dd6c:	e59f036c 	ldr	r0, [pc, #876]	; 3e0e0 <vimGetConfigValue+0x4a4>
   3dd70:	e58c005c 	str	r0, [ip, #92]	; 0x5c
   3dd74:	e59dc000 	ldr	ip, [sp]
   3dd78:	e59f0364 	ldr	r0, [pc, #868]	; 3e0e4 <vimGetConfigValue+0x4a8>
   3dd7c:	e58c0060 	str	r0, [ip, #96]	; 0x60
   3dd80:	e59dc000 	ldr	ip, [sp]
   3dd84:	e59f035c 	ldr	r0, [pc, #860]	; 3e0e8 <vimGetConfigValue+0x4ac>
   3dd88:	e58c0064 	str	r0, [ip, #100]	; 0x64
   3dd8c:	e59dc000 	ldr	ip, [sp]
   3dd90:	e59f0354 	ldr	r0, [pc, #852]	; 3e0ec <vimGetConfigValue+0x4b0>
   3dd94:	e58c0068 	str	r0, [ip, #104]	; 0x68
   3dd98:	e59dc000 	ldr	ip, [sp]
   3dd9c:	e59f034c 	ldr	r0, [pc, #844]	; 3e0f0 <vimGetConfigValue+0x4b4>
   3dda0:	e58c006c 	str	r0, [ip, #108]	; 0x6c
   3dda4:	e59dc000 	ldr	ip, [sp]
   3dda8:	e59f0344 	ldr	r0, [pc, #836]	; 3e0f4 <vimGetConfigValue+0x4b8>
   3ddac:	e58c0070 	str	r0, [ip, #112]	; 0x70
   3ddb0:	e59dc000 	ldr	ip, [sp]
   3ddb4:	e59f033c 	ldr	r0, [pc, #828]	; 3e0f8 <vimGetConfigValue+0x4bc>
   3ddb8:	e58c0074 	str	r0, [ip, #116]	; 0x74
   3ddbc:	e59dc000 	ldr	ip, [sp]
   3ddc0:	e59f0334 	ldr	r0, [pc, #820]	; 3e0fc <vimGetConfigValue+0x4c0>
   3ddc4:	e58c0078 	str	r0, [ip, #120]	; 0x78
   3ddc8:	e59dc000 	ldr	ip, [sp]
   3ddcc:	e59f032c 	ldr	r0, [pc, #812]	; 3e100 <vimGetConfigValue+0x4c4>
   3ddd0:	e58c007c 	str	r0, [ip, #124]	; 0x7c
   3ddd4:	e59dc000 	ldr	ip, [sp]
   3ddd8:	e59f0324 	ldr	r0, [pc, #804]	; 3e104 <vimGetConfigValue+0x4c8>
   3dddc:	e58c0080 	str	r0, [ip, #128]	; 0x80
   3dde0:	e59dc000 	ldr	ip, [sp]
   3dde4:	e59f031c 	ldr	r0, [pc, #796]	; 3e108 <vimGetConfigValue+0x4cc>
   3dde8:	e58c0084 	str	r0, [ip, #132]	; 0x84
   3ddec:	e59dc000 	ldr	ip, [sp]
   3ddf0:	e59f0314 	ldr	r0, [pc, #788]	; 3e10c <vimGetConfigValue+0x4d0>
   3ddf4:	e58c0088 	str	r0, [ip, #136]	; 0x88
   3ddf8:	e59dc000 	ldr	ip, [sp]
   3ddfc:	e59f030c 	ldr	r0, [pc, #780]	; 3e110 <vimGetConfigValue+0x4d4>
   3de00:	e58c008c 	str	r0, [ip, #140]	; 0x8c
   3de04:	e59dc000 	ldr	ip, [sp]
   3de08:	e59f0304 	ldr	r0, [pc, #772]	; 3e114 <vimGetConfigValue+0x4d8>
   3de0c:	e58c0090 	str	r0, [ip, #144]	; 0x90
   3de10:	ea000093 	b	3e064 <vimGetConfigValue+0x428>
   3de14:	e59fc264 	ldr	ip, [pc, #612]	; 3e080 <vimGetConfigValue+0x444>
   3de18:	e59d0000 	ldr	r0, [sp]
   3de1c:	e59cc000 	ldr	ip, [ip]
   3de20:	e580c000 	str	ip, [r0]
   3de24:	e59fc258 	ldr	ip, [pc, #600]	; 3e084 <vimGetConfigValue+0x448>
   3de28:	e59d0000 	ldr	r0, [sp]
   3de2c:	e59cc000 	ldr	ip, [ip]
   3de30:	e580c004 	str	ip, [r0, #4]
   3de34:	e59fc24c 	ldr	ip, [pc, #588]	; 3e088 <vimGetConfigValue+0x44c>
   3de38:	e59d0000 	ldr	r0, [sp]
   3de3c:	e59cc000 	ldr	ip, [ip]
   3de40:	e580c008 	str	ip, [r0, #8]
   3de44:	e59fc240 	ldr	ip, [pc, #576]	; 3e08c <vimGetConfigValue+0x450>
   3de48:	e59d0000 	ldr	r0, [sp]
   3de4c:	e59cc000 	ldr	ip, [ip]
   3de50:	e580c00c 	str	ip, [r0, #12]
   3de54:	e59fc234 	ldr	ip, [pc, #564]	; 3e090 <vimGetConfigValue+0x454>
   3de58:	e59d0000 	ldr	r0, [sp]
   3de5c:	e59cc000 	ldr	ip, [ip]
   3de60:	e580c010 	str	ip, [r0, #16]
   3de64:	e59fc22c 	ldr	ip, [pc, #556]	; 3e098 <vimGetConfigValue+0x45c>
   3de68:	e59d0000 	ldr	r0, [sp]
   3de6c:	e59cc000 	ldr	ip, [ip]
   3de70:	e580c014 	str	ip, [r0, #20]
   3de74:	e59fc220 	ldr	ip, [pc, #544]	; 3e09c <vimGetConfigValue+0x460>
   3de78:	e59d0000 	ldr	r0, [sp]
   3de7c:	e59cc000 	ldr	ip, [ip]
   3de80:	e580c018 	str	ip, [r0, #24]
   3de84:	e59fc214 	ldr	ip, [pc, #532]	; 3e0a0 <vimGetConfigValue+0x464>
   3de88:	e59d0000 	ldr	r0, [sp]
   3de8c:	e59cc000 	ldr	ip, [ip]
   3de90:	e580c01c 	str	ip, [r0, #28]
   3de94:	e59fc27c 	ldr	ip, [pc, #636]	; 3e118 <vimGetConfigValue+0x4dc>
   3de98:	e59d0000 	ldr	r0, [sp]
   3de9c:	e59cc000 	ldr	ip, [ip]
   3dea0:	e580c020 	str	ip, [r0, #32]
   3dea4:	e59fc270 	ldr	ip, [pc, #624]	; 3e11c <vimGetConfigValue+0x4e0>
   3dea8:	e59d0000 	ldr	r0, [sp]
   3deac:	e59cc000 	ldr	ip, [ip]
   3deb0:	e580c024 	str	ip, [r0, #36]	; 0x24
   3deb4:	e59fc264 	ldr	ip, [pc, #612]	; 3e120 <vimGetConfigValue+0x4e4>
   3deb8:	e59d0000 	ldr	r0, [sp]
   3debc:	e59cc000 	ldr	ip, [ip]
   3dec0:	e580c028 	str	ip, [r0, #40]	; 0x28
   3dec4:	e59fc258 	ldr	ip, [pc, #600]	; 3e124 <vimGetConfigValue+0x4e8>
   3dec8:	e59d0000 	ldr	r0, [sp]
   3decc:	e59cc000 	ldr	ip, [ip]
   3ded0:	e580c02c 	str	ip, [r0, #44]	; 0x2c
   3ded4:	e59fc1c8 	ldr	ip, [pc, #456]	; 3e0a4 <vimGetConfigValue+0x468>
   3ded8:	e59d0000 	ldr	r0, [sp]
   3dedc:	e59cc000 	ldr	ip, [ip]
   3dee0:	e580c030 	str	ip, [r0, #48]	; 0x30
   3dee4:	e59fc1bc 	ldr	ip, [pc, #444]	; 3e0a8 <vimGetConfigValue+0x46c>
   3dee8:	e59d0000 	ldr	r0, [sp]
   3deec:	e59cc000 	ldr	ip, [ip]
   3def0:	e580c034 	str	ip, [r0, #52]	; 0x34
   3def4:	e59fc22c 	ldr	ip, [pc, #556]	; 3e128 <vimGetConfigValue+0x4ec>
   3def8:	e59d0000 	ldr	r0, [sp]
   3defc:	e59cc000 	ldr	ip, [ip]
   3df00:	e580c038 	str	ip, [r0, #56]	; 0x38
   3df04:	e59fc220 	ldr	ip, [pc, #544]	; 3e12c <vimGetConfigValue+0x4f0>
   3df08:	e59d0000 	ldr	r0, [sp]
   3df0c:	e59cc000 	ldr	ip, [ip]
   3df10:	e580c03c 	str	ip, [r0, #60]	; 0x3c
   3df14:	e59fc214 	ldr	ip, [pc, #532]	; 3e130 <vimGetConfigValue+0x4f4>
   3df18:	e59d0000 	ldr	r0, [sp]
   3df1c:	e59cc000 	ldr	ip, [ip]
   3df20:	e580c040 	str	ip, [r0, #64]	; 0x40
   3df24:	e59fc208 	ldr	ip, [pc, #520]	; 3e134 <vimGetConfigValue+0x4f8>
   3df28:	e59d0000 	ldr	r0, [sp]
   3df2c:	e59cc000 	ldr	ip, [ip]
   3df30:	e580c044 	str	ip, [r0, #68]	; 0x44
   3df34:	e59fc1fc 	ldr	ip, [pc, #508]	; 3e138 <vimGetConfigValue+0x4fc>
   3df38:	e59d0000 	ldr	r0, [sp]
   3df3c:	e59cc000 	ldr	ip, [ip]
   3df40:	e580c048 	str	ip, [r0, #72]	; 0x48
   3df44:	e59fc1f0 	ldr	ip, [pc, #496]	; 3e13c <vimGetConfigValue+0x500>
   3df48:	e59d0000 	ldr	r0, [sp]
   3df4c:	e59cc000 	ldr	ip, [ip]
   3df50:	e580c04c 	str	ip, [r0, #76]	; 0x4c
   3df54:	e59fc1e4 	ldr	ip, [pc, #484]	; 3e140 <vimGetConfigValue+0x504>
   3df58:	e59d0000 	ldr	r0, [sp]
   3df5c:	e59cc000 	ldr	ip, [ip]
   3df60:	e580c050 	str	ip, [r0, #80]	; 0x50
   3df64:	e59fc1d8 	ldr	ip, [pc, #472]	; 3e144 <vimGetConfigValue+0x508>
   3df68:	e59d0000 	ldr	r0, [sp]
   3df6c:	e59cc000 	ldr	ip, [ip]
   3df70:	e580c054 	str	ip, [r0, #84]	; 0x54
   3df74:	e59fc1cc 	ldr	ip, [pc, #460]	; 3e148 <vimGetConfigValue+0x50c>
   3df78:	e59d0000 	ldr	r0, [sp]
   3df7c:	e59cc000 	ldr	ip, [ip]
   3df80:	e580c058 	str	ip, [r0, #88]	; 0x58
   3df84:	e59fc1c0 	ldr	ip, [pc, #448]	; 3e14c <vimGetConfigValue+0x510>
   3df88:	e59d0000 	ldr	r0, [sp]
   3df8c:	e59cc000 	ldr	ip, [ip]
   3df90:	e580c05c 	str	ip, [r0, #92]	; 0x5c
   3df94:	e59fc1b4 	ldr	ip, [pc, #436]	; 3e150 <vimGetConfigValue+0x514>
   3df98:	e59d0000 	ldr	r0, [sp]
   3df9c:	e59cc000 	ldr	ip, [ip]
   3dfa0:	e580c060 	str	ip, [r0, #96]	; 0x60
   3dfa4:	e59fc1a8 	ldr	ip, [pc, #424]	; 3e154 <vimGetConfigValue+0x518>
   3dfa8:	e59d0000 	ldr	r0, [sp]
   3dfac:	e59cc000 	ldr	ip, [ip]
   3dfb0:	e580c064 	str	ip, [r0, #100]	; 0x64
   3dfb4:	e59fc19c 	ldr	ip, [pc, #412]	; 3e158 <vimGetConfigValue+0x51c>
   3dfb8:	e59d0000 	ldr	r0, [sp]
   3dfbc:	e59cc000 	ldr	ip, [ip]
   3dfc0:	e580c068 	str	ip, [r0, #104]	; 0x68
   3dfc4:	e59fc190 	ldr	ip, [pc, #400]	; 3e15c <vimGetConfigValue+0x520>
   3dfc8:	e59d0000 	ldr	r0, [sp]
   3dfcc:	e59cc000 	ldr	ip, [ip]
   3dfd0:	e580c06c 	str	ip, [r0, #108]	; 0x6c
   3dfd4:	e59fc184 	ldr	ip, [pc, #388]	; 3e160 <vimGetConfigValue+0x524>
   3dfd8:	e59d0000 	ldr	r0, [sp]
   3dfdc:	e59cc000 	ldr	ip, [ip]
   3dfe0:	e580c070 	str	ip, [r0, #112]	; 0x70
   3dfe4:	e59fc178 	ldr	ip, [pc, #376]	; 3e164 <vimGetConfigValue+0x528>
   3dfe8:	e59d0000 	ldr	r0, [sp]
   3dfec:	e59cc000 	ldr	ip, [ip]
   3dff0:	e580c074 	str	ip, [r0, #116]	; 0x74
   3dff4:	e59fc16c 	ldr	ip, [pc, #364]	; 3e168 <vimGetConfigValue+0x52c>
   3dff8:	e59d0000 	ldr	r0, [sp]
   3dffc:	e59cc000 	ldr	ip, [ip]
   3e000:	e580c078 	str	ip, [r0, #120]	; 0x78
   3e004:	e59fc160 	ldr	ip, [pc, #352]	; 3e16c <vimGetConfigValue+0x530>
   3e008:	e59d0000 	ldr	r0, [sp]
   3e00c:	e59cc000 	ldr	ip, [ip]
   3e010:	e580c07c 	str	ip, [r0, #124]	; 0x7c
   3e014:	e59fc154 	ldr	ip, [pc, #340]	; 3e170 <vimGetConfigValue+0x534>
   3e018:	e59d0000 	ldr	r0, [sp]
   3e01c:	e59cc000 	ldr	ip, [ip]
   3e020:	e580c080 	str	ip, [r0, #128]	; 0x80
   3e024:	e59fc148 	ldr	ip, [pc, #328]	; 3e174 <vimGetConfigValue+0x538>
   3e028:	e59d0000 	ldr	r0, [sp]
   3e02c:	e59cc000 	ldr	ip, [ip]
   3e030:	e580c084 	str	ip, [r0, #132]	; 0x84
   3e034:	e59fc13c 	ldr	ip, [pc, #316]	; 3e178 <vimGetConfigValue+0x53c>
   3e038:	e59d0000 	ldr	r0, [sp]
   3e03c:	e59cc000 	ldr	ip, [ip]
   3e040:	e580c088 	str	ip, [r0, #136]	; 0x88
   3e044:	e59fc130 	ldr	ip, [pc, #304]	; 3e17c <vimGetConfigValue+0x540>
   3e048:	e59d0000 	ldr	r0, [sp]
   3e04c:	e59cc000 	ldr	ip, [ip]
   3e050:	e580c08c 	str	ip, [r0, #140]	; 0x8c
   3e054:	e59fc124 	ldr	ip, [pc, #292]	; 3e180 <vimGetConfigValue+0x544>
   3e058:	e59d0000 	ldr	r0, [sp]
   3e05c:	e59cc000 	ldr	ip, [ip]
   3e060:	e580c090 	str	ip, [r0, #144]	; 0x90
   3e064:	e28dd008 	add	sp, sp, #8
   3e068:	e12fff1e 	bx	lr
   3e06c:	fffffdf0 	.word	0xfffffdf0
   3e070:	fff82000 	.word	0xfff82000
   3e074:	00034e5c 	.word	0x00034e5c
   3e078:	fffffdf8 	.word	0xfffffdf8
   3e07c:	000425cc 	.word	0x000425cc
   3e080:	fffffe10 	.word	0xfffffe10
   3e084:	fffffe14 	.word	0xfffffe14
   3e088:	fffffe18 	.word	0xfffffe18
   3e08c:	fffffe1c 	.word	0xfffffe1c
   3e090:	fffffe30 	.word	0xfffffe30
   3e094:	09002007 	.word	0x09002007
   3e098:	fffffe34 	.word	0xfffffe34
   3e09c:	fffffe38 	.word	0xfffffe38
   3e0a0:	fffffe3c 	.word	0xfffffe3c
   3e0a4:	fffffe78 	.word	0xfffffe78
   3e0a8:	fffffe80 	.word	0xfffffe80
   3e0ac:	fffffe48 	.word	0xfffffe48
   3e0b0:	fffffe44 	.word	0xfffffe44
   3e0b4:	fffffe40 	.word	0xfffffe40
   3e0b8:	00010203 	.word	0x00010203
   3e0bc:	04050607 	.word	0x04050607
   3e0c0:	08090a0b 	.word	0x08090a0b
   3e0c4:	0c0d0e0f 	.word	0x0c0d0e0f
   3e0c8:	10111213 	.word	0x10111213
   3e0cc:	14151617 	.word	0x14151617
   3e0d0:	18191a1b 	.word	0x18191a1b
   3e0d4:	1c1d1e1f 	.word	0x1c1d1e1f
   3e0d8:	20212223 	.word	0x20212223
   3e0dc:	24252627 	.word	0x24252627
   3e0e0:	28292a2b 	.word	0x28292a2b
   3e0e4:	2c2d2e2f 	.word	0x2c2d2e2f
   3e0e8:	30313233 	.word	0x30313233
   3e0ec:	34353637 	.word	0x34353637
   3e0f0:	38393a3b 	.word	0x38393a3b
   3e0f4:	3c3d3e3f 	.word	0x3c3d3e3f
   3e0f8:	40414243 	.word	0x40414243
   3e0fc:	44454647 	.word	0x44454647
   3e100:	48494a4b 	.word	0x48494a4b
   3e104:	4c4d4e4f 	.word	0x4c4d4e4f
   3e108:	50515253 	.word	0x50515253
   3e10c:	54555657 	.word	0x54555657
   3e110:	58595a5b 	.word	0x58595a5b
   3e114:	5c5d5e5f 	.word	0x5c5d5e5f
   3e118:	fffffe50 	.word	0xfffffe50
   3e11c:	fffffe54 	.word	0xfffffe54
   3e120:	fffffe58 	.word	0xfffffe58
   3e124:	fffffe5c 	.word	0xfffffe5c
   3e128:	fffffe84 	.word	0xfffffe84
   3e12c:	fffffe88 	.word	0xfffffe88
   3e130:	fffffe8c 	.word	0xfffffe8c
   3e134:	fffffe90 	.word	0xfffffe90
   3e138:	fffffe94 	.word	0xfffffe94
   3e13c:	fffffe98 	.word	0xfffffe98
   3e140:	fffffe9c 	.word	0xfffffe9c
   3e144:	fffffea0 	.word	0xfffffea0
   3e148:	fffffea4 	.word	0xfffffea4
   3e14c:	fffffea8 	.word	0xfffffea8
   3e150:	fffffeac 	.word	0xfffffeac
   3e154:	fffffeb0 	.word	0xfffffeb0
   3e158:	fffffeb4 	.word	0xfffffeb4
   3e15c:	fffffeb8 	.word	0xfffffeb8
   3e160:	fffffebc 	.word	0xfffffebc
   3e164:	fffffec0 	.word	0xfffffec0
   3e168:	fffffec4 	.word	0xfffffec4
   3e16c:	fffffec8 	.word	0xfffffec8
   3e170:	fffffecc 	.word	0xfffffecc
   3e174:	fffffed0 	.word	0xfffffed0
   3e178:	fffffed4 	.word	0xfffffed4
   3e17c:	fffffed8 	.word	0xfffffed8
   3e180:	fffffedc 	.word	0xfffffedc

0003e184 <pow>:
   3e184:	e92d 4ff0 	stmdb	sp!, {r4, r5, r6, r7, r8, r9, sl, fp, lr}
   3e188:	eeb0 6b41 	vmov.f64	d6, d1
   3e18c:	ec50 1b16 	vmov	r1, r0, d6
   3e190:	ed2d 8b02 	vpush	{d8}
   3e194:	4682      	mov	sl, r0
   3e196:	ec51 2b16 	vmov	r2, r1, d6
   3e19a:	f02a 4100 	bic.w	r1, sl, #2147483648	; 0x80000000
   3e19e:	ea52 0501 	orrs.w	r5, r2, r1
   3e1a2:	ec56 7b10 	vmov	r7, r6, d0
   3e1a6:	ec53 4b10 	vmov	r4, r3, d0
   3e1aa:	46be      	mov	lr, r7
   3e1ac:	f023 4700 	bic.w	r7, r3, #2147483648	; 0x80000000
   3e1b0:	469c      	mov	ip, r3
   3e1b2:	f1ad 0d04 	sub.w	sp, sp, #4
   3e1b6:	f020 4600 	bic.w	r6, r0, #2147483648	; 0x80000000
   3e1ba:	eeb0 2b40 	vmov.f64	d2, d0
   3e1be:	d070      	beq.n	3e2a2 <pow+0x11e>
   3e1c0:	49cc      	ldr	r1, [pc, #816]	; (3e4f4 <pow+0x370>)
   3e1c2:	4299      	cmp	r1, r3
   3e1c4:	bf08      	it	eq
   3e1c6:	f1be 0f00 	cmpeq.w	lr, #0
   3e1ca:	d06a      	beq.n	3e2a2 <pow+0x11e>
   3e1cc:	4bca      	ldr	r3, [pc, #808]	; (3e4f8 <pow+0x374>)
   3e1ce:	f20f 391c 	addw	r9, pc, #796	; 0x31c
   3e1d2:	42bb      	cmp	r3, r7
   3e1d4:	db0a      	blt.n	3e1ec <pow+0x68>
   3e1d6:	42bb      	cmp	r3, r7
   3e1d8:	d102      	bne.n	3e1e0 <pow+0x5c>
   3e1da:	f1be 0f00 	cmp.w	lr, #0
   3e1de:	d105      	bne.n	3e1ec <pow+0x68>
   3e1e0:	42b3      	cmp	r3, r6
   3e1e2:	4698      	mov	r8, r3
   3e1e4:	db02      	blt.n	3e1ec <pow+0x68>
   3e1e6:	45b0      	cmp	r8, r6
   3e1e8:	d10b      	bne.n	3e202 <pow+0x7e>
   3e1ea:	b152      	cbz	r2, 3e202 <pow+0x7e>
   3e1ec:	ed99 1b00 	vldr	d1, [r9]
   3e1f0:	ee31 0b00 	vadd.f64	d0, d1, d0
   3e1f4:	ed99 1b00 	vldr	d1, [r9]
   3e1f8:	ee31 1b06 	vadd.f64	d1, d1, d6
   3e1fc:	ee31 0b00 	vadd.f64	d0, d1, d0
   3e200:	e29c      	b.n	3e73c <pow+0x5b8>
   3e202:	f1bc 0f00 	cmp.w	ip, #0
   3e206:	f8df b2fc 	ldr.w	fp, [pc, #764]	; 3e504 <pow+0x380>
   3e20a:	f04f 0300 	mov.w	r3, #0
   3e20e:	d524      	bpl.n	3e25a <pow+0xd6>
   3e210:	4cba      	ldr	r4, [pc, #744]	; (3e4fc <pow+0x378>)
   3e212:	42b4      	cmp	r4, r6
   3e214:	dd20      	ble.n	3e258 <pow+0xd4>
   3e216:	42b1      	cmp	r1, r6
   3e218:	dc1f      	bgt.n	3e25a <pow+0xd6>
   3e21a:	4db9      	ldr	r5, [pc, #740]	; (3e500 <pow+0x37c>)
   3e21c:	1534      	asrs	r4, r6, #20
   3e21e:	f2a4 34ff 	subw	r4, r4, #1023	; 0x3ff
   3e222:	42b5      	cmp	r5, r6
   3e224:	f1c4 0534 	rsb	r5, r4, #52	; 0x34
   3e228:	dd0b      	ble.n	3e242 <pow+0xbe>
   3e22a:	2a00      	cmp	r2, #0
   3e22c:	f1c4 0414 	rsb	r4, r4, #20
   3e230:	d148      	bne.n	3e2c4 <pow+0x140>
   3e232:	fa46 f504 	asr.w	r5, r6, r4
   3e236:	fa05 f404 	lsl.w	r4, r5, r4
   3e23a:	42a6      	cmp	r6, r4
   3e23c:	d10d      	bne.n	3e25a <pow+0xd6>
   3e23e:	462c      	mov	r4, r5
   3e240:	e005      	b.n	3e24e <pow+0xca>
   3e242:	fa22 f405 	lsr.w	r4, r2, r5
   3e246:	fa04 f505 	lsl.w	r5, r4, r5
   3e24a:	42aa      	cmp	r2, r5
   3e24c:	d105      	bne.n	3e25a <pow+0xd6>
   3e24e:	f004 0401 	and.w	r4, r4, #1
   3e252:	f1c4 0302 	rsb	r3, r4, #2
   3e256:	e000      	b.n	3e25a <pow+0xd6>
   3e258:	2302      	movs	r3, #2
   3e25a:	2a00      	cmp	r2, #0
   3e25c:	4642      	mov	r2, r8
   3e25e:	d131      	bne.n	3e2c4 <pow+0x140>
   3e260:	42b2      	cmp	r2, r6
   3e262:	d01a      	beq.n	3e29a <pow+0x116>
   3e264:	42b1      	cmp	r1, r6
   3e266:	d106      	bne.n	3e276 <pow+0xf2>
   3e268:	2800      	cmp	r0, #0
   3e26a:	bf44      	itt	mi
   3e26c:	eeb7 1b00 	vmovmi.f64	d1, #112	; 0x3f800000  1.0
   3e270:	ee81 0b00 	vdivmi.f64	d0, d1, d0
   3e274:	e00e      	b.n	3e294 <pow+0x110>
   3e276:	f1b0 4f80 	cmp.w	r0, #1073741824	; 0x40000000
   3e27a:	bf08      	it	eq
   3e27c:	eeb0 8b42 	vmoveq.f64	d8, d2
   3e280:	465a      	mov	r2, fp
   3e282:	f000 8248 	beq.w	3e716 <pow+0x592>
   3e286:	4282      	cmp	r2, r0
   3e288:	d11c      	bne.n	3e2c4 <pow+0x140>
   3e28a:	f1bc 0f00 	cmp.w	ip, #0
   3e28e:	d419      	bmi.n	3e2c4 <pow+0x140>
   3e290:	f005 ffe6 	bl	44260 <sqrt>
   3e294:	eeb0 1b40 	vmov.f64	d1, d0
   3e298:	e011      	b.n	3e2be <pow+0x13a>
   3e29a:	1a7a      	subs	r2, r7, r1
   3e29c:	ea5e 0602 	orrs.w	r6, lr, r2
   3e2a0:	d102      	bne.n	3e2a8 <pow+0x124>
   3e2a2:	eeb7 0b00 	vmov.f64	d0, #112	; 0x3f800000  1.0
   3e2a6:	e249      	b.n	3e73c <pow+0x5b8>
   3e2a8:	42b9      	cmp	r1, r7
   3e2aa:	dd05      	ble.n	3e2b8 <pow+0x134>
   3e2ac:	2800      	cmp	r0, #0
   3e2ae:	f140 8243 	bpl.w	3e738 <pow+0x5b4>
   3e2b2:	eeb1 0b46 	vneg.f64	d0, d6
   3e2b6:	e241      	b.n	3e73c <pow+0x5b8>
   3e2b8:	2800      	cmp	r0, #0
   3e2ba:	f100 823d 	bmi.w	3e738 <pow+0x5b4>
   3e2be:	eeb0 0b41 	vmov.f64	d0, d1
   3e2c2:	e23b      	b.n	3e73c <pow+0x5b8>
   3e2c4:	f1be 0f00 	cmp.w	lr, #0
   3e2c8:	eeb0 0bc0 	vabs.f64	d0, d0
   3e2cc:	d118      	bne.n	3e300 <pow+0x17c>
   3e2ce:	4642      	mov	r2, r8
   3e2d0:	42ba      	cmp	r2, r7
   3e2d2:	d003      	beq.n	3e2dc <pow+0x158>
   3e2d4:	2f00      	cmp	r7, #0
   3e2d6:	bf18      	it	ne
   3e2d8:	42b9      	cmpne	r1, r7
   3e2da:	d111      	bne.n	3e300 <pow+0x17c>
   3e2dc:	2800      	cmp	r0, #0
   3e2de:	bf44      	itt	mi
   3e2e0:	eeb7 1b00 	vmovmi.f64	d1, #112	; 0x3f800000  1.0
   3e2e4:	ee81 0b00 	vdivmi.f64	d0, d1, d0
   3e2e8:	f1bc 0f00 	cmp.w	ip, #0
   3e2ec:	eba7 0701 	sub.w	r7, r7, r1
   3e2f0:	d5d0      	bpl.n	3e294 <pow+0x110>
   3e2f2:	431f      	orrs	r7, r3
   3e2f4:	d00c      	beq.n	3e310 <pow+0x18c>
   3e2f6:	2b01      	cmp	r3, #1
   3e2f8:	bf08      	it	eq
   3e2fa:	eeb1 0b40 	vnegeq.f64	d0, d0
   3e2fe:	e7c9      	b.n	3e294 <pow+0x110>
   3e300:	ea4f 75dc 	mov.w	r5, ip, lsr #31
   3e304:	1e6d      	subs	r5, r5, #1
   3e306:	ea53 0405 	orrs.w	r4, r3, r5
   3e30a:	f1a3 0301 	sub.w	r3, r3, #1
   3e30e:	d105      	bne.n	3e31c <pow+0x198>
   3e310:	f006 f818 	bl	44344 <__aeabi_errno_addr>
   3e314:	f20f 3908 	addw	r9, pc, #776	; 0x308
   3e318:	2121      	movs	r1, #33	; 0x21
   3e31a:	e20c      	b.n	3e736 <pow+0x5b2>
   3e31c:	431d      	orrs	r5, r3
   3e31e:	bf14      	ite	ne
   3e320:	eeb7 8b00 	vmovne.f64	d8, #112	; 0x3f800000  1.0
   3e324:	eebf 8b00 	vmoveq.f64	d8, #240	; 0xbf800000 -1.0
   3e328:	4ac3      	ldr	r2, [pc, #780]	; (3e638 <pow+0x4b4>)
   3e32a:	f20f 3e04 	addw	lr, pc, #772	; 0x304
   3e32e:	42b2      	cmp	r2, r6
   3e330:	f2c0 80cb 	blt.w	3e4ca <pow+0x346>
   3e334:	f5b7 1f80 	cmp.w	r7, #1048576	; 0x100000
   3e338:	bfa8      	it	ge
   3e33a:	2000      	movge	r0, #0
   3e33c:	da08      	bge.n	3e350 <pow+0x1cc>
   3e33e:	a0ba      	add	r0, pc, #744	; (adr r0, 3e628 <pow+0x4a4>)
   3e340:	ed90 1b00 	vldr	d1, [r0]
   3e344:	f06f 0034 	mvn.w	r0, #52	; 0x34
   3e348:	ee21 0b00 	vmul.f64	d0, d1, d0
   3e34c:	ec57 8b10 	vmov	r8, r7, d0
   3e350:	4be8      	ldr	r3, [pc, #928]	; (3e6f4 <pow+0x570>)
   3e352:	f3c7 0213 	ubfx	r2, r7, #0, #20
   3e356:	4293      	cmp	r3, r2
   3e358:	eb00 5027 	add.w	r0, r0, r7, asr #20
   3e35c:	f2a0 30ff 	subw	r0, r0, #1023	; 0x3ff
   3e360:	ea41 0702 	orr.w	r7, r1, r2
   3e364:	dc07      	bgt.n	3e376 <pow+0x1f2>
   3e366:	49e6      	ldr	r1, [pc, #920]	; (3e700 <pow+0x57c>)
   3e368:	4291      	cmp	r1, r2
   3e36a:	bfda      	itte	le
   3e36c:	1c40      	addle	r0, r0, #1
   3e36e:	f5a7 1780 	suble.w	r7, r7, #1048576	; 0x100000
   3e372:	2301      	movgt	r3, #1
   3e374:	dc00      	bgt.n	3e378 <pow+0x1f4>
   3e376:	2300      	movs	r3, #0
   3e378:	4ce8      	ldr	r4, [pc, #928]	; (3e71c <pow+0x598>)
   3e37a:	ec51 2b10 	vmov	r2, r1, d0
   3e37e:	eb04 04c3 	add.w	r4, r4, r3, lsl #3
   3e382:	ec47 2b14 	vmov	d4, r2, r7
   3e386:	ed94 0b00 	vldr	d0, [r4]
   3e38a:	ee30 0b04 	vadd.f64	d0, d0, d4
   3e38e:	eeb7 1b00 	vmov.f64	d1, #112	; 0x3f800000  1.0
   3e392:	ee81 5b00 	vdiv.f64	d5, d1, d0
   3e396:	ed94 0b00 	vldr	d0, [r4]
   3e39a:	ee34 0b40 	vsub.f64	d0, d4, d0
   3e39e:	ee25 2b00 	vmul.f64	d2, d5, d0
   3e3a2:	ec51 2b12 	vmov	r2, r1, d2
   3e3a6:	460a      	mov	r2, r1
   3e3a8:	2100      	movs	r1, #0
   3e3aa:	ec42 1b13 	vmov	d3, r1, r2
   3e3ae:	464a      	mov	r2, r9
   3e3b0:	e892 0060 	ldmia.w	r2, {r5, r6}
   3e3b4:	107a      	asrs	r2, r7, #1
   3e3b6:	f042 5200 	orr.w	r2, r2, #536870912	; 0x20000000
   3e3ba:	eb02 4283 	add.w	r2, r2, r3, lsl #18
   3e3be:	f502 2200 	add.w	r2, r2, #524288	; 0x80000
   3e3c2:	ec42 6b11 	vmov	d1, r6, r2
   3e3c6:	ed94 7b00 	vldr	d7, [r4]
   3e3ca:	ee31 7b47 	vsub.f64	d7, d1, d7
   3e3ce:	ee34 4b47 	vsub.f64	d4, d4, d7
   3e3d2:	ee01 0b43 	vmls.f64	d0, d1, d3
   3e3d6:	ee03 0b44 	vmls.f64	d0, d3, d4
   3e3da:	a7db      	add	r7, pc, #876	; (adr r7, 3e748 <pow+0x5c4>)
   3e3dc:	a5dc      	add	r5, pc, #880	; (adr r5, 3e750 <pow+0x5cc>)
   3e3de:	ee25 4b00 	vmul.f64	d4, d5, d0
   3e3e2:	ee22 0b02 	vmul.f64	d0, d2, d2
   3e3e6:	ed97 1b00 	vldr	d1, [r7]
   3e3ea:	ed95 5b00 	vldr	d5, [r5]
   3e3ee:	ee01 5b00 	vmla.f64	d5, d1, d0
   3e3f2:	a3d9      	add	r3, pc, #868	; (adr r3, 3e758 <pow+0x5d4>)
   3e3f4:	ed93 1b00 	vldr	d1, [r3]
   3e3f8:	ee00 1b05 	vmla.f64	d1, d0, d5
   3e3fc:	a6d8      	add	r6, pc, #864	; (adr r6, 3e760 <pow+0x5dc>)
   3e3fe:	ed96 5b00 	vldr	d5, [r6]
   3e402:	ee00 5b01 	vmla.f64	d5, d0, d1
   3e406:	a7d8      	add	r7, pc, #864	; (adr r7, 3e768 <pow+0x5e4>)
   3e408:	ed97 1b00 	vldr	d1, [r7]
   3e40c:	ee00 1b05 	vmla.f64	d1, d0, d5
   3e410:	a5d7      	add	r5, pc, #860	; (adr r5, 3e770 <pow+0x5ec>)
   3e412:	ed95 5b00 	vldr	d5, [r5]
   3e416:	ee00 5b01 	vmla.f64	d5, d0, d1
   3e41a:	ee32 1b03 	vadd.f64	d1, d2, d3
   3e41e:	ee20 0b00 	vmul.f64	d0, d0, d0
   3e422:	ee25 0b00 	vmul.f64	d0, d5, d0
   3e426:	ee04 0b01 	vmla.f64	d0, d4, d1
   3e42a:	ee23 5b03 	vmul.f64	d5, d3, d3
   3e42e:	eeb0 1b08 	vmov.f64	d1, #8	; 0x40400000  3.0
   3e432:	ee31 7b05 	vadd.f64	d7, d1, d5
   3e436:	ee30 7b07 	vadd.f64	d7, d0, d7
   3e43a:	ec52 3b17 	vmov	r3, r2, d7
   3e43e:	ec42 1b17 	vmov	d7, r1, r2
   3e442:	ee37 1b41 	vsub.f64	d1, d7, d1
   3e446:	ee31 1b45 	vsub.f64	d1, d1, d5
   3e44a:	ee30 1b41 	vsub.f64	d1, d0, d1
   3e44e:	ee24 4b07 	vmul.f64	d4, d4, d7
   3e452:	eeb0 0b44 	vmov.f64	d0, d4
   3e456:	ee02 0b01 	vmla.f64	d0, d2, d1
   3e45a:	ee27 3b03 	vmul.f64	d3, d7, d3
   3e45e:	ee30 2b03 	vadd.f64	d2, d0, d3
   3e462:	ec52 3b12 	vmov	r3, r2, d2
   3e466:	ec42 1b12 	vmov	d2, r1, r2
   3e46a:	ee32 3b43 	vsub.f64	d3, d2, d3
   3e46e:	ee30 0b43 	vsub.f64	d0, d0, d3
   3e472:	a6c3      	add	r6, pc, #780	; (adr r6, 3e780 <pow+0x5fc>)
   3e474:	a7c0      	add	r7, pc, #768	; (adr r7, 3e778 <pow+0x5f4>)
   3e476:	ed96 3b00 	vldr	d3, [r6]
   3e47a:	ee23 0b00 	vmul.f64	d0, d3, d0
   3e47e:	ed97 3b00 	vldr	d3, [r7]
   3e482:	ee03 0b02 	vmla.f64	d0, d3, d2
   3e486:	ed94 3b08 	vldr	d3, [r4, #32]
   3e48a:	ee33 0b00 	vadd.f64	d0, d3, d0
   3e48e:	a5be      	add	r5, pc, #760	; (adr r5, 3e788 <pow+0x604>)
   3e490:	ed95 3b00 	vldr	d3, [r5]
   3e494:	ee23 3b02 	vmul.f64	d3, d3, d2
   3e498:	ee30 2b03 	vadd.f64	d2, d0, d3
   3e49c:	ed94 4b04 	vldr	d4, [r4, #16]
   3e4a0:	ee34 2b02 	vadd.f64	d2, d4, d2
   3e4a4:	ee01 0a10 	vmov	s2, r0
   3e4a8:	eeb8 1bc1 	vcvt.f64.s32	d1, s2
   3e4ac:	ee31 2b02 	vadd.f64	d2, d1, d2
   3e4b0:	ec52 3b12 	vmov	r3, r2, d2
   3e4b4:	ec42 1b12 	vmov	d2, r1, r2
   3e4b8:	ee32 1b41 	vsub.f64	d1, d2, d1
   3e4bc:	ed94 4b04 	vldr	d4, [r4, #16]
   3e4c0:	ee31 1b44 	vsub.f64	d1, d1, d4
   3e4c4:	ee31 1b43 	vsub.f64	d1, d1, d3
   3e4c8:	e047      	b.n	3e55a <pow+0x3d6>
   3e4ca:	4acb      	ldr	r2, [pc, #812]	; (3e7f8 <pow+0x674>)
   3e4cc:	42b2      	cmp	r2, r6
   3e4ce:	f2c0 8127 	blt.w	3e720 <pow+0x59c>
   3e4d2:	4aca      	ldr	r2, [pc, #808]	; (3e7fc <pow+0x678>)
   3e4d4:	42ba      	cmp	r2, r7
   3e4d6:	f300 8115 	bgt.w	3e704 <pow+0x580>
   3e4da:	42b9      	cmp	r1, r7
   3e4dc:	eeb7 1b00 	vmov.f64	d1, #112	; 0x3f800000  1.0
   3e4e0:	da12      	bge.n	3e508 <pow+0x384>
   3e4e2:	2800      	cmp	r0, #0
   3e4e4:	f340 8111 	ble.w	3e70a <pow+0x586>
   3e4e8:	e10e      	b.n	3e708 <pow+0x584>
   3e4ea:	46c0      	nop			; (mov r8, r8)
	...
   3e4f4:	3ff00000 	.word	0x3ff00000
   3e4f8:	7ff00000 	.word	0x7ff00000
   3e4fc:	43400000 	.word	0x43400000
   3e500:	41400000 	.word	0x41400000
   3e504:	3fe00000 	.word	0x3fe00000
   3e508:	a0a5      	add	r0, pc, #660	; (adr r0, 3e7a0 <pow+0x61c>)
   3e50a:	ee30 1b41 	vsub.f64	d1, d0, d1
   3e50e:	eeb5 0b00 	vmov.f64	d0, #80	; 0x3e800000  0.250
   3e512:	ed90 2b00 	vldr	d2, [r0]
   3e516:	a7a0      	add	r7, pc, #640	; (adr r7, 3e798 <pow+0x614>)
   3e518:	a19d      	add	r1, pc, #628	; (adr r1, 3e790 <pow+0x60c>)
   3e51a:	a6a3      	add	r6, pc, #652	; (adr r6, 3e7a8 <pow+0x624>)
   3e51c:	2200      	movs	r2, #0
   3e51e:	ed91 3b00 	vldr	d3, [r1]
   3e522:	ee00 2b41 	vmls.f64	d2, d0, d1
   3e526:	eeb6 0b00 	vmov.f64	d0, #96	; 0x3f000000  0.5
   3e52a:	ee01 0b42 	vmls.f64	d0, d1, d2
   3e52e:	ee21 2b01 	vmul.f64	d2, d1, d1
   3e532:	ee20 0b02 	vmul.f64	d0, d0, d2
   3e536:	ed97 2b00 	vldr	d2, [r7]
   3e53a:	ee22 0b00 	vmul.f64	d0, d2, d0
   3e53e:	ed96 2b00 	vldr	d2, [r6]
   3e542:	ee13 0b01 	vnmls.f64	d0, d3, d1
   3e546:	ee22 1b01 	vmul.f64	d1, d2, d1
   3e54a:	ee30 2b01 	vadd.f64	d2, d0, d1
   3e54e:	ec50 1b12 	vmov	r1, r0, d2
   3e552:	ec40 2b12 	vmov	d2, r2, r0
   3e556:	ee32 1b41 	vsub.f64	d1, d2, d1
   3e55a:	4aa9      	ldr	r2, [pc, #676]	; (3e800 <pow+0x67c>)
   3e55c:	f04f 0c00 	mov.w	ip, #0
   3e560:	ec4a cb13 	vmov	d3, ip, sl
   3e564:	ee36 4b43 	vsub.f64	d4, d6, d3
   3e568:	ee30 1b41 	vsub.f64	d1, d0, d1
   3e56c:	ee22 0b04 	vmul.f64	d0, d2, d4
   3e570:	ee06 0b01 	vmla.f64	d0, d6, d1
   3e574:	ee22 1b03 	vmul.f64	d1, d2, d3
   3e578:	ee31 2b00 	vadd.f64	d2, d1, d0
   3e57c:	ec50 1b12 	vmov	r1, r0, d2
   3e580:	4282      	cmp	r2, r0
   3e582:	ec56 7b12 	vmov	r7, r6, d2
   3e586:	dd11      	ble.n	3e5ac <pow+0x428>
   3e588:	4a9e      	ldr	r2, [pc, #632]	; (3e804 <pow+0x680>)
   3e58a:	f020 4100 	bic.w	r1, r0, #2147483648	; 0x80000000
   3e58e:	428a      	cmp	r2, r1
   3e590:	dc1d      	bgt.n	3e5ce <pow+0x44a>
   3e592:	499d      	ldr	r1, [pc, #628]	; (3e808 <pow+0x684>)
   3e594:	1841      	adds	r1, r0, r1
   3e596:	430f      	orrs	r7, r1
   3e598:	f040 80b7 	bne.w	3e70a <pow+0x586>
   3e59c:	ee32 2b41 	vsub.f64	d2, d2, d1
   3e5a0:	eeb4 0bc2 	vcmpe.f64	d0, d2
   3e5a4:	eef1 fa10 	vmrs	APSR_nzcv, fpscr
   3e5a8:	d811      	bhi.n	3e5ce <pow+0x44a>
   3e5aa:	e0ae      	b.n	3e70a <pow+0x586>
   3e5ac:	1a81      	subs	r1, r0, r2
   3e5ae:	430f      	orrs	r7, r1
   3e5b0:	f040 80aa 	bne.w	3e708 <pow+0x584>
   3e5b4:	a17e      	add	r1, pc, #504	; (adr r1, 3e7b0 <pow+0x62c>)
   3e5b6:	ee32 2b41 	vsub.f64	d2, d2, d1
   3e5ba:	ed91 3b00 	vldr	d3, [r1]
   3e5be:	ee33 3b00 	vadd.f64	d3, d3, d0
   3e5c2:	eeb4 3bc2 	vcmpe.f64	d3, d2
   3e5c6:	eef1 fa10 	vmrs	APSR_nzcv, fpscr
   3e5ca:	f300 809d 	bgt.w	3e708 <pow+0x584>
   3e5ce:	465a      	mov	r2, fp
   3e5d0:	f020 4100 	bic.w	r1, r0, #2147483648	; 0x80000000
   3e5d4:	428a      	cmp	r2, r1
   3e5d6:	f3c0 510a 	ubfx	r1, r0, #20, #11
   3e5da:	da2f      	bge.n	3e63c <pow+0x4b8>
   3e5dc:	4e8b      	ldr	r6, [pc, #556]	; (3e80c <pow+0x688>)
   3e5de:	f44f 1780 	mov.w	r7, #1048576	; 0x100000
   3e5e2:	f2a1 32fe 	subw	r2, r1, #1022	; 0x3fe
   3e5e6:	fa47 f102 	asr.w	r1, r7, r2
   3e5ea:	1843      	adds	r3, r0, r1
   3e5ec:	e899 0030 	ldmia.w	r9, {r4, r5}
   3e5f0:	f3c3 510a 	ubfx	r1, r3, #20, #11
   3e5f4:	f2a1 31ff 	subw	r1, r1, #1023	; 0x3ff
   3e5f8:	fa46 f201 	asr.w	r2, r6, r1
   3e5fc:	ea23 0202 	bic.w	r2, r3, r2
   3e600:	f3c3 0713 	ubfx	r7, r3, #0, #20
   3e604:	ec42 5b12 	vmov	d2, r5, r2
   3e608:	f447 1280 	orr.w	r2, r7, #1048576	; 0x100000
   3e60c:	f1c1 0114 	rsb	r1, r1, #20
   3e610:	2800      	cmp	r0, #0
   3e612:	fa42 f201 	asr.w	r2, r2, r1
   3e616:	bf48      	it	mi
   3e618:	4252      	negmi	r2, r2
   3e61a:	ee31 1b42 	vsub.f64	d1, d1, d2
   3e61e:	e00e      	b.n	3e63e <pow+0x4ba>
   3e620:	7ff80000 	.word	0x7ff80000
   3e624:	00000000 	.word	0x00000000
   3e628:	43400000 	.word	0x43400000
   3e62c:	00000000 	.word	0x00000000
   3e630:	7ff00000 	.word	0x7ff00000
   3e634:	00000000 	.word	0x00000000
   3e638:	41e00000 	.word	0x41e00000
   3e63c:	4662      	mov	r2, ip
   3e63e:	a760      	add	r7, pc, #384	; (adr r7, 3e7c0 <pow+0x63c>)
   3e640:	a65d      	add	r6, pc, #372	; (adr r6, 3e7b8 <pow+0x634>)
   3e642:	a561      	add	r5, pc, #388	; (adr r5, 3e7c8 <pow+0x644>)
   3e644:	a462      	add	r4, pc, #392	; (adr r4, 3e7d0 <pow+0x64c>)
   3e646:	a364      	add	r3, pc, #400	; (adr r3, 3e7d8 <pow+0x654>)
   3e648:	ed94 5b00 	vldr	d5, [r4]
   3e64c:	ee31 2b00 	vadd.f64	d2, d1, d0
   3e650:	ed93 4b00 	vldr	d4, [r3]
   3e654:	ec50 1b12 	vmov	r1, r0, d2
   3e658:	a161      	add	r1, pc, #388	; (adr r1, 3e7e0 <pow+0x65c>)
   3e65a:	ec40 cb12 	vmov	d2, ip, r0
   3e65e:	ee32 1b41 	vsub.f64	d1, d2, d1
   3e662:	ee30 0b41 	vsub.f64	d0, d0, d1
   3e666:	ed97 1b00 	vldr	d1, [r7]
   3e66a:	a75f      	add	r7, pc, #380	; (adr r7, 3e7e8 <pow+0x664>)
   3e66c:	ee21 0b00 	vmul.f64	d0, d1, d0
   3e670:	ed96 1b00 	vldr	d1, [r6]
   3e674:	a65e      	add	r6, pc, #376	; (adr r6, 3e7f0 <pow+0x66c>)
   3e676:	ee01 0b02 	vmla.f64	d0, d1, d2
   3e67a:	ed95 1b00 	vldr	d1, [r5]
   3e67e:	ee21 3b02 	vmul.f64	d3, d1, d2
   3e682:	ee30 1b03 	vadd.f64	d1, d0, d3
   3e686:	ee21 2b01 	vmul.f64	d2, d1, d1
   3e68a:	ee31 3b43 	vsub.f64	d3, d1, d3
   3e68e:	ee05 4b02 	vmla.f64	d4, d5, d2
   3e692:	ed91 5b00 	vldr	d5, [r1]
   3e696:	ee30 0b43 	vsub.f64	d0, d0, d3
   3e69a:	ee02 5b04 	vmla.f64	d5, d2, d4
   3e69e:	ed97 4b00 	vldr	d4, [r7]
   3e6a2:	ee00 0b01 	vmla.f64	d0, d0, d1
   3e6a6:	ee02 4b05 	vmla.f64	d4, d2, d5
   3e6aa:	ed96 5b00 	vldr	d5, [r6]
   3e6ae:	ee02 5b04 	vmla.f64	d5, d2, d4
   3e6b2:	eeb0 4b41 	vmov.f64	d4, d1
   3e6b6:	ee02 4b45 	vmls.f64	d4, d2, d5
   3e6ba:	eeb0 2b00 	vmov.f64	d2, #0	; 0x40000000  2.0
   3e6be:	ee34 2b42 	vsub.f64	d2, d4, d2
   3e6c2:	ee24 4b01 	vmul.f64	d4, d4, d1
   3e6c6:	ee84 2b02 	vdiv.f64	d2, d4, d2
   3e6ca:	ee32 0b40 	vsub.f64	d0, d2, d0
   3e6ce:	ee30 0b41 	vsub.f64	d0, d0, d1
   3e6d2:	eeb7 1b00 	vmov.f64	d1, #112	; 0x3f800000  1.0
   3e6d6:	ee31 0b40 	vsub.f64	d0, d1, d0
   3e6da:	ec50 1b10 	vmov	r1, r0, d0
   3e6de:	eb00 5002 	add.w	r0, r0, r2, lsl #20
   3e6e2:	f5b0 1f80 	cmp.w	r0, #1048576	; 0x100000
   3e6e6:	db07      	blt.n	3e6f8 <pow+0x574>
   3e6e8:	ec51 2b10 	vmov	r2, r1, d0
   3e6ec:	4611      	mov	r1, r2
   3e6ee:	ec40 1b10 	vmov	d0, r1, r0
   3e6f2:	e010      	b.n	3e716 <pow+0x592>
   3e6f4:	0003988f 	.word	0x0003988f
   3e6f8:	4610      	mov	r0, r2
   3e6fa:	f004 ff93 	bl	43624 <scalbn>
   3e6fe:	e00a      	b.n	3e716 <pow+0x592>
   3e700:	000bb67a 	.word	0x000bb67a
   3e704:	2800      	cmp	r0, #0
   3e706:	d500      	bpl.n	3e70a <pow+0x586>
   3e708:	46f1      	mov	r9, lr
   3e70a:	f005 fe1b 	bl	44344 <__aeabi_errno_addr>
   3e70e:	2122      	movs	r1, #34	; 0x22
   3e710:	6001      	str	r1, [r0, #0]
   3e712:	ed99 0b00 	vldr	d0, [r9]
   3e716:	ee20 0b08 	vmul.f64	d0, d0, d8
   3e71a:	e00f      	b.n	3e73c <pow+0x5b8>
   3e71c:	00035370 	.word	0x00035370
   3e720:	42b9      	cmp	r1, r7
   3e722:	dc02      	bgt.n	3e72a <pow+0x5a6>
   3e724:	2800      	cmp	r0, #0
   3e726:	dd03      	ble.n	3e730 <pow+0x5ac>
   3e728:	e001      	b.n	3e72e <pow+0x5aa>
   3e72a:	2800      	cmp	r0, #0
   3e72c:	d500      	bpl.n	3e730 <pow+0x5ac>
   3e72e:	46f1      	mov	r9, lr
   3e730:	f005 fe08 	bl	44344 <__aeabi_errno_addr>
   3e734:	2122      	movs	r1, #34	; 0x22
   3e736:	6001      	str	r1, [r0, #0]
   3e738:	ed99 0b00 	vldr	d0, [r9]
   3e73c:	b001      	add	sp, #4
   3e73e:	ecbd 8b02 	vpop	{d8}
   3e742:	e8bd 8ff0 	ldmia.w	sp!, {r4, r5, r6, r7, r8, r9, sl, fp, pc}
   3e746:	46c0      	nop			; (mov r8, r8)
   3e748:	3fca7e28 	.word	0x3fca7e28
   3e74c:	4a454eef 	.word	0x4a454eef
   3e750:	3fcd864a 	.word	0x3fcd864a
   3e754:	93c9db65 	.word	0x93c9db65
   3e758:	3fd17460 	.word	0x3fd17460
   3e75c:	a91d4101 	.word	0xa91d4101
   3e760:	3fd55555 	.word	0x3fd55555
   3e764:	518f264d 	.word	0x518f264d
   3e768:	3fdb6db6 	.word	0x3fdb6db6
   3e76c:	db6fabff 	.word	0xdb6fabff
   3e770:	3fe33333 	.word	0x3fe33333
   3e774:	33333303 	.word	0x33333303
   3e778:	be3e2fe0 	.word	0xbe3e2fe0
   3e77c:	145b01f5 	.word	0x145b01f5
   3e780:	3feec709 	.word	0x3feec709
   3e784:	dc3a03fd 	.word	0xdc3a03fd
   3e788:	3feec709 	.word	0x3feec709
   3e78c:	e0000000 	.word	0xe0000000
   3e790:	3e54ae0b 	.word	0x3e54ae0b
   3e794:	f85ddf44 	.word	0xf85ddf44
   3e798:	3ff71547 	.word	0x3ff71547
   3e79c:	652b82fe 	.word	0x652b82fe
   3e7a0:	3fd55555 	.word	0x3fd55555
   3e7a4:	55555555 	.word	0x55555555
   3e7a8:	3ff71547 	.word	0x3ff71547
   3e7ac:	60000000 	.word	0x60000000
   3e7b0:	3c971547 	.word	0x3c971547
   3e7b4:	652b82fe 	.word	0x652b82fe
   3e7b8:	be205c61 	.word	0xbe205c61
   3e7bc:	0ca86c39 	.word	0x0ca86c39
   3e7c0:	3fe62e42 	.word	0x3fe62e42
   3e7c4:	fefa39ef 	.word	0xfefa39ef
   3e7c8:	3fe62e43 	.word	0x3fe62e43
   3e7cc:	00000000 	.word	0x00000000
   3e7d0:	3e663769 	.word	0x3e663769
   3e7d4:	72bea4d0 	.word	0x72bea4d0
   3e7d8:	bebbbd41 	.word	0xbebbbd41
   3e7dc:	c5d26bf1 	.word	0xc5d26bf1
   3e7e0:	3f11566a 	.word	0x3f11566a
   3e7e4:	af25de2c 	.word	0xaf25de2c
   3e7e8:	bf66c16c 	.word	0xbf66c16c
   3e7ec:	16bebd93 	.word	0x16bebd93
   3e7f0:	3fc55555 	.word	0x3fc55555
   3e7f4:	5555553e 	.word	0x5555553e
   3e7f8:	43f00000 	.word	0x43f00000
   3e7fc:	3fefffff 	.word	0x3fefffff
   3e800:	40900000 	.word	0x40900000
   3e804:	4090cc00 	.word	0x4090cc00
   3e808:	3f6f3400 	.word	0x3f6f3400
   3e80c:	000fffff 	.word	0x000fffff

0003e810 <_errata_SSWF021_45_both_plls>:
   3e810:	e92d4000 	stmfd	sp!, {lr}
   3e814:	e24dd014 	sub	sp, sp, #20
   3e818:	e58d0000 	str	r0, [sp]
   3e81c:	e3e0c02f 	mvn	ip, #47	; 0x2f
   3e820:	e59cc000 	ldr	ip, [ip]
   3e824:	e58dc00c 	str	ip, [sp, #12]
   3e828:	e59f0610 	ldr	r0, [pc, #1552]	; 3ee40 <disable_plls+0xc8>
   3e82c:	e3e0102f 	mvn	r1, #47	; 0x2f
   3e830:	e59dc00c 	ldr	ip, [sp, #12]
   3e834:	e000c00c 	and	ip, r0, ip
   3e838:	e581c000 	str	ip, [r1]
   3e83c:	e3e0002f 	mvn	r0, #47	; 0x2f
   3e840:	e3a0cc01 	mov	ip, #256	; 0x100
   3e844:	e580c000 	str	ip, [r0]
   3e848:	e3a0c000 	mov	ip, #0
   3e84c:	e58dc004 	str	ip, [sp, #4]
   3e850:	e3a0c000 	mov	ip, #0
   3e854:	e58dc008 	str	ip, [sp, #8]
   3e858:	e59dc000 	ldr	ip, [sp]
   3e85c:	e59d0008 	ldr	r0, [sp, #8]
   3e860:	e15c0000 	cmp	ip, r0
   3e864:	9a000058 	bls	3e9cc <_errata_SSWF021_45_both_plls+0x1bc>
   3e868:	e3a0c000 	mov	ip, #0
   3e86c:	e58dc004 	str	ip, [sp, #4]
   3e870:	e3a00042 	mov	r0, #66	; 0x42
   3e874:	eb00013f 	bl	3ed78 <disable_plls>
   3e878:	e58d0004 	str	r0, [sp, #4]
   3e87c:	e59dc004 	ldr	ip, [sp, #4]
   3e880:	e35c0000 	cmp	ip, #0
   3e884:	1a000050 	bne	3e9cc <_errata_SSWF021_45_both_plls+0x1bc>
   3e888:	e3e00013 	mvn	r0, #19
   3e88c:	e300c301 	movw	ip, #769	; 0x301
   3e890:	e580c000 	str	ip, [r0]
   3e894:	e59f05a8 	ldr	r0, [pc, #1448]	; 3ee44 <disable_plls+0xcc>
   3e898:	e3a0cb01 	mov	ip, #1024	; 0x400
   3e89c:	e580c000 	str	ip, [r0]
   3e8a0:	e59f05a0 	ldr	r0, [pc, #1440]	; 3ee48 <disable_plls+0xd0>
   3e8a4:	e3a0cb01 	mov	ip, #1024	; 0x400
   3e8a8:	e580c000 	str	ip, [r0]
   3e8ac:	e3e0008f 	mvn	r0, #143	; 0x8f
   3e8b0:	e59fc594 	ldr	ip, [pc, #1428]	; 3ee4c <disable_plls+0xd4>
   3e8b4:	e580c000 	str	ip, [r0]
   3e8b8:	e3e0008b 	mvn	r0, #139	; 0x8b
   3e8bc:	e59fc58c 	ldr	ip, [pc, #1420]	; 3ee50 <disable_plls+0xd8>
   3e8c0:	e580c000 	str	ip, [r0]
   3e8c4:	e59f0588 	ldr	r0, [pc, #1416]	; 3ee54 <disable_plls+0xdc>
   3e8c8:	e59fc57c 	ldr	ip, [pc, #1404]	; 3ee4c <disable_plls+0xd4>
   3e8cc:	e580c000 	str	ip, [r0]
   3e8d0:	e3e000c7 	mvn	r0, #199	; 0xc7
   3e8d4:	e3a0c042 	mov	ip, #66	; 0x42
   3e8d8:	e580c000 	str	ip, [r0]
   3e8dc:	e3e0c0ab 	mvn	ip, #171	; 0xab
   3e8e0:	e59cc000 	ldr	ip, [ip]
   3e8e4:	e31c0002 	tst	ip, #2
   3e8e8:	1a000003 	bne	3e8fc <_errata_SSWF021_45_both_plls+0xec>
   3e8ec:	e59fc550 	ldr	ip, [pc, #1360]	; 3ee44 <disable_plls+0xcc>
   3e8f0:	e59cc000 	ldr	ip, [ip]
   3e8f4:	e31c0b01 	tst	ip, #1024	; 0x400
   3e8f8:	0afffff7 	beq	3e8dc <_errata_SSWF021_45_both_plls+0xcc>
   3e8fc:	e3e0c0ab 	mvn	ip, #171	; 0xab
   3e900:	e59cc000 	ldr	ip, [ip]
   3e904:	e31c0040 	tst	ip, #64	; 0x40
   3e908:	1a000003 	bne	3e91c <_errata_SSWF021_45_both_plls+0x10c>
   3e90c:	e59fc534 	ldr	ip, [pc, #1332]	; 3ee48 <disable_plls+0xd0>
   3e910:	e59cc000 	ldr	ip, [ip]
   3e914:	e31c0b01 	tst	ip, #1024	; 0x400
   3e918:	0affffef 	beq	3e8dc <_errata_SSWF021_45_both_plls+0xcc>
   3e91c:	e59fc520 	ldr	ip, [pc, #1312]	; 3ee44 <disable_plls+0xcc>
   3e920:	e59cc000 	ldr	ip, [ip]
   3e924:	e31c0b01 	tst	ip, #1024	; 0x400
   3e928:	1a000003 	bne	3e93c <_errata_SSWF021_45_both_plls+0x12c>
   3e92c:	e3e0c013 	mvn	ip, #19
   3e930:	e59cc000 	ldr	ip, [ip]
   3e934:	e31c0c03 	tst	ip, #768	; 0x300
   3e938:	0a000003 	beq	3e94c <_errata_SSWF021_45_both_plls+0x13c>
   3e93c:	e59dc004 	ldr	ip, [sp, #4]
   3e940:	e38cc001 	orr	ip, ip, #1
   3e944:	e58dc004 	str	ip, [sp, #4]
   3e948:	ea000004 	b	3e960 <_errata_SSWF021_45_both_plls+0x150>
   3e94c:	e3a00a0a 	mov	r0, #40960	; 0xa000
   3e950:	eb0000e4 	bl	3ece8 <check_frequency>
   3e954:	e59dc004 	ldr	ip, [sp, #4]
   3e958:	e180c00c 	orr	ip, r0, ip
   3e95c:	e58dc004 	str	ip, [sp, #4]
   3e960:	e59fc4e0 	ldr	ip, [pc, #1248]	; 3ee48 <disable_plls+0xd0>
   3e964:	e59cc000 	ldr	ip, [ip]
   3e968:	e31c0b01 	tst	ip, #1024	; 0x400
   3e96c:	1a000003 	bne	3e980 <_errata_SSWF021_45_both_plls+0x170>
   3e970:	e3e0c013 	mvn	ip, #19
   3e974:	e59cc000 	ldr	ip, [ip]
   3e978:	e31c0c03 	tst	ip, #768	; 0x300
   3e97c:	0a000003 	beq	3e990 <_errata_SSWF021_45_both_plls+0x180>
   3e980:	e59dc004 	ldr	ip, [sp, #4]
   3e984:	e38cc002 	orr	ip, ip, #2
   3e988:	e58dc004 	str	ip, [sp, #4]
   3e98c:	ea000004 	b	3e9a4 <_errata_SSWF021_45_both_plls+0x194>
   3e990:	e30a0001 	movw	r0, #40961	; 0xa001
   3e994:	eb0000d3 	bl	3ece8 <check_frequency>
   3e998:	e59dc004 	ldr	ip, [sp, #4]
   3e99c:	e18cc080 	orr	ip, ip, r0, lsl #1
   3e9a0:	e58dc004 	str	ip, [sp, #4]
   3e9a4:	e59dc004 	ldr	ip, [sp, #4]
   3e9a8:	e35c0000 	cmp	ip, #0
   3e9ac:	0a000006 	beq	3e9cc <_errata_SSWF021_45_both_plls+0x1bc>
   3e9b0:	e59dc008 	ldr	ip, [sp, #8]
   3e9b4:	e28cc001 	add	ip, ip, #1
   3e9b8:	e58dc008 	str	ip, [sp, #8]
   3e9bc:	e59dc000 	ldr	ip, [sp]
   3e9c0:	e59d0008 	ldr	r0, [sp, #8]
   3e9c4:	e15c0000 	cmp	ip, r0
   3e9c8:	8affffa6 	bhi	3e868 <_errata_SSWF021_45_both_plls+0x58>
   3e9cc:	e3a00042 	mov	r0, #66	; 0x42
   3e9d0:	eb0000e8 	bl	3ed78 <disable_plls>
   3e9d4:	e58d0004 	str	r0, [sp, #4]
   3e9d8:	e59dc00c 	ldr	ip, [sp, #12]
   3e9dc:	e3e0102f 	mvn	r1, #47	; 0x2f
   3e9e0:	e59f0458 	ldr	r0, [pc, #1112]	; 3ee40 <disable_plls+0xc8>
   3e9e4:	e000c00c 	and	ip, r0, ip
   3e9e8:	e581c000 	str	ip, [r1]
   3e9ec:	e3e0002f 	mvn	r0, #47	; 0x2f
   3e9f0:	e59dc00c 	ldr	ip, [sp, #12]
   3e9f4:	e580c000 	str	ip, [r0]
   3e9f8:	e59d0004 	ldr	r0, [sp, #4]
   3e9fc:	e28dd014 	add	sp, sp, #20
   3ea00:	e8bd8000 	ldmfd	sp!, {pc}

0003ea04 <_errata_SSWF021_45_pll1>:
   3ea04:	e92d4000 	stmfd	sp!, {lr}
   3ea08:	e24dd014 	sub	sp, sp, #20
   3ea0c:	e58d0000 	str	r0, [sp]
   3ea10:	e3e0c02f 	mvn	ip, #47	; 0x2f
   3ea14:	e59cc000 	ldr	ip, [ip]
   3ea18:	e58dc00c 	str	ip, [sp, #12]
   3ea1c:	e59f041c 	ldr	r0, [pc, #1052]	; 3ee40 <disable_plls+0xc8>
   3ea20:	e3e0102f 	mvn	r1, #47	; 0x2f
   3ea24:	e59dc00c 	ldr	ip, [sp, #12]
   3ea28:	e000c00c 	and	ip, r0, ip
   3ea2c:	e581c000 	str	ip, [r1]
   3ea30:	e3e0002f 	mvn	r0, #47	; 0x2f
   3ea34:	e3a0cc01 	mov	ip, #256	; 0x100
   3ea38:	e580c000 	str	ip, [r0]
   3ea3c:	e3a0c000 	mov	ip, #0
   3ea40:	e58dc004 	str	ip, [sp, #4]
   3ea44:	e3a0c000 	mov	ip, #0
   3ea48:	e58dc008 	str	ip, [sp, #8]
   3ea4c:	e59dc000 	ldr	ip, [sp]
   3ea50:	e59d0008 	ldr	r0, [sp, #8]
   3ea54:	e15c0000 	cmp	ip, r0
   3ea58:	9a000039 	bls	3eb44 <_errata_SSWF021_45_pll1+0x140>
   3ea5c:	e3a0c000 	mov	ip, #0
   3ea60:	e58dc004 	str	ip, [sp, #4]
   3ea64:	e3a00002 	mov	r0, #2
   3ea68:	eb0000c2 	bl	3ed78 <disable_plls>
   3ea6c:	e58d0004 	str	r0, [sp, #4]
   3ea70:	e59dc004 	ldr	ip, [sp, #4]
   3ea74:	e35c0000 	cmp	ip, #0
   3ea78:	1a000031 	bne	3eb44 <_errata_SSWF021_45_pll1+0x140>
   3ea7c:	e3e00013 	mvn	r0, #19
   3ea80:	e300c301 	movw	ip, #769	; 0x301
   3ea84:	e580c000 	str	ip, [r0]
   3ea88:	e59f03b4 	ldr	r0, [pc, #948]	; 3ee44 <disable_plls+0xcc>
   3ea8c:	e3a0cb01 	mov	ip, #1024	; 0x400
   3ea90:	e580c000 	str	ip, [r0]
   3ea94:	e3e0008f 	mvn	r0, #143	; 0x8f
   3ea98:	e59fc3ac 	ldr	ip, [pc, #940]	; 3ee4c <disable_plls+0xd4>
   3ea9c:	e580c000 	str	ip, [r0]
   3eaa0:	e3e0008b 	mvn	r0, #139	; 0x8b
   3eaa4:	e59fc3a4 	ldr	ip, [pc, #932]	; 3ee50 <disable_plls+0xd8>
   3eaa8:	e580c000 	str	ip, [r0]
   3eaac:	e3e000c7 	mvn	r0, #199	; 0xc7
   3eab0:	e3a0c002 	mov	ip, #2
   3eab4:	e580c000 	str	ip, [r0]
   3eab8:	e3e0c0ab 	mvn	ip, #171	; 0xab
   3eabc:	e59cc000 	ldr	ip, [ip]
   3eac0:	e31c0002 	tst	ip, #2
   3eac4:	1a000003 	bne	3ead8 <_errata_SSWF021_45_pll1+0xd4>
   3eac8:	e59fc374 	ldr	ip, [pc, #884]	; 3ee44 <disable_plls+0xcc>
   3eacc:	e59cc000 	ldr	ip, [ip]
   3ead0:	e31c0b01 	tst	ip, #1024	; 0x400
   3ead4:	0afffff7 	beq	3eab8 <_errata_SSWF021_45_pll1+0xb4>
   3ead8:	e59fc364 	ldr	ip, [pc, #868]	; 3ee44 <disable_plls+0xcc>
   3eadc:	e59cc000 	ldr	ip, [ip]
   3eae0:	e31c0b01 	tst	ip, #1024	; 0x400
   3eae4:	1a000003 	bne	3eaf8 <_errata_SSWF021_45_pll1+0xf4>
   3eae8:	e3e0c013 	mvn	ip, #19
   3eaec:	e59cc000 	ldr	ip, [ip]
   3eaf0:	e31c0c03 	tst	ip, #768	; 0x300
   3eaf4:	0a000003 	beq	3eb08 <_errata_SSWF021_45_pll1+0x104>
   3eaf8:	e59dc004 	ldr	ip, [sp, #4]
   3eafc:	e38cc001 	orr	ip, ip, #1
   3eb00:	e58dc004 	str	ip, [sp, #4]
   3eb04:	ea000004 	b	3eb1c <_errata_SSWF021_45_pll1+0x118>
   3eb08:	e3a00a0a 	mov	r0, #40960	; 0xa000
   3eb0c:	eb000075 	bl	3ece8 <check_frequency>
   3eb10:	e59dc004 	ldr	ip, [sp, #4]
   3eb14:	e180c00c 	orr	ip, r0, ip
   3eb18:	e58dc004 	str	ip, [sp, #4]
   3eb1c:	e59dc004 	ldr	ip, [sp, #4]
   3eb20:	e35c0000 	cmp	ip, #0
   3eb24:	0a000006 	beq	3eb44 <_errata_SSWF021_45_pll1+0x140>
   3eb28:	e59dc008 	ldr	ip, [sp, #8]
   3eb2c:	e28cc001 	add	ip, ip, #1
   3eb30:	e58dc008 	str	ip, [sp, #8]
   3eb34:	e59dc000 	ldr	ip, [sp]
   3eb38:	e59d0008 	ldr	r0, [sp, #8]
   3eb3c:	e15c0000 	cmp	ip, r0
   3eb40:	8affffc5 	bhi	3ea5c <_errata_SSWF021_45_pll1+0x58>
   3eb44:	e3a00002 	mov	r0, #2
   3eb48:	eb00008a 	bl	3ed78 <disable_plls>
   3eb4c:	e58d0004 	str	r0, [sp, #4]
   3eb50:	e59dc00c 	ldr	ip, [sp, #12]
   3eb54:	e3e0102f 	mvn	r1, #47	; 0x2f
   3eb58:	e59f02e0 	ldr	r0, [pc, #736]	; 3ee40 <disable_plls+0xc8>
   3eb5c:	e000c00c 	and	ip, r0, ip
   3eb60:	e581c000 	str	ip, [r1]
   3eb64:	e3e0002f 	mvn	r0, #47	; 0x2f
   3eb68:	e59dc00c 	ldr	ip, [sp, #12]
   3eb6c:	e580c000 	str	ip, [r0]
   3eb70:	e59d0004 	ldr	r0, [sp, #4]
   3eb74:	e28dd014 	add	sp, sp, #20
   3eb78:	e8bd8000 	ldmfd	sp!, {pc}

0003eb7c <_errata_SSWF021_45_pll2>:
   3eb7c:	e92d4000 	stmfd	sp!, {lr}
   3eb80:	e24dd014 	sub	sp, sp, #20
   3eb84:	e58d0000 	str	r0, [sp]
   3eb88:	e3e0c02f 	mvn	ip, #47	; 0x2f
   3eb8c:	e59cc000 	ldr	ip, [ip]
   3eb90:	e58dc00c 	str	ip, [sp, #12]
   3eb94:	e59f02a4 	ldr	r0, [pc, #676]	; 3ee40 <disable_plls+0xc8>
   3eb98:	e3e0102f 	mvn	r1, #47	; 0x2f
   3eb9c:	e59dc00c 	ldr	ip, [sp, #12]
   3eba0:	e000c00c 	and	ip, r0, ip
   3eba4:	e581c000 	str	ip, [r1]
   3eba8:	e3e0002f 	mvn	r0, #47	; 0x2f
   3ebac:	e3a0cc01 	mov	ip, #256	; 0x100
   3ebb0:	e580c000 	str	ip, [r0]
   3ebb4:	e3a0c000 	mov	ip, #0
   3ebb8:	e58dc004 	str	ip, [sp, #4]
   3ebbc:	e3a0c000 	mov	ip, #0
   3ebc0:	e58dc008 	str	ip, [sp, #8]
   3ebc4:	e59dc000 	ldr	ip, [sp]
   3ebc8:	e59d0008 	ldr	r0, [sp, #8]
   3ebcc:	e15c0000 	cmp	ip, r0
   3ebd0:	9a000036 	bls	3ecb0 <_errata_SSWF021_45_pll2+0x134>
   3ebd4:	e3a0c000 	mov	ip, #0
   3ebd8:	e58dc004 	str	ip, [sp, #4]
   3ebdc:	e3a00040 	mov	r0, #64	; 0x40
   3ebe0:	eb000064 	bl	3ed78 <disable_plls>
   3ebe4:	e58d0004 	str	r0, [sp, #4]
   3ebe8:	e59dc004 	ldr	ip, [sp, #4]
   3ebec:	e35c0000 	cmp	ip, #0
   3ebf0:	1a00002e 	bne	3ecb0 <_errata_SSWF021_45_pll2+0x134>
   3ebf4:	e3e00013 	mvn	r0, #19
   3ebf8:	e300c301 	movw	ip, #769	; 0x301
   3ebfc:	e580c000 	str	ip, [r0]
   3ec00:	e59f0240 	ldr	r0, [pc, #576]	; 3ee48 <disable_plls+0xd0>
   3ec04:	e3a0cb01 	mov	ip, #1024	; 0x400
   3ec08:	e580c000 	str	ip, [r0]
   3ec0c:	e59f0240 	ldr	r0, [pc, #576]	; 3ee54 <disable_plls+0xdc>
   3ec10:	e59fc234 	ldr	ip, [pc, #564]	; 3ee4c <disable_plls+0xd4>
   3ec14:	e580c000 	str	ip, [r0]
   3ec18:	e3e000c7 	mvn	r0, #199	; 0xc7
   3ec1c:	e3a0c040 	mov	ip, #64	; 0x40
   3ec20:	e580c000 	str	ip, [r0]
   3ec24:	e3e0c0ab 	mvn	ip, #171	; 0xab
   3ec28:	e59cc000 	ldr	ip, [ip]
   3ec2c:	e31c0040 	tst	ip, #64	; 0x40
   3ec30:	1a000003 	bne	3ec44 <_errata_SSWF021_45_pll2+0xc8>
   3ec34:	e59fc20c 	ldr	ip, [pc, #524]	; 3ee48 <disable_plls+0xd0>
   3ec38:	e59cc000 	ldr	ip, [ip]
   3ec3c:	e31c0b01 	tst	ip, #1024	; 0x400
   3ec40:	0afffff7 	beq	3ec24 <_errata_SSWF021_45_pll2+0xa8>
   3ec44:	e59fc1fc 	ldr	ip, [pc, #508]	; 3ee48 <disable_plls+0xd0>
   3ec48:	e59cc000 	ldr	ip, [ip]
   3ec4c:	e31c0b01 	tst	ip, #1024	; 0x400
   3ec50:	1a000003 	bne	3ec64 <_errata_SSWF021_45_pll2+0xe8>
   3ec54:	e3e0c013 	mvn	ip, #19
   3ec58:	e59cc000 	ldr	ip, [ip]
   3ec5c:	e31c0c03 	tst	ip, #768	; 0x300
   3ec60:	0a000003 	beq	3ec74 <_errata_SSWF021_45_pll2+0xf8>
   3ec64:	e59dc004 	ldr	ip, [sp, #4]
   3ec68:	e38cc002 	orr	ip, ip, #2
   3ec6c:	e58dc004 	str	ip, [sp, #4]
   3ec70:	ea000004 	b	3ec88 <_errata_SSWF021_45_pll2+0x10c>
   3ec74:	e30a0001 	movw	r0, #40961	; 0xa001
   3ec78:	eb00001a 	bl	3ece8 <check_frequency>
   3ec7c:	e59dc004 	ldr	ip, [sp, #4]
   3ec80:	e18cc080 	orr	ip, ip, r0, lsl #1
   3ec84:	e58dc004 	str	ip, [sp, #4]
   3ec88:	e59dc004 	ldr	ip, [sp, #4]
   3ec8c:	e35c0000 	cmp	ip, #0
   3ec90:	0a000006 	beq	3ecb0 <_errata_SSWF021_45_pll2+0x134>
   3ec94:	e59dc008 	ldr	ip, [sp, #8]
   3ec98:	e28cc001 	add	ip, ip, #1
   3ec9c:	e58dc008 	str	ip, [sp, #8]
   3eca0:	e59dc000 	ldr	ip, [sp]
   3eca4:	e59d0008 	ldr	r0, [sp, #8]
   3eca8:	e15c0000 	cmp	ip, r0
   3ecac:	8affffc8 	bhi	3ebd4 <_errata_SSWF021_45_pll2+0x58>
   3ecb0:	e3a00040 	mov	r0, #64	; 0x40
   3ecb4:	eb00002f 	bl	3ed78 <disable_plls>
   3ecb8:	e58d0004 	str	r0, [sp, #4]
   3ecbc:	e59dc00c 	ldr	ip, [sp, #12]
   3ecc0:	e3e0102f 	mvn	r1, #47	; 0x2f
   3ecc4:	e59f0174 	ldr	r0, [pc, #372]	; 3ee40 <disable_plls+0xc8>
   3ecc8:	e000c00c 	and	ip, r0, ip
   3eccc:	e581c000 	str	ip, [r1]
   3ecd0:	e3e0002f 	mvn	r0, #47	; 0x2f
   3ecd4:	e59dc00c 	ldr	ip, [sp, #12]
   3ecd8:	e580c000 	str	ip, [r0]
   3ecdc:	e59d0004 	ldr	r0, [sp, #4]
   3ece0:	e28dd014 	add	sp, sp, #20
   3ece4:	e8bd8000 	ldmfd	sp!, {pc}

0003ece8 <check_frequency>:
   3ece8:	e24dd008 	sub	sp, sp, #8
   3ecec:	e58d0000 	str	r0, [sp]
   3ecf0:	e59f0160 	ldr	r0, [pc, #352]	; 3ee58 <disable_plls+0xe0>
   3ecf4:	e305ca55 	movw	ip, #23125	; 0x5a55
   3ecf8:	e580c000 	str	ip, [r0]
   3ecfc:	e59f0158 	ldr	r0, [pc, #344]	; 3ee5c <disable_plls+0xe4>
   3ed00:	e3a0c003 	mov	ip, #3
   3ed04:	e580c000 	str	ip, [r0]
   3ed08:	e59f0150 	ldr	r0, [pc, #336]	; 3ee60 <disable_plls+0xe8>
   3ed0c:	e3a0c044 	mov	ip, #68	; 0x44
   3ed10:	e580c000 	str	ip, [r0]
   3ed14:	e59f0148 	ldr	r0, [pc, #328]	; 3ee64 <disable_plls+0xec>
   3ed18:	e3a0c004 	mov	ip, #4
   3ed1c:	e580c000 	str	ip, [r0]
   3ed20:	e59f0140 	ldr	r0, [pc, #320]	; 3ee68 <disable_plls+0xf0>
   3ed24:	e3a0cff3 	mov	ip, #972	; 0x3cc
   3ed28:	e580c000 	str	ip, [r0]
   3ed2c:	e59f0138 	ldr	r0, [pc, #312]	; 3ee6c <disable_plls+0xf4>
   3ed30:	e59dc000 	ldr	ip, [sp]
   3ed34:	e38cca0a 	orr	ip, ip, #40960	; 0xa000
   3ed38:	e580c000 	str	ip, [r0]
   3ed3c:	e59f012c 	ldr	r0, [pc, #300]	; 3ee70 <disable_plls+0xf8>
   3ed40:	e3a0c00f 	mov	ip, #15
   3ed44:	e580c000 	str	ip, [r0]
   3ed48:	e59f0108 	ldr	r0, [pc, #264]	; 3ee58 <disable_plls+0xe0>
   3ed4c:	e305ca5a 	movw	ip, #23130	; 0x5a5a
   3ed50:	e580c000 	str	ip, [r0]
   3ed54:	e59fc100 	ldr	ip, [pc, #256]	; 3ee5c <disable_plls+0xe4>
   3ed58:	e59cc000 	ldr	ip, [ip]
   3ed5c:	e35c0000 	cmp	ip, #0
   3ed60:	0afffffb 	beq	3ed54 <check_frequency+0x6c>
   3ed64:	e59fc0f0 	ldr	ip, [pc, #240]	; 3ee5c <disable_plls+0xe4>
   3ed68:	e59cc000 	ldr	ip, [ip]
   3ed6c:	e20c0001 	and	r0, ip, #1
   3ed70:	e28dd008 	add	sp, sp, #8
   3ed74:	e12fff1e 	bx	lr

0003ed78 <disable_plls>:
   3ed78:	e24dd010 	sub	sp, sp, #16
   3ed7c:	e58d0000 	str	r0, [sp]
   3ed80:	e3e000cb 	mvn	r0, #203	; 0xcb
   3ed84:	e59dc000 	ldr	ip, [sp]
   3ed88:	e580c000 	str	ip, [r0]
   3ed8c:	e3a0c000 	mov	ip, #0
   3ed90:	e58dc008 	str	ip, [sp, #8]
   3ed94:	e3a0c010 	mov	ip, #16
   3ed98:	e58dc004 	str	ip, [sp, #4]
   3ed9c:	e59dc004 	ldr	ip, [sp, #4]
   3eda0:	e24cc001 	sub	ip, ip, #1
   3eda4:	e58dc004 	str	ip, [sp, #4]
   3eda8:	ea000011 	b	3edf4 <disable_plls+0x7c>
   3edac:	e3e00013 	mvn	r0, #19
   3edb0:	e3a0cc03 	mov	ip, #768	; 0x300
   3edb4:	e580c000 	str	ip, [r0]
   3edb8:	e59dc000 	ldr	ip, [sp]
   3edbc:	e31c0002 	tst	ip, #2
   3edc0:	0a000002 	beq	3edd0 <disable_plls+0x58>
   3edc4:	e59f0078 	ldr	r0, [pc, #120]	; 3ee44 <disable_plls+0xcc>
   3edc8:	e3a0cb01 	mov	ip, #1024	; 0x400
   3edcc:	e580c000 	str	ip, [r0]
   3edd0:	e59dc000 	ldr	ip, [sp]
   3edd4:	e31c0040 	tst	ip, #64	; 0x40
   3edd8:	0a000002 	beq	3ede8 <disable_plls+0x70>
   3eddc:	e59f0064 	ldr	r0, [pc, #100]	; 3ee48 <disable_plls+0xd0>
   3ede0:	e3a0cb01 	mov	ip, #1024	; 0x400
   3ede4:	e580c000 	str	ip, [r0]
   3ede8:	e59dc004 	ldr	ip, [sp, #4]
   3edec:	e24cc001 	sub	ip, ip, #1
   3edf0:	e58dc004 	str	ip, [sp, #4]
   3edf4:	e3e0c0ab 	mvn	ip, #171	; 0xab
   3edf8:	e59d0000 	ldr	r0, [sp]
   3edfc:	e59cc000 	ldr	ip, [ip]
   3ee00:	e110000c 	tst	r0, ip
   3ee04:	0a000002 	beq	3ee14 <disable_plls+0x9c>
   3ee08:	e59dc004 	ldr	ip, [sp, #4]
   3ee0c:	e35c0000 	cmp	ip, #0
   3ee10:	1affffe5 	bne	3edac <disable_plls+0x34>
   3ee14:	e59dc004 	ldr	ip, [sp, #4]
   3ee18:	e35c0000 	cmp	ip, #0
   3ee1c:	1a000002 	bne	3ee2c <disable_plls+0xb4>
   3ee20:	e3a0c004 	mov	ip, #4
   3ee24:	e58dc008 	str	ip, [sp, #8]
   3ee28:	ea000001 	b	3ee34 <disable_plls+0xbc>
   3ee2c:	e3a0c000 	mov	ip, #0
   3ee30:	e58dc008 	str	ip, [sp, #8]
   3ee34:	e59d0008 	ldr	r0, [sp, #8]
   3ee38:	e28dd010 	add	sp, sp, #16
   3ee3c:	e12fff1e 	bx	lr
   3ee40:	000f0100 	.word	0x000f0100
   3ee44:	fffff518 	.word	0xfffff518
   3ee48:	fffff558 	.word	0xfffff558
   3ee4c:	20001a00 	.word	0x20001a00
   3ee50:	3fc0723d 	.word	0x3fc0723d
   3ee54:	ffffe100 	.word	0xffffe100
   3ee58:	ffffec00 	.word	0xffffec00
   3ee5c:	ffffec14 	.word	0xffffec14
   3ee60:	ffffec08 	.word	0xffffec08
   3ee64:	ffffec0c 	.word	0xffffec0c
   3ee68:	ffffec10 	.word	0xffffec10
   3ee6c:	ffffec24 	.word	0xffffec24
   3ee70:	ffffec28 	.word	0xffffec28

0003ee74 <muxInit>:
   3ee74:	e92d4010 	push	{r4, lr}
   3ee78:	e59f0598 	ldr	r0, [pc, #1432]	; 3f418 <pinmuxGetConfigValue+0x210>
   3ee7c:	e59fc598 	ldr	ip, [pc, #1432]	; 3f41c <pinmuxGetConfigValue+0x214>
   3ee80:	e580c000 	str	ip, [r0]
   3ee84:	e59f0594 	ldr	r0, [pc, #1428]	; 3f420 <pinmuxGetConfigValue+0x218>
   3ee88:	e59fc594 	ldr	ip, [pc, #1428]	; 3f424 <pinmuxGetConfigValue+0x21c>
   3ee8c:	e580c000 	str	ip, [r0]
   3ee90:	e59f0590 	ldr	r0, [pc, #1424]	; 3f428 <pinmuxGetConfigValue+0x220>
   3ee94:	e59fc590 	ldr	ip, [pc, #1424]	; 3f42c <pinmuxGetConfigValue+0x224>
   3ee98:	e580c000 	str	ip, [r0]
   3ee9c:	e59f058c 	ldr	r0, [pc, #1420]	; 3f430 <pinmuxGetConfigValue+0x228>
   3eea0:	e59fc58c 	ldr	ip, [pc, #1420]	; 3f434 <pinmuxGetConfigValue+0x22c>
   3eea4:	e580c000 	str	ip, [r0]
   3eea8:	e59f0588 	ldr	r0, [pc, #1416]	; 3f438 <pinmuxGetConfigValue+0x230>
   3eeac:	e59fc588 	ldr	ip, [pc, #1416]	; 3f43c <pinmuxGetConfigValue+0x234>
   3eeb0:	e580c000 	str	ip, [r0]
   3eeb4:	e59f0584 	ldr	r0, [pc, #1412]	; 3f440 <pinmuxGetConfigValue+0x238>
   3eeb8:	e59fc584 	ldr	ip, [pc, #1412]	; 3f444 <pinmuxGetConfigValue+0x23c>
   3eebc:	e580c000 	str	ip, [r0]
   3eec0:	e59f0580 	ldr	r0, [pc, #1408]	; 3f448 <pinmuxGetConfigValue+0x240>
   3eec4:	e59fc570 	ldr	ip, [pc, #1392]	; 3f43c <pinmuxGetConfigValue+0x234>
   3eec8:	e580c000 	str	ip, [r0]
   3eecc:	e59f0578 	ldr	r0, [pc, #1400]	; 3f44c <pinmuxGetConfigValue+0x244>
   3eed0:	e59fc578 	ldr	ip, [pc, #1400]	; 3f450 <pinmuxGetConfigValue+0x248>
   3eed4:	e580c000 	str	ip, [r0]
   3eed8:	e59f0574 	ldr	r0, [pc, #1396]	; 3f454 <pinmuxGetConfigValue+0x24c>
   3eedc:	e59fc574 	ldr	ip, [pc, #1396]	; 3f458 <pinmuxGetConfigValue+0x250>
   3eee0:	e580c000 	str	ip, [r0]
   3eee4:	e59f0570 	ldr	r0, [pc, #1392]	; 3f45c <pinmuxGetConfigValue+0x254>
   3eee8:	e59fc570 	ldr	ip, [pc, #1392]	; 3f460 <pinmuxGetConfigValue+0x258>
   3eeec:	e580c000 	str	ip, [r0]
   3eef0:	e59f056c 	ldr	r0, [pc, #1388]	; 3f464 <pinmuxGetConfigValue+0x25c>
   3eef4:	e59fc564 	ldr	ip, [pc, #1380]	; 3f460 <pinmuxGetConfigValue+0x258>
   3eef8:	e580c000 	str	ip, [r0]
   3eefc:	e59fc564 	ldr	ip, [pc, #1380]	; 3f468 <pinmuxGetConfigValue+0x260>
   3ef00:	e59cc000 	ldr	ip, [ip]
   3ef04:	e59f255c 	ldr	r2, [pc, #1372]	; 3f468 <pinmuxGetConfigValue+0x260>
   3ef08:	e59f155c 	ldr	r1, [pc, #1372]	; 3f46c <pinmuxGetConfigValue+0x264>
   3ef0c:	e3a00001 	mov	r0, #1
   3ef10:	e1c0c92c 	bic	ip, r0, ip, lsr #18
   3ef14:	e181c90c 	orr	ip, r1, ip, lsl #18
   3ef18:	e582c000 	str	ip, [r2]
   3ef1c:	e59f054c 	ldr	r0, [pc, #1356]	; 3f470 <pinmuxGetConfigValue+0x268>
   3ef20:	e59fc530 	ldr	ip, [pc, #1328]	; 3f458 <pinmuxGetConfigValue+0x250>
   3ef24:	e580c000 	str	ip, [r0]
   3ef28:	e59f0544 	ldr	r0, [pc, #1348]	; 3f474 <pinmuxGetConfigValue+0x26c>
   3ef2c:	e59fc544 	ldr	ip, [pc, #1348]	; 3f478 <pinmuxGetConfigValue+0x270>
   3ef30:	e580c000 	str	ip, [r0]
   3ef34:	e59f0540 	ldr	r0, [pc, #1344]	; 3f47c <pinmuxGetConfigValue+0x274>
   3ef38:	e59fc4fc 	ldr	ip, [pc, #1276]	; 3f43c <pinmuxGetConfigValue+0x234>
   3ef3c:	e580c000 	str	ip, [r0]
   3ef40:	e59f0538 	ldr	r0, [pc, #1336]	; 3f480 <pinmuxGetConfigValue+0x278>
   3ef44:	e59fc520 	ldr	ip, [pc, #1312]	; 3f46c <pinmuxGetConfigValue+0x264>
   3ef48:	e580c000 	str	ip, [r0]
   3ef4c:	e59f0530 	ldr	r0, [pc, #1328]	; 3f484 <pinmuxGetConfigValue+0x27c>
   3ef50:	e59fc530 	ldr	ip, [pc, #1328]	; 3f488 <pinmuxGetConfigValue+0x280>
   3ef54:	e580c000 	str	ip, [r0]
   3ef58:	e59f052c 	ldr	r0, [pc, #1324]	; 3f48c <pinmuxGetConfigValue+0x284>
   3ef5c:	e59fc508 	ldr	ip, [pc, #1288]	; 3f46c <pinmuxGetConfigValue+0x264>
   3ef60:	e580c000 	str	ip, [r0]
   3ef64:	e59f0524 	ldr	r0, [pc, #1316]	; 3f490 <pinmuxGetConfigValue+0x288>
   3ef68:	e59fc4e0 	ldr	ip, [pc, #1248]	; 3f450 <pinmuxGetConfigValue+0x248>
   3ef6c:	e580c000 	str	ip, [r0]
   3ef70:	e59f051c 	ldr	r0, [pc, #1308]	; 3f494 <pinmuxGetConfigValue+0x28c>
   3ef74:	e59fc4d4 	ldr	ip, [pc, #1236]	; 3f450 <pinmuxGetConfigValue+0x248>
   3ef78:	e580c000 	str	ip, [r0]
   3ef7c:	e59f0514 	ldr	r0, [pc, #1300]	; 3f498 <pinmuxGetConfigValue+0x290>
   3ef80:	e59fc514 	ldr	ip, [pc, #1300]	; 3f49c <pinmuxGetConfigValue+0x294>
   3ef84:	e580c000 	str	ip, [r0]
   3ef88:	e59f0510 	ldr	r0, [pc, #1296]	; 3f4a0 <pinmuxGetConfigValue+0x298>
   3ef8c:	e59fc510 	ldr	ip, [pc, #1296]	; 3f4a4 <pinmuxGetConfigValue+0x29c>
   3ef90:	e580c000 	str	ip, [r0]
   3ef94:	e59f050c 	ldr	r0, [pc, #1292]	; 3f4a8 <pinmuxGetConfigValue+0x2a0>
   3ef98:	e59fc4cc 	ldr	ip, [pc, #1228]	; 3f46c <pinmuxGetConfigValue+0x264>
   3ef9c:	e580c000 	str	ip, [r0]
   3efa0:	e59f0504 	ldr	r0, [pc, #1284]	; 3f4ac <pinmuxGetConfigValue+0x2a4>
   3efa4:	e59fc4f0 	ldr	ip, [pc, #1264]	; 3f49c <pinmuxGetConfigValue+0x294>
   3efa8:	e580c000 	str	ip, [r0]
   3efac:	e59f04fc 	ldr	r0, [pc, #1276]	; 3f4b0 <pinmuxGetConfigValue+0x2a8>
   3efb0:	e59fc498 	ldr	ip, [pc, #1176]	; 3f450 <pinmuxGetConfigValue+0x248>
   3efb4:	e580c000 	str	ip, [r0]
   3efb8:	e59f048c 	ldr	r0, [pc, #1164]	; 3f44c <pinmuxGetConfigValue+0x244>
   3efbc:	e59f1488 	ldr	r1, [pc, #1160]	; 3f44c <pinmuxGetConfigValue+0x244>
   3efc0:	e59fc484 	ldr	ip, [pc, #1156]	; 3f44c <pinmuxGetConfigValue+0x244>
   3efc4:	e5900000 	ldr	r0, [r0]
   3efc8:	e5911000 	ldr	r1, [r1]
   3efcc:	e3a03001 	mov	r3, #1
   3efd0:	e3a02001 	mov	r2, #1
   3efd4:	e59cc000 	ldr	ip, [ip]
   3efd8:	e1c210a1 	bic	r1, r2, r1, lsr #1
   3efdc:	e3a02001 	mov	r2, #1
   3efe0:	e1c304a0 	bic	r0, r3, r0, lsr #9
   3efe4:	e1a01401 	lsl	r1, r1, #8
   3efe8:	e59f34c4 	ldr	r3, [pc, #1220]	; 3f4b4 <pinmuxGetConfigValue+0x2ac>
   3efec:	e1c2c8ac 	bic	ip, r2, ip, lsr #17
   3eff0:	e1810800 	orr	r0, r1, r0, lsl #16
   3eff4:	e180cc0c 	orr	ip, r0, ip, lsl #24
   3eff8:	e38cc001 	orr	ip, ip, #1
   3effc:	e583c000 	str	ip, [r3]
   3f000:	e59f0440 	ldr	r0, [pc, #1088]	; 3f448 <pinmuxGetConfigValue+0x240>
   3f004:	e59f143c 	ldr	r1, [pc, #1084]	; 3f448 <pinmuxGetConfigValue+0x240>
   3f008:	e59fc498 	ldr	ip, [pc, #1176]	; 3f4a8 <pinmuxGetConfigValue+0x2a0>
   3f00c:	e5900000 	ldr	r0, [r0]
   3f010:	e59f244c 	ldr	r2, [pc, #1100]	; 3f464 <pinmuxGetConfigValue+0x25c>
   3f014:	e3a0e001 	mov	lr, #1
   3f018:	e5911000 	ldr	r1, [r1]
   3f01c:	e3a04001 	mov	r4, #1
   3f020:	e59cc000 	ldr	ip, [ip]
   3f024:	e1ce0ca0 	bic	r0, lr, r0, lsr #25
   3f028:	e3a0e001 	mov	lr, #1
   3f02c:	e3a03001 	mov	r3, #1
   3f030:	e5922000 	ldr	r2, [r2]
   3f034:	e1c418a1 	bic	r1, r4, r1, lsr #17
   3f038:	e1c3c8ac 	bic	ip, r3, ip, lsr #17
   3f03c:	e59f3474 	ldr	r3, [pc, #1140]	; 3f4b8 <pinmuxGetConfigValue+0x2b0>
   3f040:	e1810400 	orr	r0, r1, r0, lsl #8
   3f044:	e1ce14a2 	bic	r1, lr, r2, lsr #9
   3f048:	e180c80c 	orr	ip, r0, ip, lsl #16
   3f04c:	e18ccc01 	orr	ip, ip, r1, lsl #24
   3f050:	e583c000 	str	ip, [r3]
   3f054:	e59f0400 	ldr	r0, [pc, #1024]	; 3f45c <pinmuxGetConfigValue+0x254>
   3f058:	e59f141c 	ldr	r1, [pc, #1052]	; 3f47c <pinmuxGetConfigValue+0x274>
   3f05c:	e59fc3c4 	ldr	ip, [pc, #964]	; 3f428 <pinmuxGetConfigValue+0x220>
   3f060:	e5900000 	ldr	r0, [r0]
   3f064:	e5911000 	ldr	r1, [r1]
   3f068:	e3a03001 	mov	r3, #1
   3f06c:	e3a02001 	mov	r2, #1
   3f070:	e59cc000 	ldr	ip, [ip]
   3f074:	e1c218a1 	bic	r1, r2, r1, lsr #17
   3f078:	e3a02001 	mov	r2, #1
   3f07c:	e1c304a0 	bic	r0, r3, r0, lsr #9
   3f080:	e59f3434 	ldr	r3, [pc, #1076]	; 3f4bc <pinmuxGetConfigValue+0x2b4>
   3f084:	e1a01401 	lsl	r1, r1, #8
   3f088:	e1c2cd2c 	bic	ip, r2, ip, lsr #26
   3f08c:	e1810800 	orr	r0, r1, r0, lsl #16
   3f090:	e180cc0c 	orr	ip, r0, ip, lsl #24
   3f094:	e583c000 	str	ip, [r3]
   3f098:	e59fc3c8 	ldr	ip, [pc, #968]	; 3f468 <pinmuxGetConfigValue+0x260>
   3f09c:	e59f0384 	ldr	r0, [pc, #900]	; 3f428 <pinmuxGetConfigValue+0x220>
   3f0a0:	e59cc000 	ldr	ip, [ip]
   3f0a4:	e5900000 	ldr	r0, [r0]
   3f0a8:	e3a02001 	mov	r2, #1
   3f0ac:	e3a01001 	mov	r1, #1
   3f0b0:	e59f3408 	ldr	r3, [pc, #1032]	; 3f4c0 <pinmuxGetConfigValue+0x2b8>
   3f0b4:	e1c1c52c 	bic	ip, r1, ip, lsr #10
   3f0b8:	e59f1404 	ldr	r1, [pc, #1028]	; 3f4c4 <pinmuxGetConfigValue+0x2bc>
   3f0bc:	e1c20920 	bic	r0, r2, r0, lsr #18
   3f0c0:	e180c40c 	orr	ip, r0, ip, lsl #8
   3f0c4:	e181c00c 	orr	ip, r1, ip
   3f0c8:	e583c000 	str	ip, [r3]
   3f0cc:	e59f03f4 	ldr	r0, [pc, #1012]	; 3f4c8 <pinmuxGetConfigValue+0x2c0>
   3f0d0:	e59fc394 	ldr	ip, [pc, #916]	; 3f46c <pinmuxGetConfigValue+0x264>
   3f0d4:	e580c000 	str	ip, [r0]
   3f0d8:	e59f03ec 	ldr	r0, [pc, #1004]	; 3f4cc <pinmuxGetConfigValue+0x2c4>
   3f0dc:	e59fc388 	ldr	ip, [pc, #904]	; 3f46c <pinmuxGetConfigValue+0x264>
   3f0e0:	e580c000 	str	ip, [r0]
   3f0e4:	e59f03e4 	ldr	r0, [pc, #996]	; 3f4d0 <pinmuxGetConfigValue+0x2c8>
   3f0e8:	e3a0c001 	mov	ip, #1
   3f0ec:	e580c000 	str	ip, [r0]
   3f0f0:	e59fc3d8 	ldr	ip, [pc, #984]	; 3f4d0 <pinmuxGetConfigValue+0x2c8>
   3f0f4:	e59f03d4 	ldr	r0, [pc, #980]	; 3f4d0 <pinmuxGetConfigValue+0x2c8>
   3f0f8:	e59cc000 	ldr	ip, [ip]
   3f0fc:	e3ccccff 	bic	ip, ip, #65280	; 0xff00
   3f100:	e38ccc01 	orr	ip, ip, #256	; 0x100
   3f104:	e580c000 	str	ip, [r0]
   3f108:	e59fc3c0 	ldr	ip, [pc, #960]	; 3f4d0 <pinmuxGetConfigValue+0x2c8>
   3f10c:	e59f03bc 	ldr	r0, [pc, #956]	; 3f4d0 <pinmuxGetConfigValue+0x2c8>
   3f110:	e59cc000 	ldr	ip, [ip]
   3f114:	e3ccc8ff 	bic	ip, ip, #16711680	; 0xff0000
   3f118:	e580c000 	str	ip, [r0]
   3f11c:	e59fc3b0 	ldr	ip, [pc, #944]	; 3f4d4 <pinmuxGetConfigValue+0x2cc>
   3f120:	e59f03ac 	ldr	r0, [pc, #940]	; 3f4d4 <pinmuxGetConfigValue+0x2cc>
   3f124:	e59cc000 	ldr	ip, [ip]
   3f128:	e3ccc0ff 	bic	ip, ip, #255	; 0xff
   3f12c:	e38cc001 	orr	ip, ip, #1
   3f130:	e580c000 	str	ip, [r0]
   3f134:	e59fc394 	ldr	ip, [pc, #916]	; 3f4d0 <pinmuxGetConfigValue+0x2c8>
   3f138:	e59f0390 	ldr	r0, [pc, #912]	; 3f4d0 <pinmuxGetConfigValue+0x2c8>
   3f13c:	e59cc000 	ldr	ip, [ip]
   3f140:	e3ccc4ff 	bic	ip, ip, #-16777216	; 0xff000000
   3f144:	e38cc401 	orr	ip, ip, #16777216	; 0x1000000
   3f148:	e580c000 	str	ip, [r0]
   3f14c:	e59fc2d4 	ldr	ip, [pc, #724]	; 3f428 <pinmuxGetConfigValue+0x220>
   3f150:	e59f02d0 	ldr	r0, [pc, #720]	; 3f428 <pinmuxGetConfigValue+0x220>
   3f154:	e59cc000 	ldr	ip, [ip]
   3f158:	e3ccccff 	bic	ip, ip, #65280	; 0xff00
   3f15c:	e38ccc01 	orr	ip, ip, #256	; 0x100
   3f160:	e580c000 	str	ip, [r0]
   3f164:	e59fc32c 	ldr	ip, [pc, #812]	; 3f498 <pinmuxGetConfigValue+0x290>
   3f168:	e59f0328 	ldr	r0, [pc, #808]	; 3f498 <pinmuxGetConfigValue+0x290>
   3f16c:	e59cc000 	ldr	ip, [ip]
   3f170:	e3ccccff 	bic	ip, ip, #65280	; 0xff00
   3f174:	e38ccc01 	orr	ip, ip, #256	; 0x100
   3f178:	e580c000 	str	ip, [r0]
   3f17c:	e59fc2bc 	ldr	ip, [pc, #700]	; 3f440 <pinmuxGetConfigValue+0x238>
   3f180:	e59f02b8 	ldr	r0, [pc, #696]	; 3f440 <pinmuxGetConfigValue+0x238>
   3f184:	e59cc000 	ldr	ip, [ip]
   3f188:	e3ccccff 	bic	ip, ip, #65280	; 0xff00
   3f18c:	e38ccc01 	orr	ip, ip, #256	; 0x100
   3f190:	e580c000 	str	ip, [r0]
   3f194:	e59fc294 	ldr	ip, [pc, #660]	; 3f430 <pinmuxGetConfigValue+0x228>
   3f198:	e59f0290 	ldr	r0, [pc, #656]	; 3f430 <pinmuxGetConfigValue+0x228>
   3f19c:	e59cc000 	ldr	ip, [ip]
   3f1a0:	e3ccc0ff 	bic	ip, ip, #255	; 0xff
   3f1a4:	e38cc001 	orr	ip, ip, #1
   3f1a8:	e580c000 	str	ip, [r0]
   3f1ac:	e59fc2f8 	ldr	ip, [pc, #760]	; 3f4ac <pinmuxGetConfigValue+0x2a4>
   3f1b0:	e59f02f4 	ldr	r0, [pc, #756]	; 3f4ac <pinmuxGetConfigValue+0x2a4>
   3f1b4:	e59cc000 	ldr	ip, [ip]
   3f1b8:	e3ccccff 	bic	ip, ip, #65280	; 0xff00
   3f1bc:	e38ccc01 	orr	ip, ip, #256	; 0x100
   3f1c0:	e580c000 	str	ip, [r0]
   3f1c4:	e59fc25c 	ldr	ip, [pc, #604]	; 3f428 <pinmuxGetConfigValue+0x220>
   3f1c8:	e59f0258 	ldr	r0, [pc, #600]	; 3f428 <pinmuxGetConfigValue+0x220>
   3f1cc:	e59cc000 	ldr	ip, [ip]
   3f1d0:	e3ccc0ff 	bic	ip, ip, #255	; 0xff
   3f1d4:	e38cc001 	orr	ip, ip, #1
   3f1d8:	e580c000 	str	ip, [r0]
   3f1dc:	e59f0234 	ldr	r0, [pc, #564]	; 3f418 <pinmuxGetConfigValue+0x210>
   3f1e0:	e3a0c000 	mov	ip, #0
   3f1e4:	e580c000 	str	ip, [r0]
   3f1e8:	e59f0230 	ldr	r0, [pc, #560]	; 3f420 <pinmuxGetConfigValue+0x218>
   3f1ec:	e3a0c000 	mov	ip, #0
   3f1f0:	e580c000 	str	ip, [r0]
   3f1f4:	e3e0005f 	mvn	r0, #95	; 0x5f
   3f1f8:	e590c000 	ldr	ip, [r0]
   3f1fc:	e38cc102 	orr	ip, ip, #-2147483648	; 0x80000000
   3f200:	e580c000 	str	ip, [r0]
   3f204:	e8bd8010 	pop	{r4, pc}

0003f208 <pinmuxGetConfigValue>:
   3f208:	e24dd008 	sub	sp, sp, #8
   3f20c:	e5cd1004 	strb	r1, [sp, #4]
   3f210:	e58d0000 	str	r0, [sp]
   3f214:	e5ddc004 	ldrb	ip, [sp, #4]
   3f218:	e35c0000 	cmp	ip, #0
   3f21c:	0a00007b 	beq	3f410 <pinmuxGetConfigValue+0x208>
   3f220:	e59fc200 	ldr	ip, [pc, #512]	; 3f428 <pinmuxGetConfigValue+0x220>
   3f224:	e59d0000 	ldr	r0, [sp]
   3f228:	e59cc000 	ldr	ip, [ip]
   3f22c:	e580c000 	str	ip, [r0]
   3f230:	e59fc1f8 	ldr	ip, [pc, #504]	; 3f430 <pinmuxGetConfigValue+0x228>
   3f234:	e59d0000 	ldr	r0, [sp]
   3f238:	e59cc000 	ldr	ip, [ip]
   3f23c:	e580c004 	str	ip, [r0, #4]
   3f240:	e59fc1f0 	ldr	ip, [pc, #496]	; 3f438 <pinmuxGetConfigValue+0x230>
   3f244:	e59d0000 	ldr	r0, [sp]
   3f248:	e59cc000 	ldr	ip, [ip]
   3f24c:	e580c008 	str	ip, [r0, #8]
   3f250:	e59fc1e8 	ldr	ip, [pc, #488]	; 3f440 <pinmuxGetConfigValue+0x238>
   3f254:	e59d0000 	ldr	r0, [sp]
   3f258:	e59cc000 	ldr	ip, [ip]
   3f25c:	e580c00c 	str	ip, [r0, #12]
   3f260:	e59fc1e0 	ldr	ip, [pc, #480]	; 3f448 <pinmuxGetConfigValue+0x240>
   3f264:	e59d0000 	ldr	r0, [sp]
   3f268:	e59cc000 	ldr	ip, [ip]
   3f26c:	e580c010 	str	ip, [r0, #16]
   3f270:	e59fc1d4 	ldr	ip, [pc, #468]	; 3f44c <pinmuxGetConfigValue+0x244>
   3f274:	e59d0000 	ldr	r0, [sp]
   3f278:	e59cc000 	ldr	ip, [ip]
   3f27c:	e580c014 	str	ip, [r0, #20]
   3f280:	e59fc1cc 	ldr	ip, [pc, #460]	; 3f454 <pinmuxGetConfigValue+0x24c>
   3f284:	e59d0000 	ldr	r0, [sp]
   3f288:	e59cc000 	ldr	ip, [ip]
   3f28c:	e580c018 	str	ip, [r0, #24]
   3f290:	e59fc1c4 	ldr	ip, [pc, #452]	; 3f45c <pinmuxGetConfigValue+0x254>
   3f294:	e59d0000 	ldr	r0, [sp]
   3f298:	e59cc000 	ldr	ip, [ip]
   3f29c:	e580c01c 	str	ip, [r0, #28]
   3f2a0:	e59fc1bc 	ldr	ip, [pc, #444]	; 3f464 <pinmuxGetConfigValue+0x25c>
   3f2a4:	e59d0000 	ldr	r0, [sp]
   3f2a8:	e59cc000 	ldr	ip, [ip]
   3f2ac:	e580c020 	str	ip, [r0, #32]
   3f2b0:	e59fc1b0 	ldr	ip, [pc, #432]	; 3f468 <pinmuxGetConfigValue+0x260>
   3f2b4:	e59d0000 	ldr	r0, [sp]
   3f2b8:	e59cc000 	ldr	ip, [ip]
   3f2bc:	e580c024 	str	ip, [r0, #36]	; 0x24
   3f2c0:	e59fc1a8 	ldr	ip, [pc, #424]	; 3f470 <pinmuxGetConfigValue+0x268>
   3f2c4:	e59d0000 	ldr	r0, [sp]
   3f2c8:	e59cc000 	ldr	ip, [ip]
   3f2cc:	e580c028 	str	ip, [r0, #40]	; 0x28
   3f2d0:	e59fc19c 	ldr	ip, [pc, #412]	; 3f474 <pinmuxGetConfigValue+0x26c>
   3f2d4:	e59d0000 	ldr	r0, [sp]
   3f2d8:	e59cc000 	ldr	ip, [ip]
   3f2dc:	e580c02c 	str	ip, [r0, #44]	; 0x2c
   3f2e0:	e59fc194 	ldr	ip, [pc, #404]	; 3f47c <pinmuxGetConfigValue+0x274>
   3f2e4:	e59d0000 	ldr	r0, [sp]
   3f2e8:	e59cc000 	ldr	ip, [ip]
   3f2ec:	e580c030 	str	ip, [r0, #48]	; 0x30
   3f2f0:	e59fc188 	ldr	ip, [pc, #392]	; 3f480 <pinmuxGetConfigValue+0x278>
   3f2f4:	e59d0000 	ldr	r0, [sp]
   3f2f8:	e59cc000 	ldr	ip, [ip]
   3f2fc:	e580c034 	str	ip, [r0, #52]	; 0x34
   3f300:	e59fc17c 	ldr	ip, [pc, #380]	; 3f484 <pinmuxGetConfigValue+0x27c>
   3f304:	e59d0000 	ldr	r0, [sp]
   3f308:	e59cc000 	ldr	ip, [ip]
   3f30c:	e580c038 	str	ip, [r0, #56]	; 0x38
   3f310:	e59fc174 	ldr	ip, [pc, #372]	; 3f48c <pinmuxGetConfigValue+0x284>
   3f314:	e59d0000 	ldr	r0, [sp]
   3f318:	e59cc000 	ldr	ip, [ip]
   3f31c:	e580c03c 	str	ip, [r0, #60]	; 0x3c
   3f320:	e59fc168 	ldr	ip, [pc, #360]	; 3f490 <pinmuxGetConfigValue+0x288>
   3f324:	e59d0000 	ldr	r0, [sp]
   3f328:	e59cc000 	ldr	ip, [ip]
   3f32c:	e580c040 	str	ip, [r0, #64]	; 0x40
   3f330:	e59fc15c 	ldr	ip, [pc, #348]	; 3f494 <pinmuxGetConfigValue+0x28c>
   3f334:	e59d0000 	ldr	r0, [sp]
   3f338:	e59cc000 	ldr	ip, [ip]
   3f33c:	e580c044 	str	ip, [r0, #68]	; 0x44
   3f340:	e59fc150 	ldr	ip, [pc, #336]	; 3f498 <pinmuxGetConfigValue+0x290>
   3f344:	e59d0000 	ldr	r0, [sp]
   3f348:	e59cc000 	ldr	ip, [ip]
   3f34c:	e580c048 	str	ip, [r0, #72]	; 0x48
   3f350:	e59fc148 	ldr	ip, [pc, #328]	; 3f4a0 <pinmuxGetConfigValue+0x298>
   3f354:	e59d0000 	ldr	r0, [sp]
   3f358:	e59cc000 	ldr	ip, [ip]
   3f35c:	e580c04c 	str	ip, [r0, #76]	; 0x4c
   3f360:	e59fc140 	ldr	ip, [pc, #320]	; 3f4a8 <pinmuxGetConfigValue+0x2a0>
   3f364:	e59d0000 	ldr	r0, [sp]
   3f368:	e59cc000 	ldr	ip, [ip]
   3f36c:	e580c050 	str	ip, [r0, #80]	; 0x50
   3f370:	e59fc134 	ldr	ip, [pc, #308]	; 3f4ac <pinmuxGetConfigValue+0x2a4>
   3f374:	e59d0000 	ldr	r0, [sp]
   3f378:	e59cc000 	ldr	ip, [ip]
   3f37c:	e580c054 	str	ip, [r0, #84]	; 0x54
   3f380:	e59fc128 	ldr	ip, [pc, #296]	; 3f4b0 <pinmuxGetConfigValue+0x2a8>
   3f384:	e59d0000 	ldr	r0, [sp]
   3f388:	e59cc000 	ldr	ip, [ip]
   3f38c:	e580c058 	str	ip, [r0, #88]	; 0x58
   3f390:	e59fc11c 	ldr	ip, [pc, #284]	; 3f4b4 <pinmuxGetConfigValue+0x2ac>
   3f394:	e59d0000 	ldr	r0, [sp]
   3f398:	e59cc000 	ldr	ip, [ip]
   3f39c:	e580c05c 	str	ip, [r0, #92]	; 0x5c
   3f3a0:	e59fc110 	ldr	ip, [pc, #272]	; 3f4b8 <pinmuxGetConfigValue+0x2b0>
   3f3a4:	e59d0000 	ldr	r0, [sp]
   3f3a8:	e59cc000 	ldr	ip, [ip]
   3f3ac:	e580c060 	str	ip, [r0, #96]	; 0x60
   3f3b0:	e59fc104 	ldr	ip, [pc, #260]	; 3f4bc <pinmuxGetConfigValue+0x2b4>
   3f3b4:	e59d0000 	ldr	r0, [sp]
   3f3b8:	e59cc000 	ldr	ip, [ip]
   3f3bc:	e580c064 	str	ip, [r0, #100]	; 0x64
   3f3c0:	e59fc0f8 	ldr	ip, [pc, #248]	; 3f4c0 <pinmuxGetConfigValue+0x2b8>
   3f3c4:	e59d0000 	ldr	r0, [sp]
   3f3c8:	e59cc000 	ldr	ip, [ip]
   3f3cc:	e580c068 	str	ip, [r0, #104]	; 0x68
   3f3d0:	e59fc0f0 	ldr	ip, [pc, #240]	; 3f4c8 <pinmuxGetConfigValue+0x2c0>
   3f3d4:	e59d0000 	ldr	r0, [sp]
   3f3d8:	e59cc000 	ldr	ip, [ip]
   3f3dc:	e580c06c 	str	ip, [r0, #108]	; 0x6c
   3f3e0:	e59fc0e4 	ldr	ip, [pc, #228]	; 3f4cc <pinmuxGetConfigValue+0x2c4>
   3f3e4:	e59d0000 	ldr	r0, [sp]
   3f3e8:	e59cc000 	ldr	ip, [ip]
   3f3ec:	e580c070 	str	ip, [r0, #112]	; 0x70
   3f3f0:	e59fc0d8 	ldr	ip, [pc, #216]	; 3f4d0 <pinmuxGetConfigValue+0x2c8>
   3f3f4:	e59d0000 	ldr	r0, [sp]
   3f3f8:	e59cc000 	ldr	ip, [ip]
   3f3fc:	e580c074 	str	ip, [r0, #116]	; 0x74
   3f400:	e59fc0cc 	ldr	ip, [pc, #204]	; 3f4d4 <pinmuxGetConfigValue+0x2cc>
   3f404:	e59d0000 	ldr	r0, [sp]
   3f408:	e59cc000 	ldr	ip, [ip]
   3f40c:	e580c078 	str	ip, [r0, #120]	; 0x78
   3f410:	e28dd008 	add	sp, sp, #8
   3f414:	e12fff1e 	bx	lr
   3f418:	ffffea38 	.word	0xffffea38
   3f41c:	83e70b13 	.word	0x83e70b13
   3f420:	ffffea3c 	.word	0xffffea3c
   3f424:	95a4f1e0 	.word	0x95a4f1e0
   3f428:	ffffeb10 	.word	0xffffeb10
   3f42c:	02020000 	.word	0x02020000
   3f430:	ffffeb14 	.word	0xffffeb14
   3f434:	02020100 	.word	0x02020100
   3f438:	ffffeb18 	.word	0xffffeb18
   3f43c:	01010201 	.word	0x01010201
   3f440:	ffffeb1c 	.word	0xffffeb1c
   3f444:	02010002 	.word	0x02010002
   3f448:	ffffeb20 	.word	0xffffeb20
   3f44c:	ffffeb24 	.word	0xffffeb24
   3f450:	02010101 	.word	0x02010101
   3f454:	ffffeb28 	.word	0xffffeb28
   3f458:	02010201 	.word	0x02010201
   3f45c:	ffffeb2c 	.word	0xffffeb2c
   3f460:	02020102 	.word	0x02020102
   3f464:	ffffeb30 	.word	0xffffeb30
   3f468:	ffffeb34 	.word	0xffffeb34
   3f46c:	01010101 	.word	0x01010101
   3f470:	ffffeb38 	.word	0xffffeb38
   3f474:	ffffeb3c 	.word	0xffffeb3c
   3f478:	02020101 	.word	0x02020101
   3f47c:	ffffeb40 	.word	0xffffeb40
   3f480:	ffffeb44 	.word	0xffffeb44
   3f484:	ffffeb48 	.word	0xffffeb48
   3f488:	01010102 	.word	0x01010102
   3f48c:	ffffeb4c 	.word	0xffffeb4c
   3f490:	ffffeb50 	.word	0xffffeb50
   3f494:	ffffeb54 	.word	0xffffeb54
   3f498:	ffffeb58 	.word	0xffffeb58
   3f49c:	01010001 	.word	0x01010001
   3f4a0:	ffffeb5c 	.word	0xffffeb5c
   3f4a4:	02010102 	.word	0x02010102
   3f4a8:	ffffeb60 	.word	0xffffeb60
   3f4ac:	ffffeb64 	.word	0xffffeb64
   3f4b0:	ffffeb68 	.word	0xffffeb68
   3f4b4:	ffffeb6c 	.word	0xffffeb6c
   3f4b8:	ffffeb70 	.word	0xffffeb70
   3f4bc:	ffffeb74 	.word	0xffffeb74
   3f4c0:	ffffeb78 	.word	0xffffeb78
   3f4c4:	01010000 	.word	0x01010000
   3f4c8:	ffffeb7c 	.word	0xffffeb7c
   3f4cc:	ffffeb80 	.word	0xffffeb80
   3f4d0:	ffffeb84 	.word	0xffffeb84
   3f4d4:	ffffeb88 	.word	0xffffeb88

0003f4d8 <rtiInit>:
   3f4d8:	e59f05ac 	ldr	r0, [pc, #1452]	; 3fa8c <rtiGetConfigValue+0x104>
   3f4dc:	e3a0c000 	mov	ip, #0
   3f4e0:	e580c000 	str	ip, [r0]
   3f4e4:	e59f05a4 	ldr	r0, [pc, #1444]	; 3fa90 <rtiGetConfigValue+0x108>
   3f4e8:	e3a0c000 	mov	ip, #0
   3f4ec:	e580c000 	str	ip, [r0]
   3f4f0:	e59f059c 	ldr	r0, [pc, #1436]	; 3fa94 <rtiGetConfigValue+0x10c>
   3f4f4:	e3a0c000 	mov	ip, #0
   3f4f8:	e580c000 	str	ip, [r0]
   3f4fc:	e59f0594 	ldr	r0, [pc, #1428]	; 3fa98 <rtiGetConfigValue+0x110>
   3f500:	e3a0cc11 	mov	ip, #4352	; 0x1100
   3f504:	e580c000 	str	ip, [r0]
   3f508:	e59f058c 	ldr	r0, [pc, #1420]	; 3fa9c <rtiGetConfigValue+0x114>
   3f50c:	e3a0c000 	mov	ip, #0
   3f510:	e580c000 	str	ip, [r0]
   3f514:	e59f0584 	ldr	r0, [pc, #1412]	; 3faa0 <rtiGetConfigValue+0x118>
   3f518:	e3a0c000 	mov	ip, #0
   3f51c:	e580c000 	str	ip, [r0]
   3f520:	e59f057c 	ldr	r0, [pc, #1404]	; 3faa4 <rtiGetConfigValue+0x11c>
   3f524:	e3a0c008 	mov	ip, #8
   3f528:	e580c000 	str	ip, [r0]
   3f52c:	e59f0574 	ldr	r0, [pc, #1396]	; 3faa8 <rtiGetConfigValue+0x120>
   3f530:	e3a0c000 	mov	ip, #0
   3f534:	e580c000 	str	ip, [r0]
   3f538:	e59f056c 	ldr	r0, [pc, #1388]	; 3faac <rtiGetConfigValue+0x124>
   3f53c:	e3a0c000 	mov	ip, #0
   3f540:	e580c000 	str	ip, [r0]
   3f544:	e59f0564 	ldr	r0, [pc, #1380]	; 3fab0 <rtiGetConfigValue+0x128>
   3f548:	e3a0c008 	mov	ip, #8
   3f54c:	e580c000 	str	ip, [r0]
   3f550:	e59f055c 	ldr	r0, [pc, #1372]	; 3fab4 <rtiGetConfigValue+0x12c>
   3f554:	e59fc55c 	ldr	ip, [pc, #1372]	; 3fab8 <rtiGetConfigValue+0x130>
   3f558:	e580c000 	str	ip, [r0]
   3f55c:	e59f0558 	ldr	r0, [pc, #1368]	; 3fabc <rtiGetConfigValue+0x134>
   3f560:	e59fc550 	ldr	ip, [pc, #1360]	; 3fab8 <rtiGetConfigValue+0x130>
   3f564:	e580c000 	str	ip, [r0]
   3f568:	e59f0550 	ldr	r0, [pc, #1360]	; 3fac0 <rtiGetConfigValue+0x138>
   3f56c:	e30cc350 	movw	ip, #50000	; 0xc350
   3f570:	e580c000 	str	ip, [r0]
   3f574:	e59f0548 	ldr	r0, [pc, #1352]	; 3fac4 <rtiGetConfigValue+0x13c>
   3f578:	e30cc350 	movw	ip, #50000	; 0xc350
   3f57c:	e580c000 	str	ip, [r0]
   3f580:	e59f0540 	ldr	r0, [pc, #1344]	; 3fac8 <rtiGetConfigValue+0x140>
   3f584:	e59fc540 	ldr	ip, [pc, #1344]	; 3facc <rtiGetConfigValue+0x144>
   3f588:	e580c000 	str	ip, [r0]
   3f58c:	e59f053c 	ldr	r0, [pc, #1340]	; 3fad0 <rtiGetConfigValue+0x148>
   3f590:	e59fc534 	ldr	ip, [pc, #1332]	; 3facc <rtiGetConfigValue+0x144>
   3f594:	e580c000 	str	ip, [r0]
   3f598:	e59f0534 	ldr	r0, [pc, #1332]	; 3fad4 <rtiGetConfigValue+0x14c>
   3f59c:	e59fc534 	ldr	ip, [pc, #1332]	; 3fad8 <rtiGetConfigValue+0x150>
   3f5a0:	e580c000 	str	ip, [r0]
   3f5a4:	e59f0530 	ldr	r0, [pc, #1328]	; 3fadc <rtiGetConfigValue+0x154>
   3f5a8:	e59fc528 	ldr	ip, [pc, #1320]	; 3fad8 <rtiGetConfigValue+0x150>
   3f5ac:	e580c000 	str	ip, [r0]
   3f5b0:	e59f0528 	ldr	r0, [pc, #1320]	; 3fae0 <rtiGetConfigValue+0x158>
   3f5b4:	e59fc528 	ldr	ip, [pc, #1320]	; 3fae4 <rtiGetConfigValue+0x15c>
   3f5b8:	e580c000 	str	ip, [r0]
   3f5bc:	e59f0524 	ldr	r0, [pc, #1316]	; 3fae8 <rtiGetConfigValue+0x160>
   3f5c0:	e59fc524 	ldr	ip, [pc, #1316]	; 3faec <rtiGetConfigValue+0x164>
   3f5c4:	e580c000 	str	ip, [r0]
   3f5c8:	e12fff1e 	bx	lr

0003f5cc <rtiStartCounter>:
   3f5cc:	e24dd008 	sub	sp, sp, #8
   3f5d0:	e58d0000 	str	r0, [sp]
   3f5d4:	e59f14b0 	ldr	r1, [pc, #1200]	; 3fa8c <rtiGetConfigValue+0x104>
   3f5d8:	e59dc000 	ldr	ip, [sp]
   3f5dc:	e5910000 	ldr	r0, [r1]
   3f5e0:	e3a02001 	mov	r2, #1
   3f5e4:	e20cc003 	and	ip, ip, #3
   3f5e8:	e180cc12 	orr	ip, r0, r2, lsl ip
   3f5ec:	e581c000 	str	ip, [r1]
   3f5f0:	e28dd008 	add	sp, sp, #8
   3f5f4:	e12fff1e 	bx	lr

0003f5f8 <rtiStopCounter>:
   3f5f8:	e24dd008 	sub	sp, sp, #8
   3f5fc:	e58d0000 	str	r0, [sp]
   3f600:	e59f1484 	ldr	r1, [pc, #1156]	; 3fa8c <rtiGetConfigValue+0x104>
   3f604:	e59dc000 	ldr	ip, [sp]
   3f608:	e5910000 	ldr	r0, [r1]
   3f60c:	e3a02001 	mov	r2, #1
   3f610:	e20cc003 	and	ip, ip, #3
   3f614:	e1c0cc12 	bic	ip, r0, r2, lsl ip
   3f618:	e581c000 	str	ip, [r1]
   3f61c:	e28dd008 	add	sp, sp, #8
   3f620:	e12fff1e 	bx	lr

0003f624 <rtiResetCounter>:
   3f624:	e24dd008 	sub	sp, sp, #8
   3f628:	e58d0000 	str	r0, [sp]
   3f62c:	e3a0c000 	mov	ip, #0
   3f630:	e58dc004 	str	ip, [sp, #4]
   3f634:	e59f1450 	ldr	r1, [pc, #1104]	; 3fa8c <rtiGetConfigValue+0x104>
   3f638:	e59dc000 	ldr	ip, [sp]
   3f63c:	e5911000 	ldr	r1, [r1]
   3f640:	e3a00001 	mov	r0, #1
   3f644:	e20cc003 	and	ip, ip, #3
   3f648:	e1110c10 	tst	r1, r0, lsl ip
   3f64c:	1a00000a 	bne	3f67c <rtiResetCounter+0x58>
   3f650:	e59dc000 	ldr	ip, [sp]
   3f654:	e1a0c28c 	lsl	ip, ip, #5
   3f658:	e24cce3f 	sub	ip, ip, #1008	; 0x3f0
   3f65c:	e3a00000 	mov	r0, #0
   3f660:	e58c0004 	str	r0, [ip, #4]
   3f664:	e59f1434 	ldr	r1, [pc, #1076]	; 3faa0 <rtiGetConfigValue+0x118>
   3f668:	e59dc000 	ldr	ip, [sp]
   3f66c:	e3a00000 	mov	r0, #0
   3f670:	e781028c 	str	r0, [r1, ip, lsl #5]
   3f674:	e3a0c001 	mov	ip, #1
   3f678:	e58dc004 	str	ip, [sp, #4]
   3f67c:	e59d0004 	ldr	r0, [sp, #4]
   3f680:	e28dd008 	add	sp, sp, #8
   3f684:	e12fff1e 	bx	lr

0003f688 <rtiSetPeriod>:
   3f688:	e24dd008 	sub	sp, sp, #8
   3f68c:	e58d1004 	str	r1, [sp, #4]
   3f690:	e58d0000 	str	r0, [sp]
   3f694:	e59dc000 	ldr	ip, [sp]
   3f698:	e1a0c18c 	lsl	ip, ip, #3
   3f69c:	e24c0e3b 	sub	r0, ip, #944	; 0x3b0
   3f6a0:	e59dc004 	ldr	ip, [sp, #4]
   3f6a4:	e580c004 	str	ip, [r0, #4]
   3f6a8:	e28dd008 	add	sp, sp, #8
   3f6ac:	e12fff1e 	bx	lr

0003f6b0 <rtiGetPeriod>:
   3f6b0:	e24dd008 	sub	sp, sp, #8
   3f6b4:	e58d0000 	str	r0, [sp]
   3f6b8:	e59dc000 	ldr	ip, [sp]
   3f6bc:	e1a0c18c 	lsl	ip, ip, #3
   3f6c0:	e24cce3b 	sub	ip, ip, #944	; 0x3b0
   3f6c4:	e59cc004 	ldr	ip, [ip, #4]
   3f6c8:	e58dc004 	str	ip, [sp, #4]
   3f6cc:	e59d0004 	ldr	r0, [sp, #4]
   3f6d0:	e28dd008 	add	sp, sp, #8
   3f6d4:	e12fff1e 	bx	lr

0003f6d8 <rtiGetCurrentTick>:
   3f6d8:	e24dd018 	sub	sp, sp, #24
   3f6dc:	e58d0000 	str	r0, [sp]
   3f6e0:	e59f13b0 	ldr	r1, [pc, #944]	; 3fa98 <rtiGetConfigValue+0x110>
   3f6e4:	e59dc000 	ldr	ip, [sp]
   3f6e8:	e5911000 	ldr	r1, [r1]
   3f6ec:	e3a00001 	mov	r0, #1
   3f6f0:	e1a0c10c 	lsl	ip, ip, #2
   3f6f4:	e1110c10 	tst	r1, r0, lsl ip
   3f6f8:	0a000001 	beq	3f704 <rtiGetCurrentTick+0x2c>
   3f6fc:	e3a0c001 	mov	ip, #1
   3f700:	ea000000 	b	3f708 <rtiGetCurrentTick+0x30>
   3f704:	e3a0c000 	mov	ip, #0
   3f708:	e58dc008 	str	ip, [sp, #8]
   3f70c:	e59f038c 	ldr	r0, [pc, #908]	; 3faa0 <rtiGetConfigValue+0x118>
   3f710:	e59dc008 	ldr	ip, [sp, #8]
   3f714:	e790c28c 	ldr	ip, [r0, ip, lsl #5]
   3f718:	e58dc00c 	str	ip, [sp, #12]
   3f71c:	e59dc000 	ldr	ip, [sp]
   3f720:	e59f038c 	ldr	r0, [pc, #908]	; 3fab4 <rtiGetConfigValue+0x12c>
   3f724:	e790c18c 	ldr	ip, [r0, ip, lsl #3]
   3f728:	e58dc010 	str	ip, [sp, #16]
   3f72c:	e59dc000 	ldr	ip, [sp]
   3f730:	e1a0c18c 	lsl	ip, ip, #3
   3f734:	e24cce3b 	sub	ip, ip, #944	; 0x3b0
   3f738:	e59cc004 	ldr	ip, [ip, #4]
   3f73c:	e58dc014 	str	ip, [sp, #20]
   3f740:	e59dc010 	ldr	ip, [sp, #16]
   3f744:	e59d000c 	ldr	r0, [sp, #12]
   3f748:	e59d1014 	ldr	r1, [sp, #20]
   3f74c:	e040c00c 	sub	ip, r0, ip
   3f750:	e081c00c 	add	ip, r1, ip
   3f754:	e58dc004 	str	ip, [sp, #4]
   3f758:	e59d0004 	ldr	r0, [sp, #4]
   3f75c:	e28dd018 	add	sp, sp, #24
   3f760:	e12fff1e 	bx	lr

0003f764 <dwdInit>:
   3f764:	e24dd008 	sub	sp, sp, #8
   3f768:	e1cd00b0 	strh	r0, [sp]
   3f76c:	e59f037c 	ldr	r0, [pc, #892]	; 3faf0 <rtiGetConfigValue+0x168>
   3f770:	e3a0c0ff 	mov	ip, #255	; 0xff
   3f774:	e580c000 	str	ip, [r0]
   3f778:	e59f0374 	ldr	r0, [pc, #884]	; 3faf4 <rtiGetConfigValue+0x16c>
   3f77c:	e1ddc0b0 	ldrh	ip, [sp]
   3f780:	e580c000 	str	ip, [r0]
   3f784:	e28dd008 	add	sp, sp, #8
   3f788:	e12fff1e 	bx	lr

0003f78c <dwwdInit>:
   3f78c:	e24dd008 	sub	sp, sp, #8
   3f790:	e58d2000 	str	r2, [sp]
   3f794:	e1cd10b4 	strh	r1, [sp, #4]
   3f798:	e5cd0006 	strb	r0, [sp, #6]
   3f79c:	e59f034c 	ldr	r0, [pc, #844]	; 3faf0 <rtiGetConfigValue+0x168>
   3f7a0:	e3a0c0ff 	mov	ip, #255	; 0xff
   3f7a4:	e580c000 	str	ip, [r0]
   3f7a8:	e59f0348 	ldr	r0, [pc, #840]	; 3faf8 <rtiGetConfigValue+0x170>
   3f7ac:	e59dc000 	ldr	ip, [sp]
   3f7b0:	e580c000 	str	ip, [r0]
   3f7b4:	e59f0338 	ldr	r0, [pc, #824]	; 3faf4 <rtiGetConfigValue+0x16c>
   3f7b8:	e1ddc0b4 	ldrh	ip, [sp, #4]
   3f7bc:	e580c000 	str	ip, [r0]
   3f7c0:	e59f0334 	ldr	r0, [pc, #820]	; 3fafc <rtiGetConfigValue+0x174>
   3f7c4:	e5ddc006 	ldrb	ip, [sp, #6]
   3f7c8:	e580c000 	str	ip, [r0]
   3f7cc:	e28dd008 	add	sp, sp, #8
   3f7d0:	e12fff1e 	bx	lr

0003f7d4 <dwwdGetCurrentDownCounter>:
   3f7d4:	e59fc324 	ldr	ip, [pc, #804]	; 3fb00 <rtiGetConfigValue+0x178>
   3f7d8:	e59c0000 	ldr	r0, [ip]
   3f7dc:	e12fff1e 	bx	lr

0003f7e0 <dwdCounterEnable>:
   3f7e0:	e59f031c 	ldr	r0, [pc, #796]	; 3fb04 <rtiGetConfigValue+0x17c>
   3f7e4:	e59fc31c 	ldr	ip, [pc, #796]	; 3fb08 <rtiGetConfigValue+0x180>
   3f7e8:	e580c000 	str	ip, [r0]
   3f7ec:	e12fff1e 	bx	lr

0003f7f0 <dwdSetPreload>:
   3f7f0:	e24dd008 	sub	sp, sp, #8
   3f7f4:	e1cd00b0 	strh	r0, [sp]
   3f7f8:	e59f02f4 	ldr	r0, [pc, #756]	; 3faf4 <rtiGetConfigValue+0x16c>
   3f7fc:	e1ddc0b0 	ldrh	ip, [sp]
   3f800:	e580c000 	str	ip, [r0]
   3f804:	e28dd008 	add	sp, sp, #8
   3f808:	e12fff1e 	bx	lr

0003f80c <dwdReset>:
   3f80c:	e59f02f8 	ldr	r0, [pc, #760]	; 3fb0c <rtiGetConfigValue+0x184>
   3f810:	e30ec51a 	movw	ip, #58650	; 0xe51a
   3f814:	e580c000 	str	ip, [r0]
   3f818:	e59f02ec 	ldr	r0, [pc, #748]	; 3fb0c <rtiGetConfigValue+0x184>
   3f81c:	e30ac35c 	movw	ip, #41820	; 0xa35c
   3f820:	e580c000 	str	ip, [r0]
   3f824:	e12fff1e 	bx	lr

0003f828 <dwdGenerateSysReset>:
   3f828:	e59f02dc 	ldr	r0, [pc, #732]	; 3fb0c <rtiGetConfigValue+0x184>
   3f82c:	e30ec51a 	movw	ip, #58650	; 0xe51a
   3f830:	e580c000 	str	ip, [r0]
   3f834:	e59f02d0 	ldr	r0, [pc, #720]	; 3fb0c <rtiGetConfigValue+0x184>
   3f838:	e302c345 	movw	ip, #9029	; 0x2345
   3f83c:	e580c000 	str	ip, [r0]
   3f840:	e12fff1e 	bx	lr

0003f844 <IsdwdKeySequenceCorrect>:
   3f844:	e24dd008 	sub	sp, sp, #8
   3f848:	e59fc2a0 	ldr	ip, [pc, #672]	; 3faf0 <rtiGetConfigValue+0x168>
   3f84c:	e59cc000 	ldr	ip, [ip]
   3f850:	e31c0004 	tst	ip, #4
   3f854:	0a000002 	beq	3f864 <IsdwdKeySequenceCorrect+0x20>
   3f858:	e3a0c000 	mov	ip, #0
   3f85c:	e5cdc000 	strb	ip, [sp]
   3f860:	ea000001 	b	3f86c <IsdwdKeySequenceCorrect+0x28>
   3f864:	e3a0c001 	mov	ip, #1
   3f868:	e5cdc000 	strb	ip, [sp]
   3f86c:	e5dd0000 	ldrb	r0, [sp]
   3f870:	e28dd008 	add	sp, sp, #8
   3f874:	e12fff1e 	bx	lr

0003f878 <dwdGetStatus>:
   3f878:	e24dd008 	sub	sp, sp, #8
   3f87c:	e59fc26c 	ldr	ip, [pc, #620]	; 3faf0 <rtiGetConfigValue+0x168>
   3f880:	e59cc000 	ldr	ip, [ip]
   3f884:	e31c0002 	tst	ip, #2
   3f888:	0a000002 	beq	3f898 <dwdGetStatus+0x20>
   3f88c:	e3a0c001 	mov	ip, #1
   3f890:	e5cdc000 	strb	ip, [sp]
   3f894:	ea000001 	b	3f8a0 <dwdGetStatus+0x28>
   3f898:	e3a0c000 	mov	ip, #0
   3f89c:	e5cdc000 	strb	ip, [sp]
   3f8a0:	e5dd0000 	ldrb	r0, [sp]
   3f8a4:	e28dd008 	add	sp, sp, #8
   3f8a8:	e12fff1e 	bx	lr

0003f8ac <dwdClearFlag>:
   3f8ac:	e59f023c 	ldr	r0, [pc, #572]	; 3faf0 <rtiGetConfigValue+0x168>
   3f8b0:	e3a0c0ff 	mov	ip, #255	; 0xff
   3f8b4:	e580c000 	str	ip, [r0]
   3f8b8:	e12fff1e 	bx	lr

0003f8bc <dwdGetViolationStatus>:
   3f8bc:	e24dd008 	sub	sp, sp, #8
   3f8c0:	e59fc228 	ldr	ip, [pc, #552]	; 3faf0 <rtiGetConfigValue+0x168>
   3f8c4:	e59cc000 	ldr	ip, [ip]
   3f8c8:	e31c0004 	tst	ip, #4
   3f8cc:	0a000002 	beq	3f8dc <dwdGetViolationStatus+0x20>
   3f8d0:	e3a0c004 	mov	ip, #4
   3f8d4:	e5cdc000 	strb	ip, [sp]
   3f8d8:	ea000016 	b	3f938 <dwdGetViolationStatus+0x7c>
   3f8dc:	e59fc20c 	ldr	ip, [pc, #524]	; 3faf0 <rtiGetConfigValue+0x168>
   3f8e0:	e59cc000 	ldr	ip, [ip]
   3f8e4:	e31c0008 	tst	ip, #8
   3f8e8:	0a000002 	beq	3f8f8 <dwdGetViolationStatus+0x3c>
   3f8ec:	e3a0c003 	mov	ip, #3
   3f8f0:	e5cdc000 	strb	ip, [sp]
   3f8f4:	ea00000f 	b	3f938 <dwdGetViolationStatus+0x7c>
   3f8f8:	e59fc1f0 	ldr	ip, [pc, #496]	; 3faf0 <rtiGetConfigValue+0x168>
   3f8fc:	e59cc000 	ldr	ip, [ip]
   3f900:	e31c0010 	tst	ip, #16
   3f904:	0a000002 	beq	3f914 <dwdGetViolationStatus+0x58>
   3f908:	e3a0c002 	mov	ip, #2
   3f90c:	e5cdc000 	strb	ip, [sp]
   3f910:	ea000008 	b	3f938 <dwdGetViolationStatus+0x7c>
   3f914:	e59fc1d4 	ldr	ip, [pc, #468]	; 3faf0 <rtiGetConfigValue+0x168>
   3f918:	e59cc000 	ldr	ip, [ip]
   3f91c:	e31c0020 	tst	ip, #32
   3f920:	0a000002 	beq	3f930 <dwdGetViolationStatus+0x74>
   3f924:	e3a0c001 	mov	ip, #1
   3f928:	e5cdc000 	strb	ip, [sp]
   3f92c:	ea000001 	b	3f938 <dwdGetViolationStatus+0x7c>
   3f930:	e3a0c000 	mov	ip, #0
   3f934:	e5cdc000 	strb	ip, [sp]
   3f938:	e5dd0000 	ldrb	r0, [sp]
   3f93c:	e28dd008 	add	sp, sp, #8
   3f940:	e12fff1e 	bx	lr

0003f944 <rtiEnableNotification>:
   3f944:	e24dd008 	sub	sp, sp, #8
   3f948:	e58d0000 	str	r0, [sp]
   3f94c:	e59f018c 	ldr	r0, [pc, #396]	; 3fae0 <rtiGetConfigValue+0x158>
   3f950:	e59dc000 	ldr	ip, [sp]
   3f954:	e580c000 	str	ip, [r0]
   3f958:	e59f01b0 	ldr	r0, [pc, #432]	; 3fb10 <rtiGetConfigValue+0x188>
   3f95c:	e59dc000 	ldr	ip, [sp]
   3f960:	e580c000 	str	ip, [r0]
   3f964:	e28dd008 	add	sp, sp, #8
   3f968:	e12fff1e 	bx	lr

0003f96c <rtiDisableNotification>:
   3f96c:	e24dd008 	sub	sp, sp, #8
   3f970:	e58d0000 	str	r0, [sp]
   3f974:	e59f016c 	ldr	r0, [pc, #364]	; 3fae8 <rtiGetConfigValue+0x160>
   3f978:	e59dc000 	ldr	ip, [sp]
   3f97c:	e580c000 	str	ip, [r0]
   3f980:	e28dd008 	add	sp, sp, #8
   3f984:	e12fff1e 	bx	lr

0003f988 <rtiGetConfigValue>:
   3f988:	e24dd008 	sub	sp, sp, #8
   3f98c:	e5cd1004 	strb	r1, [sp, #4]
   3f990:	e58d0000 	str	r0, [sp]
   3f994:	e5ddc004 	ldrb	ip, [sp, #4]
   3f998:	e35c0000 	cmp	ip, #0
   3f99c:	1a000018 	bne	3fa04 <rtiGetConfigValue+0x7c>
   3f9a0:	e59dc000 	ldr	ip, [sp]
   3f9a4:	e3a00000 	mov	r0, #0
   3f9a8:	e58c0000 	str	r0, [ip]
   3f9ac:	e59dc000 	ldr	ip, [sp]
   3f9b0:	e3a00000 	mov	r0, #0
   3f9b4:	e58c0004 	str	r0, [ip, #4]
   3f9b8:	e59dc000 	ldr	ip, [sp]
   3f9bc:	e3a00000 	mov	r0, #0
   3f9c0:	e58c0008 	str	r0, [ip, #8]
   3f9c4:	e59dc000 	ldr	ip, [sp]
   3f9c8:	e3a00c11 	mov	r0, #4352	; 0x1100
   3f9cc:	e58c000c 	str	r0, [ip, #12]
   3f9d0:	e59dc000 	ldr	ip, [sp]
   3f9d4:	e59f00dc 	ldr	r0, [pc, #220]	; 3fab8 <rtiGetConfigValue+0x130>
   3f9d8:	e58c0010 	str	r0, [ip, #16]
   3f9dc:	e59dc000 	ldr	ip, [sp]
   3f9e0:	e30c0350 	movw	r0, #50000	; 0xc350
   3f9e4:	e58c0014 	str	r0, [ip, #20]
   3f9e8:	e59dc000 	ldr	ip, [sp]
   3f9ec:	e59f00d8 	ldr	r0, [pc, #216]	; 3facc <rtiGetConfigValue+0x144>
   3f9f0:	e58c0018 	str	r0, [ip, #24]
   3f9f4:	e59dc000 	ldr	ip, [sp]
   3f9f8:	e59f00d8 	ldr	r0, [pc, #216]	; 3fad8 <rtiGetConfigValue+0x150>
   3f9fc:	e58c001c 	str	r0, [ip, #28]
   3fa00:	ea00001f 	b	3fa84 <rtiGetConfigValue+0xfc>
   3fa04:	e59fc080 	ldr	ip, [pc, #128]	; 3fa8c <rtiGetConfigValue+0x104>
   3fa08:	e59d0000 	ldr	r0, [sp]
   3fa0c:	e59cc000 	ldr	ip, [ip]
   3fa10:	e580c000 	str	ip, [r0]
   3fa14:	e59fc074 	ldr	ip, [pc, #116]	; 3fa90 <rtiGetConfigValue+0x108>
   3fa18:	e59d0000 	ldr	r0, [sp]
   3fa1c:	e59cc000 	ldr	ip, [ip]
   3fa20:	e580c004 	str	ip, [r0, #4]
   3fa24:	e59fc068 	ldr	ip, [pc, #104]	; 3fa94 <rtiGetConfigValue+0x10c>
   3fa28:	e59d0000 	ldr	r0, [sp]
   3fa2c:	e59cc000 	ldr	ip, [ip]
   3fa30:	e580c008 	str	ip, [r0, #8]
   3fa34:	e59fc05c 	ldr	ip, [pc, #92]	; 3fa98 <rtiGetConfigValue+0x110>
   3fa38:	e59d0000 	ldr	r0, [sp]
   3fa3c:	e59cc000 	ldr	ip, [ip]
   3fa40:	e580c00c 	str	ip, [r0, #12]
   3fa44:	e59fc070 	ldr	ip, [pc, #112]	; 3fabc <rtiGetConfigValue+0x134>
   3fa48:	e59d0000 	ldr	r0, [sp]
   3fa4c:	e59cc000 	ldr	ip, [ip]
   3fa50:	e580c010 	str	ip, [r0, #16]
   3fa54:	e59fc068 	ldr	ip, [pc, #104]	; 3fac4 <rtiGetConfigValue+0x13c>
   3fa58:	e59d0000 	ldr	r0, [sp]
   3fa5c:	e59cc000 	ldr	ip, [ip]
   3fa60:	e580c014 	str	ip, [r0, #20]
   3fa64:	e59fc064 	ldr	ip, [pc, #100]	; 3fad0 <rtiGetConfigValue+0x148>
   3fa68:	e59d0000 	ldr	r0, [sp]
   3fa6c:	e59cc000 	ldr	ip, [ip]
   3fa70:	e580c018 	str	ip, [r0, #24]
   3fa74:	e59fc060 	ldr	ip, [pc, #96]	; 3fadc <rtiGetConfigValue+0x154>
   3fa78:	e59d0000 	ldr	r0, [sp]
   3fa7c:	e59cc000 	ldr	ip, [ip]
   3fa80:	e580c01c 	str	ip, [r0, #28]
   3fa84:	e28dd008 	add	sp, sp, #8
   3fa88:	e12fff1e 	bx	lr
   3fa8c:	fffffc00 	.word	0xfffffc00
   3fa90:	fffffc04 	.word	0xfffffc04
   3fa94:	fffffc08 	.word	0xfffffc08
   3fa98:	fffffc0c 	.word	0xfffffc0c
   3fa9c:	fffffc14 	.word	0xfffffc14
   3faa0:	fffffc10 	.word	0xfffffc10
   3faa4:	fffffc18 	.word	0xfffffc18
   3faa8:	fffffc34 	.word	0xfffffc34
   3faac:	fffffc30 	.word	0xfffffc30
   3fab0:	fffffc38 	.word	0xfffffc38
   3fab4:	fffffc50 	.word	0xfffffc50
   3fab8:	001e8480 	.word	0x001e8480
   3fabc:	fffffc54 	.word	0xfffffc54
   3fac0:	fffffc58 	.word	0xfffffc58
   3fac4:	fffffc5c 	.word	0xfffffc5c
   3fac8:	fffffc60 	.word	0xfffffc60
   3facc:	00013880 	.word	0x00013880
   3fad0:	fffffc64 	.word	0xfffffc64
   3fad4:	fffffc68 	.word	0xfffffc68
   3fad8:	000186a0 	.word	0x000186a0
   3fadc:	fffffc6c 	.word	0xfffffc6c
   3fae0:	fffffc88 	.word	0xfffffc88
   3fae4:	0007000f 	.word	0x0007000f
   3fae8:	fffffc84 	.word	0xfffffc84
   3faec:	00070f0f 	.word	0x00070f0f
   3faf0:	fffffc98 	.word	0xfffffc98
   3faf4:	fffffc94 	.word	0xfffffc94
   3faf8:	fffffca8 	.word	0xfffffca8
   3fafc:	fffffca4 	.word	0xfffffca4
   3fb00:	fffffca0 	.word	0xfffffca0
   3fb04:	fffffc90 	.word	0xfffffc90
   3fb08:	a98559da 	.word	0xa98559da
   3fb0c:	fffffc9c 	.word	0xfffffc9c
   3fb10:	fffffc80 	.word	0xfffffc80

0003fb14 <sciLowLevelInterrupt>:
   3fb14:	e92d500f 	push	{r0, r1, r2, r3, ip, lr}
   3fb18:	eef8ca10 	vmrs	ip, fpexc
   3fb1c:	e92d1000 	stmfd	sp!, {ip}
   3fb20:	eef1ca10 	vmrs	ip, fpscr
   3fb24:	e92d1000 	stmfd	sp!, {ip}
   3fb28:	ed2d0b10 	vpush	{d0-d7}
   3fb2c:	e24dd010 	sub	sp, sp, #16
   3fb30:	e59fc54c 	ldr	ip, [pc, #1356]	; 40084 <linHighLevelInterrupt+0x1d0>
   3fb34:	e59cc000 	ldr	ip, [ip]
   3fb38:	e58dc000 	str	ip, [sp]
   3fb3c:	ea000050 	b	3fc84 <sciLowLevelInterrupt+0x170>
   3fb40:	e59f0540 	ldr	r0, [pc, #1344]	; 40088 <linHighLevelInterrupt+0x1d4>
   3fb44:	e3a01002 	mov	r1, #2
   3fb48:	eb000645 	bl	41464 <sciNotification>
   3fb4c:	ea00005c 	b	3fcc4 <sciLowLevelInterrupt+0x1b0>
   3fb50:	e59f0530 	ldr	r0, [pc, #1328]	; 40088 <linHighLevelInterrupt+0x1d4>
   3fb54:	e3a01401 	mov	r1, #16777216	; 0x1000000
   3fb58:	eb000641 	bl	41464 <sciNotification>
   3fb5c:	ea000058 	b	3fcc4 <sciLowLevelInterrupt+0x1b0>
   3fb60:	e59f0520 	ldr	r0, [pc, #1312]	; 40088 <linHighLevelInterrupt+0x1d4>
   3fb64:	e3a01301 	mov	r1, #67108864	; 0x4000000
   3fb68:	eb00063d 	bl	41464 <sciNotification>
   3fb6c:	ea000054 	b	3fcc4 <sciLowLevelInterrupt+0x1b0>
   3fb70:	e59f0510 	ldr	r0, [pc, #1296]	; 40088 <linHighLevelInterrupt+0x1d4>
   3fb74:	e3a01001 	mov	r1, #1
   3fb78:	eb000639 	bl	41464 <sciNotification>
   3fb7c:	ea000050 	b	3fcc4 <sciLowLevelInterrupt+0x1b0>
   3fb80:	e59f0500 	ldr	r0, [pc, #1280]	; 40088 <linHighLevelInterrupt+0x1d4>
   3fb84:	e3a01402 	mov	r1, #33554432	; 0x2000000
   3fb88:	eb000635 	bl	41464 <sciNotification>
   3fb8c:	ea00004c 	b	3fcc4 <sciLowLevelInterrupt+0x1b0>
   3fb90:	e59fc4f4 	ldr	ip, [pc, #1268]	; 4008c <linHighLevelInterrupt+0x1d8>
   3fb94:	e59cc000 	ldr	ip, [ip]
   3fb98:	e5cdc004 	strb	ip, [sp, #4]
   3fb9c:	e59fc4ec 	ldr	ip, [pc, #1260]	; 40090 <linHighLevelInterrupt+0x1dc>
   3fba0:	e59cc000 	ldr	ip, [ip]
   3fba4:	e35c0000 	cmp	ip, #0
   3fba8:	0a000045 	beq	3fcc4 <sciLowLevelInterrupt+0x1b0>
   3fbac:	e59fc4e0 	ldr	ip, [pc, #1248]	; 40094 <linHighLevelInterrupt+0x1e0>
   3fbb0:	e59c0000 	ldr	r0, [ip]
   3fbb4:	e5ddc004 	ldrb	ip, [sp, #4]
   3fbb8:	e5c0c000 	strb	ip, [r0]
   3fbbc:	e59f04d4 	ldr	r0, [pc, #1236]	; 40098 <linHighLevelInterrupt+0x1e4>
   3fbc0:	e590c010 	ldr	ip, [r0, #16]
   3fbc4:	e28cc001 	add	ip, ip, #1
   3fbc8:	e580c010 	str	ip, [r0, #16]
   3fbcc:	e59f04c4 	ldr	r0, [pc, #1220]	; 40098 <linHighLevelInterrupt+0x1e4>
   3fbd0:	e590c008 	ldr	ip, [r0, #8]
   3fbd4:	e24cc001 	sub	ip, ip, #1
   3fbd8:	e580c008 	str	ip, [r0, #8]
   3fbdc:	e59fc4ac 	ldr	ip, [pc, #1196]	; 40090 <linHighLevelInterrupt+0x1dc>
   3fbe0:	e59cc000 	ldr	ip, [ip]
   3fbe4:	e35c0000 	cmp	ip, #0
   3fbe8:	1a000035 	bne	3fcc4 <sciLowLevelInterrupt+0x1b0>
   3fbec:	e59f0494 	ldr	r0, [pc, #1172]	; 40088 <linHighLevelInterrupt+0x1d4>
   3fbf0:	e3a01c02 	mov	r1, #512	; 0x200
   3fbf4:	eb00061a 	bl	41464 <sciNotification>
   3fbf8:	ea000031 	b	3fcc4 <sciLowLevelInterrupt+0x1b0>
   3fbfc:	e59f0494 	ldr	r0, [pc, #1172]	; 40098 <linHighLevelInterrupt+0x1e4>
   3fc00:	e590c004 	ldr	ip, [r0, #4]
   3fc04:	e24cc001 	sub	ip, ip, #1
   3fc08:	e580c004 	str	ip, [r0, #4]
   3fc0c:	e59fc488 	ldr	ip, [pc, #1160]	; 4009c <linHighLevelInterrupt+0x1e8>
   3fc10:	e59cc000 	ldr	ip, [ip]
   3fc14:	e35c0000 	cmp	ip, #0
   3fc18:	0a00000b 	beq	3fc4c <sciLowLevelInterrupt+0x138>
   3fc1c:	e59fc47c 	ldr	ip, [pc, #1148]	; 400a0 <linHighLevelInterrupt+0x1ec>
   3fc20:	e59cc000 	ldr	ip, [ip]
   3fc24:	e5dcc000 	ldrb	ip, [ip]
   3fc28:	e5cdc008 	strb	ip, [sp, #8]
   3fc2c:	e59f0470 	ldr	r0, [pc, #1136]	; 400a4 <linHighLevelInterrupt+0x1f0>
   3fc30:	e5ddc008 	ldrb	ip, [sp, #8]
   3fc34:	e580c000 	str	ip, [r0]
   3fc38:	e59f0458 	ldr	r0, [pc, #1112]	; 40098 <linHighLevelInterrupt+0x1e4>
   3fc3c:	e590c00c 	ldr	ip, [r0, #12]
   3fc40:	e28cc001 	add	ip, ip, #1
   3fc44:	e580c00c 	str	ip, [r0, #12]
   3fc48:	ea00001d 	b	3fcc4 <sciLowLevelInterrupt+0x1b0>
   3fc4c:	e59f0454 	ldr	r0, [pc, #1108]	; 400a8 <linHighLevelInterrupt+0x1f4>
   3fc50:	e3a0cc01 	mov	ip, #256	; 0x100
   3fc54:	e580c000 	str	ip, [r0]
   3fc58:	e59f0428 	ldr	r0, [pc, #1064]	; 40088 <linHighLevelInterrupt+0x1d4>
   3fc5c:	e3a01c01 	mov	r1, #256	; 0x100
   3fc60:	eb0005ff 	bl	41464 <sciNotification>
   3fc64:	ea000016 	b	3fcc4 <sciLowLevelInterrupt+0x1b0>
   3fc68:	e59fc444 	ldr	ip, [pc, #1092]	; 400b4 <linHighLevelInterrupt+0x200>
   3fc6c:	e59f1438 	ldr	r1, [pc, #1080]	; 400ac <linHighLevelInterrupt+0x1f8>
   3fc70:	e59f0438 	ldr	r0, [pc, #1080]	; 400b0 <linHighLevelInterrupt+0x1fc>
   3fc74:	e59cc000 	ldr	ip, [ip]
   3fc78:	e000c00c 	and	ip, r0, ip
   3fc7c:	e581c000 	str	ip, [r1]
   3fc80:	ea00000f 	b	3fcc4 <sciLowLevelInterrupt+0x1b0>
   3fc84:	e59dc000 	ldr	ip, [sp]
   3fc88:	e25cc001 	subs	ip, ip, #1
   3fc8c:	0affffab 	beq	3fb40 <sciLowLevelInterrupt+0x2c>
   3fc90:	e25cc002 	subs	ip, ip, #2
   3fc94:	0affffad 	beq	3fb50 <sciLowLevelInterrupt+0x3c>
   3fc98:	e25cc003 	subs	ip, ip, #3
   3fc9c:	0affffaf 	beq	3fb60 <sciLowLevelInterrupt+0x4c>
   3fca0:	e25cc001 	subs	ip, ip, #1
   3fca4:	0affffb1 	beq	3fb70 <sciLowLevelInterrupt+0x5c>
   3fca8:	e25cc002 	subs	ip, ip, #2
   3fcac:	0affffb3 	beq	3fb80 <sciLowLevelInterrupt+0x6c>
   3fcb0:	e25cc002 	subs	ip, ip, #2
   3fcb4:	0affffb5 	beq	3fb90 <sciLowLevelInterrupt+0x7c>
   3fcb8:	e25cc001 	subs	ip, ip, #1
   3fcbc:	0affffce 	beq	3fbfc <sciLowLevelInterrupt+0xe8>
   3fcc0:	eaffffe8 	b	3fc68 <sciLowLevelInterrupt+0x154>
   3fcc4:	e28dd010 	add	sp, sp, #16
   3fcc8:	ecbd0b10 	vpop	{d0-d7}
   3fccc:	e8bd1000 	ldmfd	sp!, {ip}
   3fcd0:	eee1ca10 	vmsr	fpscr, ip
   3fcd4:	e8bd1000 	ldmfd	sp!, {ip}
   3fcd8:	eee8ca10 	vmsr	fpexc, ip
   3fcdc:	e8bd500f 	pop	{r0, r1, r2, r3, ip, lr}
   3fce0:	e25ef004 	subs	pc, lr, #4

0003fce4 <linLowLevelInterrupt>:
   3fce4:	e92d500f 	push	{r0, r1, r2, r3, ip, lr}
   3fce8:	eef8ca10 	vmrs	ip, fpexc
   3fcec:	e92d1000 	stmfd	sp!, {ip}
   3fcf0:	eef1ca10 	vmrs	ip, fpscr
   3fcf4:	e92d1000 	stmfd	sp!, {ip}
   3fcf8:	ed2d0b10 	vpush	{d0-d7}
   3fcfc:	e24dd010 	sub	sp, sp, #16
   3fd00:	e59fc3b0 	ldr	ip, [pc, #944]	; 400b8 <linHighLevelInterrupt+0x204>
   3fd04:	e59cc000 	ldr	ip, [ip]
   3fd08:	e58dc000 	str	ip, [sp]
   3fd0c:	ea000050 	b	3fe54 <linLowLevelInterrupt+0x170>
   3fd10:	e59f03a4 	ldr	r0, [pc, #932]	; 400bc <linHighLevelInterrupt+0x208>
   3fd14:	e3a01002 	mov	r1, #2
   3fd18:	eb0005d1 	bl	41464 <sciNotification>
   3fd1c:	ea00005c 	b	3fe94 <linLowLevelInterrupt+0x1b0>
   3fd20:	e59f0394 	ldr	r0, [pc, #916]	; 400bc <linHighLevelInterrupt+0x208>
   3fd24:	e3a01401 	mov	r1, #16777216	; 0x1000000
   3fd28:	eb0005cd 	bl	41464 <sciNotification>
   3fd2c:	ea000058 	b	3fe94 <linLowLevelInterrupt+0x1b0>
   3fd30:	e59f0384 	ldr	r0, [pc, #900]	; 400bc <linHighLevelInterrupt+0x208>
   3fd34:	e3a01301 	mov	r1, #67108864	; 0x4000000
   3fd38:	eb0005c9 	bl	41464 <sciNotification>
   3fd3c:	ea000054 	b	3fe94 <linLowLevelInterrupt+0x1b0>
   3fd40:	e59f0374 	ldr	r0, [pc, #884]	; 400bc <linHighLevelInterrupt+0x208>
   3fd44:	e3a01001 	mov	r1, #1
   3fd48:	eb0005c5 	bl	41464 <sciNotification>
   3fd4c:	ea000050 	b	3fe94 <linLowLevelInterrupt+0x1b0>
   3fd50:	e59f0364 	ldr	r0, [pc, #868]	; 400bc <linHighLevelInterrupt+0x208>
   3fd54:	e3a01402 	mov	r1, #33554432	; 0x2000000
   3fd58:	eb0005c1 	bl	41464 <sciNotification>
   3fd5c:	ea00004c 	b	3fe94 <linLowLevelInterrupt+0x1b0>
   3fd60:	e59fc358 	ldr	ip, [pc, #856]	; 400c0 <linHighLevelInterrupt+0x20c>
   3fd64:	e59cc000 	ldr	ip, [ip]
   3fd68:	e5cdc004 	strb	ip, [sp, #4]
   3fd6c:	e59fc350 	ldr	ip, [pc, #848]	; 400c4 <linHighLevelInterrupt+0x210>
   3fd70:	e59cc000 	ldr	ip, [ip]
   3fd74:	e35c0000 	cmp	ip, #0
   3fd78:	0a000045 	beq	3fe94 <linLowLevelInterrupt+0x1b0>
   3fd7c:	e59fc344 	ldr	ip, [pc, #836]	; 400c8 <linHighLevelInterrupt+0x214>
   3fd80:	e59c0000 	ldr	r0, [ip]
   3fd84:	e5ddc004 	ldrb	ip, [sp, #4]
   3fd88:	e5c0c000 	strb	ip, [r0]
   3fd8c:	e59f0304 	ldr	r0, [pc, #772]	; 40098 <linHighLevelInterrupt+0x1e4>
   3fd90:	e590c024 	ldr	ip, [r0, #36]	; 0x24
   3fd94:	e28cc001 	add	ip, ip, #1
   3fd98:	e580c024 	str	ip, [r0, #36]	; 0x24
   3fd9c:	e59f02f4 	ldr	r0, [pc, #756]	; 40098 <linHighLevelInterrupt+0x1e4>
   3fda0:	e590c01c 	ldr	ip, [r0, #28]
   3fda4:	e24cc001 	sub	ip, ip, #1
   3fda8:	e580c01c 	str	ip, [r0, #28]
   3fdac:	e59fc310 	ldr	ip, [pc, #784]	; 400c4 <linHighLevelInterrupt+0x210>
   3fdb0:	e59cc000 	ldr	ip, [ip]
   3fdb4:	e35c0000 	cmp	ip, #0
   3fdb8:	1a000035 	bne	3fe94 <linLowLevelInterrupt+0x1b0>
   3fdbc:	e59f02f8 	ldr	r0, [pc, #760]	; 400bc <linHighLevelInterrupt+0x208>
   3fdc0:	e3a01c02 	mov	r1, #512	; 0x200
   3fdc4:	eb0005a6 	bl	41464 <sciNotification>
   3fdc8:	ea000031 	b	3fe94 <linLowLevelInterrupt+0x1b0>
   3fdcc:	e59f02c4 	ldr	r0, [pc, #708]	; 40098 <linHighLevelInterrupt+0x1e4>
   3fdd0:	e590c018 	ldr	ip, [r0, #24]
   3fdd4:	e24cc001 	sub	ip, ip, #1
   3fdd8:	e580c018 	str	ip, [r0, #24]
   3fddc:	e59fc2e8 	ldr	ip, [pc, #744]	; 400cc <linHighLevelInterrupt+0x218>
   3fde0:	e59cc000 	ldr	ip, [ip]
   3fde4:	e35c0000 	cmp	ip, #0
   3fde8:	0a00000b 	beq	3fe1c <linLowLevelInterrupt+0x138>
   3fdec:	e59fc2dc 	ldr	ip, [pc, #732]	; 400d0 <linHighLevelInterrupt+0x21c>
   3fdf0:	e59cc000 	ldr	ip, [ip]
   3fdf4:	e5dcc000 	ldrb	ip, [ip]
   3fdf8:	e5cdc008 	strb	ip, [sp, #8]
   3fdfc:	e59f02d0 	ldr	r0, [pc, #720]	; 400d4 <linHighLevelInterrupt+0x220>
   3fe00:	e5ddc008 	ldrb	ip, [sp, #8]
   3fe04:	e580c000 	str	ip, [r0]
   3fe08:	e59f0288 	ldr	r0, [pc, #648]	; 40098 <linHighLevelInterrupt+0x1e4>
   3fe0c:	e590c020 	ldr	ip, [r0, #32]
   3fe10:	e28cc001 	add	ip, ip, #1
   3fe14:	e580c020 	str	ip, [r0, #32]
   3fe18:	ea00001d 	b	3fe94 <linLowLevelInterrupt+0x1b0>
   3fe1c:	e59f02b4 	ldr	r0, [pc, #692]	; 400d8 <linHighLevelInterrupt+0x224>
   3fe20:	e3a0cc01 	mov	ip, #256	; 0x100
   3fe24:	e580c000 	str	ip, [r0]
   3fe28:	e59f028c 	ldr	r0, [pc, #652]	; 400bc <linHighLevelInterrupt+0x208>
   3fe2c:	e3a01c01 	mov	r1, #256	; 0x100
   3fe30:	eb00058b 	bl	41464 <sciNotification>
   3fe34:	ea000016 	b	3fe94 <linLowLevelInterrupt+0x1b0>
   3fe38:	e59fc2a0 	ldr	ip, [pc, #672]	; 400e0 <linHighLevelInterrupt+0x22c>
   3fe3c:	e59f1298 	ldr	r1, [pc, #664]	; 400dc <linHighLevelInterrupt+0x228>
   3fe40:	e59f0268 	ldr	r0, [pc, #616]	; 400b0 <linHighLevelInterrupt+0x1fc>
   3fe44:	e59cc000 	ldr	ip, [ip]
   3fe48:	e000c00c 	and	ip, r0, ip
   3fe4c:	e581c000 	str	ip, [r1]
   3fe50:	ea00000f 	b	3fe94 <linLowLevelInterrupt+0x1b0>
   3fe54:	e59dc000 	ldr	ip, [sp]
   3fe58:	e25cc001 	subs	ip, ip, #1
   3fe5c:	0affffab 	beq	3fd10 <linLowLevelInterrupt+0x2c>
   3fe60:	e25cc002 	subs	ip, ip, #2
   3fe64:	0affffad 	beq	3fd20 <linLowLevelInterrupt+0x3c>
   3fe68:	e25cc003 	subs	ip, ip, #3
   3fe6c:	0affffaf 	beq	3fd30 <linLowLevelInterrupt+0x4c>
   3fe70:	e25cc001 	subs	ip, ip, #1
   3fe74:	0affffb1 	beq	3fd40 <linLowLevelInterrupt+0x5c>
   3fe78:	e25cc002 	subs	ip, ip, #2
   3fe7c:	0affffb3 	beq	3fd50 <linLowLevelInterrupt+0x6c>
   3fe80:	e25cc002 	subs	ip, ip, #2
   3fe84:	0affffb5 	beq	3fd60 <linLowLevelInterrupt+0x7c>
   3fe88:	e25cc001 	subs	ip, ip, #1
   3fe8c:	0affffce 	beq	3fdcc <linLowLevelInterrupt+0xe8>
   3fe90:	eaffffe8 	b	3fe38 <linLowLevelInterrupt+0x154>
   3fe94:	e28dd010 	add	sp, sp, #16
   3fe98:	ecbd0b10 	vpop	{d0-d7}
   3fe9c:	e8bd1000 	ldmfd	sp!, {ip}
   3fea0:	eee1ca10 	vmsr	fpscr, ip
   3fea4:	e8bd1000 	ldmfd	sp!, {ip}
   3fea8:	eee8ca10 	vmsr	fpexc, ip
   3feac:	e8bd500f 	pop	{r0, r1, r2, r3, ip, lr}
   3feb0:	e25ef004 	subs	pc, lr, #4

0003feb4 <linHighLevelInterrupt>:
   3feb4:	e92d500f 	push	{r0, r1, r2, r3, ip, lr}
   3feb8:	eef8ca10 	vmrs	ip, fpexc
   3febc:	e92d1000 	stmfd	sp!, {ip}
   3fec0:	eef1ca10 	vmrs	ip, fpscr
   3fec4:	e92d1000 	stmfd	sp!, {ip}
   3fec8:	ed2d0b10 	vpush	{d0-d7}
   3fecc:	e24dd010 	sub	sp, sp, #16
   3fed0:	e59fc20c 	ldr	ip, [pc, #524]	; 400e4 <linHighLevelInterrupt+0x230>
   3fed4:	e59cc000 	ldr	ip, [ip]
   3fed8:	e58dc000 	str	ip, [sp]
   3fedc:	ea000050 	b	40024 <linHighLevelInterrupt+0x170>
   3fee0:	e59f01d4 	ldr	r0, [pc, #468]	; 400bc <linHighLevelInterrupt+0x208>
   3fee4:	e3a01002 	mov	r1, #2
   3fee8:	eb00055d 	bl	41464 <sciNotification>
   3feec:	ea00005c 	b	40064 <linHighLevelInterrupt+0x1b0>
   3fef0:	e59f01c4 	ldr	r0, [pc, #452]	; 400bc <linHighLevelInterrupt+0x208>
   3fef4:	e3a01401 	mov	r1, #16777216	; 0x1000000
   3fef8:	eb000559 	bl	41464 <sciNotification>
   3fefc:	ea000058 	b	40064 <linHighLevelInterrupt+0x1b0>
   3ff00:	e59f01b4 	ldr	r0, [pc, #436]	; 400bc <linHighLevelInterrupt+0x208>
   3ff04:	e3a01301 	mov	r1, #67108864	; 0x4000000
   3ff08:	eb000555 	bl	41464 <sciNotification>
   3ff0c:	ea000054 	b	40064 <linHighLevelInterrupt+0x1b0>
   3ff10:	e59f01a4 	ldr	r0, [pc, #420]	; 400bc <linHighLevelInterrupt+0x208>
   3ff14:	e3a01001 	mov	r1, #1
   3ff18:	eb000551 	bl	41464 <sciNotification>
   3ff1c:	ea000050 	b	40064 <linHighLevelInterrupt+0x1b0>
   3ff20:	e59f0194 	ldr	r0, [pc, #404]	; 400bc <linHighLevelInterrupt+0x208>
   3ff24:	e3a01402 	mov	r1, #33554432	; 0x2000000
   3ff28:	eb00054d 	bl	41464 <sciNotification>
   3ff2c:	ea00004c 	b	40064 <linHighLevelInterrupt+0x1b0>
   3ff30:	e59fc188 	ldr	ip, [pc, #392]	; 400c0 <linHighLevelInterrupt+0x20c>
   3ff34:	e59cc000 	ldr	ip, [ip]
   3ff38:	e5cdc004 	strb	ip, [sp, #4]
   3ff3c:	e59fc180 	ldr	ip, [pc, #384]	; 400c4 <linHighLevelInterrupt+0x210>
   3ff40:	e59cc000 	ldr	ip, [ip]
   3ff44:	e35c0000 	cmp	ip, #0
   3ff48:	0a000045 	beq	40064 <linHighLevelInterrupt+0x1b0>
   3ff4c:	e59fc174 	ldr	ip, [pc, #372]	; 400c8 <linHighLevelInterrupt+0x214>
   3ff50:	e59c0000 	ldr	r0, [ip]
   3ff54:	e5ddc004 	ldrb	ip, [sp, #4]
   3ff58:	e5c0c000 	strb	ip, [r0]
   3ff5c:	e59f0134 	ldr	r0, [pc, #308]	; 40098 <linHighLevelInterrupt+0x1e4>
   3ff60:	e590c024 	ldr	ip, [r0, #36]	; 0x24
   3ff64:	e28cc001 	add	ip, ip, #1
   3ff68:	e580c024 	str	ip, [r0, #36]	; 0x24
   3ff6c:	e59f0124 	ldr	r0, [pc, #292]	; 40098 <linHighLevelInterrupt+0x1e4>
   3ff70:	e590c01c 	ldr	ip, [r0, #28]
   3ff74:	e24cc001 	sub	ip, ip, #1
   3ff78:	e580c01c 	str	ip, [r0, #28]
   3ff7c:	e59fc140 	ldr	ip, [pc, #320]	; 400c4 <linHighLevelInterrupt+0x210>
   3ff80:	e59cc000 	ldr	ip, [ip]
   3ff84:	e35c0000 	cmp	ip, #0
   3ff88:	1a000035 	bne	40064 <linHighLevelInterrupt+0x1b0>
   3ff8c:	e59f0128 	ldr	r0, [pc, #296]	; 400bc <linHighLevelInterrupt+0x208>
   3ff90:	e3a01c02 	mov	r1, #512	; 0x200
   3ff94:	eb000532 	bl	41464 <sciNotification>
   3ff98:	ea000031 	b	40064 <linHighLevelInterrupt+0x1b0>
   3ff9c:	e59f00f4 	ldr	r0, [pc, #244]	; 40098 <linHighLevelInterrupt+0x1e4>
   3ffa0:	e590c018 	ldr	ip, [r0, #24]
   3ffa4:	e24cc001 	sub	ip, ip, #1
   3ffa8:	e580c018 	str	ip, [r0, #24]
   3ffac:	e59fc118 	ldr	ip, [pc, #280]	; 400cc <linHighLevelInterrupt+0x218>
   3ffb0:	e59cc000 	ldr	ip, [ip]
   3ffb4:	e35c0000 	cmp	ip, #0
   3ffb8:	0a00000b 	beq	3ffec <linHighLevelInterrupt+0x138>
   3ffbc:	e59fc10c 	ldr	ip, [pc, #268]	; 400d0 <linHighLevelInterrupt+0x21c>
   3ffc0:	e59cc000 	ldr	ip, [ip]
   3ffc4:	e5dcc000 	ldrb	ip, [ip]
   3ffc8:	e5cdc008 	strb	ip, [sp, #8]
   3ffcc:	e59f0100 	ldr	r0, [pc, #256]	; 400d4 <linHighLevelInterrupt+0x220>
   3ffd0:	e5ddc008 	ldrb	ip, [sp, #8]
   3ffd4:	e580c000 	str	ip, [r0]
   3ffd8:	e59f00b8 	ldr	r0, [pc, #184]	; 40098 <linHighLevelInterrupt+0x1e4>
   3ffdc:	e590c020 	ldr	ip, [r0, #32]
   3ffe0:	e28cc001 	add	ip, ip, #1
   3ffe4:	e580c020 	str	ip, [r0, #32]
   3ffe8:	ea00001d 	b	40064 <linHighLevelInterrupt+0x1b0>
   3ffec:	e59f00e4 	ldr	r0, [pc, #228]	; 400d8 <linHighLevelInterrupt+0x224>
   3fff0:	e3a0cc01 	mov	ip, #256	; 0x100
   3fff4:	e580c000 	str	ip, [r0]
   3fff8:	e59f00bc 	ldr	r0, [pc, #188]	; 400bc <linHighLevelInterrupt+0x208>
   3fffc:	e3a01c01 	mov	r1, #256	; 0x100
   40000:	eb000517 	bl	41464 <sciNotification>
   40004:	ea000016 	b	40064 <linHighLevelInterrupt+0x1b0>
   40008:	e59fc0d0 	ldr	ip, [pc, #208]	; 400e0 <linHighLevelInterrupt+0x22c>
   4000c:	e59f10c8 	ldr	r1, [pc, #200]	; 400dc <linHighLevelInterrupt+0x228>
   40010:	e59f0098 	ldr	r0, [pc, #152]	; 400b0 <linHighLevelInterrupt+0x1fc>
   40014:	e59cc000 	ldr	ip, [ip]
   40018:	e1c0c00c 	bic	ip, r0, ip
   4001c:	e581c000 	str	ip, [r1]
   40020:	ea00000f 	b	40064 <linHighLevelInterrupt+0x1b0>
   40024:	e59dc000 	ldr	ip, [sp]
   40028:	e25cc001 	subs	ip, ip, #1
   4002c:	0affffab 	beq	3fee0 <linHighLevelInterrupt+0x2c>
   40030:	e25cc002 	subs	ip, ip, #2
   40034:	0affffad 	beq	3fef0 <linHighLevelInterrupt+0x3c>
   40038:	e25cc003 	subs	ip, ip, #3
   4003c:	0affffaf 	beq	3ff00 <linHighLevelInterrupt+0x4c>
   40040:	e25cc001 	subs	ip, ip, #1
   40044:	0affffb1 	beq	3ff10 <linHighLevelInterrupt+0x5c>
   40048:	e25cc002 	subs	ip, ip, #2
   4004c:	0affffb3 	beq	3ff20 <linHighLevelInterrupt+0x6c>
   40050:	e25cc002 	subs	ip, ip, #2
   40054:	0affffb5 	beq	3ff30 <linHighLevelInterrupt+0x7c>
   40058:	e25cc001 	subs	ip, ip, #1
   4005c:	0affffce 	beq	3ff9c <linHighLevelInterrupt+0xe8>
   40060:	eaffffe8 	b	40008 <linHighLevelInterrupt+0x154>
   40064:	e28dd010 	add	sp, sp, #16
   40068:	ecbd0b10 	vpop	{d0-d7}
   4006c:	e8bd1000 	ldmfd	sp!, {ip}
   40070:	eee1ca10 	vmsr	fpscr, ip
   40074:	e8bd1000 	ldmfd	sp!, {ip}
   40078:	eee8ca10 	vmsr	fpexc, ip
   4007c:	e8bd500f 	pop	{r0, r1, r2, r3, ip, lr}
   40080:	e25ef004 	subs	pc, lr, #4
   40084:	fff7e524 	.word	0xfff7e524
   40088:	fff7e500 	.word	0xfff7e500
   4008c:	fff7e534 	.word	0xfff7e534
   40090:	080123a0 	.word	0x080123a0
   40094:	080123a8 	.word	0x080123a8
   40098:	08012398 	.word	0x08012398
   4009c:	0801239c 	.word	0x0801239c
   400a0:	080123a4 	.word	0x080123a4
   400a4:	fff7e538 	.word	0xfff7e538
   400a8:	fff7e510 	.word	0xfff7e510
   400ac:	fff7e51c 	.word	0xfff7e51c
   400b0:	07000303 	.word	0x07000303
   400b4:	fff7e514 	.word	0xfff7e514
   400b8:	fff7e424 	.word	0xfff7e424
   400bc:	fff7e400 	.word	0xfff7e400
   400c0:	fff7e434 	.word	0xfff7e434
   400c4:	080123b4 	.word	0x080123b4
   400c8:	080123bc 	.word	0x080123bc
   400cc:	080123b0 	.word	0x080123b0
   400d0:	080123b8 	.word	0x080123b8
   400d4:	fff7e438 	.word	0xfff7e438
   400d8:	fff7e410 	.word	0xfff7e410
   400dc:	fff7e41c 	.word	0xfff7e41c
   400e0:	fff7e414 	.word	0xfff7e414
   400e4:	fff7e420 	.word	0xfff7e420

000400e8 <esmInit>:
   400e8:	e59f0564 	ldr	r0, [pc, #1380]	; 40654 <esmGetConfigValue+0x104>
   400ec:	e3e0c000 	mvn	ip, #0
   400f0:	e580c000 	str	ip, [r0]
   400f4:	e59f055c 	ldr	r0, [pc, #1372]	; 40658 <esmGetConfigValue+0x108>
   400f8:	e3e0c000 	mvn	ip, #0
   400fc:	e580c000 	str	ip, [r0]
   40100:	e59f0554 	ldr	r0, [pc, #1364]	; 4065c <esmGetConfigValue+0x10c>
   40104:	e3e0c000 	mvn	ip, #0
   40108:	e580c000 	str	ip, [r0]
   4010c:	e59f054c 	ldr	r0, [pc, #1356]	; 40660 <esmGetConfigValue+0x110>
   40110:	e3e0c000 	mvn	ip, #0
   40114:	e580c000 	str	ip, [r0]
   40118:	e59f0544 	ldr	r0, [pc, #1348]	; 40664 <esmGetConfigValue+0x114>
   4011c:	e3e0c000 	mvn	ip, #0
   40120:	e580c000 	str	ip, [r0]
   40124:	e59f053c 	ldr	r0, [pc, #1340]	; 40668 <esmGetConfigValue+0x118>
   40128:	e3e0c000 	mvn	ip, #0
   4012c:	e580c000 	str	ip, [r0]
   40130:	e59f0534 	ldr	r0, [pc, #1332]	; 4066c <esmGetConfigValue+0x11c>
   40134:	e3e0c000 	mvn	ip, #0
   40138:	e580c000 	str	ip, [r0]
   4013c:	e59f052c 	ldr	r0, [pc, #1324]	; 40670 <esmGetConfigValue+0x120>
   40140:	e3e0c000 	mvn	ip, #0
   40144:	e580c000 	str	ip, [r0]
   40148:	e59f0524 	ldr	r0, [pc, #1316]	; 40674 <esmGetConfigValue+0x124>
   4014c:	e3e0c000 	mvn	ip, #0
   40150:	e580c000 	str	ip, [r0]
   40154:	e59f051c 	ldr	r0, [pc, #1308]	; 40678 <esmGetConfigValue+0x128>
   40158:	e303cfff 	movw	ip, #16383	; 0x3fff
   4015c:	e580c000 	str	ip, [r0]
   40160:	e59fc514 	ldr	ip, [pc, #1300]	; 4067c <esmGetConfigValue+0x12c>
   40164:	e59cc000 	ldr	ip, [ip]
   40168:	e35c0000 	cmp	ip, #0
   4016c:	1a000003 	bne	40180 <esmInit+0x98>
   40170:	e59f0508 	ldr	r0, [pc, #1288]	; 40680 <esmGetConfigValue+0x130>
   40174:	e3a0c005 	mov	ip, #5
   40178:	e580c000 	str	ip, [r0]
   4017c:	ea000002 	b	4018c <esmInit+0xa4>
   40180:	e59f04f8 	ldr	r0, [pc, #1272]	; 40680 <esmGetConfigValue+0x130>
   40184:	e3a0c000 	mov	ip, #0
   40188:	e580c000 	str	ip, [r0]
   4018c:	e59f04f0 	ldr	r0, [pc, #1264]	; 40684 <esmGetConfigValue+0x134>
   40190:	e3e0c000 	mvn	ip, #0
   40194:	e580c000 	str	ip, [r0]
   40198:	e59f04e8 	ldr	r0, [pc, #1256]	; 40688 <esmGetConfigValue+0x138>
   4019c:	e3e0c000 	mvn	ip, #0
   401a0:	e580c000 	str	ip, [r0]
   401a4:	e59f04e0 	ldr	r0, [pc, #1248]	; 4068c <esmGetConfigValue+0x13c>
   401a8:	e3a0c000 	mov	ip, #0
   401ac:	e580c000 	str	ip, [r0]
   401b0:	e59f04d8 	ldr	r0, [pc, #1240]	; 40690 <esmGetConfigValue+0x140>
   401b4:	e3a0c000 	mov	ip, #0
   401b8:	e580c000 	str	ip, [r0]
   401bc:	e59f04d0 	ldr	r0, [pc, #1232]	; 40694 <esmGetConfigValue+0x144>
   401c0:	e3a0c000 	mov	ip, #0
   401c4:	e580c000 	str	ip, [r0]
   401c8:	e59f04c8 	ldr	r0, [pc, #1224]	; 40698 <esmGetConfigValue+0x148>
   401cc:	e3a0c000 	mov	ip, #0
   401d0:	e580c000 	str	ip, [r0]
   401d4:	e59f04c0 	ldr	r0, [pc, #1216]	; 4069c <esmGetConfigValue+0x14c>
   401d8:	e3a0c000 	mov	ip, #0
   401dc:	e580c000 	str	ip, [r0]
   401e0:	e59f04b8 	ldr	r0, [pc, #1208]	; 406a0 <esmGetConfigValue+0x150>
   401e4:	e3a0c000 	mov	ip, #0
   401e8:	e580c000 	str	ip, [r0]
   401ec:	e12fff1e 	bx	lr

000401f0 <esmError>:
   401f0:	e24dd008 	sub	sp, sp, #8
   401f4:	e59fc480 	ldr	ip, [pc, #1152]	; 4067c <esmGetConfigValue+0x12c>
   401f8:	e59cc000 	ldr	ip, [ip]
   401fc:	e58dc000 	str	ip, [sp]
   40200:	e59d0000 	ldr	r0, [sp]
   40204:	e28dd008 	add	sp, sp, #8
   40208:	e12fff1e 	bx	lr

0004020c <esmEnableError>:
   4020c:	e24dd008 	sub	sp, sp, #8
   40210:	e88d0003 	stm	sp, {r0, r1}
   40214:	e59f047c 	ldr	r0, [pc, #1148]	; 40698 <esmGetConfigValue+0x148>
   40218:	e59dc000 	ldr	ip, [sp]
   4021c:	e580c000 	str	ip, [r0]
   40220:	e59f046c 	ldr	r0, [pc, #1132]	; 40694 <esmGetConfigValue+0x144>
   40224:	e59dc004 	ldr	ip, [sp, #4]
   40228:	e580c000 	str	ip, [r0]
   4022c:	e28dd008 	add	sp, sp, #8
   40230:	e12fff1e 	bx	lr

00040234 <esmDisableError>:
   40234:	e24dd008 	sub	sp, sp, #8
   40238:	e88d0003 	stm	sp, {r0, r1}
   4023c:	e59f0414 	ldr	r0, [pc, #1044]	; 40658 <esmGetConfigValue+0x108>
   40240:	e59dc000 	ldr	ip, [sp]
   40244:	e580c000 	str	ip, [r0]
   40248:	e59f0404 	ldr	r0, [pc, #1028]	; 40654 <esmGetConfigValue+0x104>
   4024c:	e59dc004 	ldr	ip, [sp, #4]
   40250:	e580c000 	str	ip, [r0]
   40254:	e28dd008 	add	sp, sp, #8
   40258:	e12fff1e 	bx	lr

0004025c <esmTriggerErrorPinReset>:
   4025c:	e59f041c 	ldr	r0, [pc, #1052]	; 40680 <esmGetConfigValue+0x130>
   40260:	e3a0c005 	mov	ip, #5
   40264:	e580c000 	str	ip, [r0]
   40268:	e12fff1e 	bx	lr

0004026c <esmActivateNormalOperation>:
   4026c:	e59f040c 	ldr	r0, [pc, #1036]	; 40680 <esmGetConfigValue+0x130>
   40270:	e3a0c000 	mov	ip, #0
   40274:	e580c000 	str	ip, [r0]
   40278:	e12fff1e 	bx	lr

0004027c <esmEnableInterrupt>:
   4027c:	e24dd008 	sub	sp, sp, #8
   40280:	e88d0003 	stm	sp, {r0, r1}
   40284:	e59f0414 	ldr	r0, [pc, #1044]	; 406a0 <esmGetConfigValue+0x150>
   40288:	e59dc000 	ldr	ip, [sp]
   4028c:	e580c000 	str	ip, [r0]
   40290:	e59f0404 	ldr	r0, [pc, #1028]	; 4069c <esmGetConfigValue+0x14c>
   40294:	e59dc004 	ldr	ip, [sp, #4]
   40298:	e580c000 	str	ip, [r0]
   4029c:	e28dd008 	add	sp, sp, #8
   402a0:	e12fff1e 	bx	lr

000402a4 <esmDisableInterrupt>:
   402a4:	e24dd008 	sub	sp, sp, #8
   402a8:	e88d0003 	stm	sp, {r0, r1}
   402ac:	e59f03ac 	ldr	r0, [pc, #940]	; 40660 <esmGetConfigValue+0x110>
   402b0:	e59dc000 	ldr	ip, [sp]
   402b4:	e580c000 	str	ip, [r0]
   402b8:	e59f039c 	ldr	r0, [pc, #924]	; 4065c <esmGetConfigValue+0x10c>
   402bc:	e59dc004 	ldr	ip, [sp, #4]
   402c0:	e580c000 	str	ip, [r0]
   402c4:	e28dd008 	add	sp, sp, #8
   402c8:	e12fff1e 	bx	lr

000402cc <esmSetInterruptLevel>:
   402cc:	e24dd010 	sub	sp, sp, #16
   402d0:	e28dc008 	add	ip, sp, #8
   402d4:	e88d0003 	stm	sp, {r0, r1}
   402d8:	e88c000c 	stm	ip, {r2, r3}
   402dc:	e28dc008 	add	ip, sp, #8
   402e0:	e89d0003 	ldm	sp, {r0, r1}
   402e4:	e89c0006 	ldm	ip, {r1, r2}
   402e8:	e1e0c001 	mvn	ip, r1
   402ec:	e00cc000 	and	ip, ip, r0
   402f0:	e59f0390 	ldr	r0, [pc, #912]	; 40688 <esmGetConfigValue+0x138>
   402f4:	e580c000 	str	ip, [r0]
   402f8:	e28dc008 	add	ip, sp, #8
   402fc:	e89d0003 	ldm	sp, {r0, r1}
   40300:	e89c0006 	ldm	ip, {r1, r2}
   40304:	e001c000 	and	ip, r1, r0
   40308:	e59f0380 	ldr	r0, [pc, #896]	; 40690 <esmGetConfigValue+0x140>
   4030c:	e580c000 	str	ip, [r0]
   40310:	e59dc00c 	ldr	ip, [sp, #12]
   40314:	e59d0004 	ldr	r0, [sp, #4]
   40318:	e1c0c00c 	bic	ip, r0, ip
   4031c:	e59f0360 	ldr	r0, [pc, #864]	; 40684 <esmGetConfigValue+0x134>
   40320:	e580c000 	str	ip, [r0]
   40324:	e59dc004 	ldr	ip, [sp, #4]
   40328:	e59d000c 	ldr	r0, [sp, #12]
   4032c:	e000c00c 	and	ip, r0, ip
   40330:	e59f0354 	ldr	r0, [pc, #852]	; 4068c <esmGetConfigValue+0x13c>
   40334:	e580c000 	str	ip, [r0]
   40338:	e28dd010 	add	sp, sp, #16
   4033c:	e12fff1e 	bx	lr

00040340 <esmClearStatus>:
   40340:	e24dd010 	sub	sp, sp, #16
   40344:	e88d000c 	stm	sp, {r2, r3}
   40348:	e58d0008 	str	r0, [sp, #8]
   4034c:	e59f1310 	ldr	r1, [pc, #784]	; 40664 <esmGetConfigValue+0x114>
   40350:	e59d0008 	ldr	r0, [sp, #8]
   40354:	e59dc004 	ldr	ip, [sp, #4]
   40358:	e781c100 	str	ip, [r1, r0, lsl #2]
   4035c:	e59dc008 	ldr	ip, [sp, #8]
   40360:	e35c0000 	cmp	ip, #0
   40364:	1a000003 	bne	40378 <esmClearStatus+0x38>
   40368:	e59d0008 	ldr	r0, [sp, #8]
   4036c:	e59f1300 	ldr	r1, [pc, #768]	; 40674 <esmGetConfigValue+0x124>
   40370:	e59dc000 	ldr	ip, [sp]
   40374:	e781c100 	str	ip, [r1, r0, lsl #2]
   40378:	e28dd010 	add	sp, sp, #16
   4037c:	e12fff1e 	bx	lr

00040380 <esmClearStatusBuffer>:
   40380:	e24dd008 	sub	sp, sp, #8
   40384:	e88d0003 	stm	sp, {r0, r1}
   40388:	e59f02dc 	ldr	r0, [pc, #732]	; 4066c <esmGetConfigValue+0x11c>
   4038c:	e59dc004 	ldr	ip, [sp, #4]
   40390:	e580c000 	str	ip, [r0]
   40394:	e28dd008 	add	sp, sp, #8
   40398:	e12fff1e 	bx	lr

0004039c <esmSetCounterPreloadValue>:
   4039c:	e24dd008 	sub	sp, sp, #8
   403a0:	e58d0000 	str	r0, [sp]
   403a4:	e59f02cc 	ldr	r0, [pc, #716]	; 40678 <esmGetConfigValue+0x128>
   403a8:	e59dc000 	ldr	ip, [sp]
   403ac:	e20cc903 	and	ip, ip, #49152	; 0xc000
   403b0:	e580c000 	str	ip, [r0]
   403b4:	e28dd008 	add	sp, sp, #8
   403b8:	e12fff1e 	bx	lr

000403bc <esmGetStatus>:
   403bc:	e24dd020 	sub	sp, sp, #32
   403c0:	e88d000c 	stm	sp, {r2, r3}
   403c4:	e58d0010 	str	r0, [sp, #16]
   403c8:	e59dc010 	ldr	ip, [sp, #16]
   403cc:	e35c0000 	cmp	ip, #0
   403d0:	1a000004 	bne	403e8 <esmGetStatus+0x2c>
   403d4:	e59dc010 	ldr	ip, [sp, #16]
   403d8:	e59f0294 	ldr	r0, [pc, #660]	; 40674 <esmGetConfigValue+0x124>
   403dc:	e790c10c 	ldr	ip, [r0, ip, lsl #2]
   403e0:	e58dc014 	str	ip, [sp, #20]
   403e4:	ea000001 	b	403f0 <esmGetStatus+0x34>
   403e8:	e3a0c000 	mov	ip, #0
   403ec:	e58dc014 	str	ip, [sp, #20]
   403f0:	e59dc010 	ldr	ip, [sp, #16]
   403f4:	e59f0268 	ldr	r0, [pc, #616]	; 40664 <esmGetConfigValue+0x114>
   403f8:	e790c10c 	ldr	ip, [r0, ip, lsl #2]
   403fc:	e58dc018 	str	ip, [sp, #24]
   40400:	e59dc014 	ldr	ip, [sp, #20]
   40404:	e1a0000c 	mov	r0, ip
   40408:	e59dc018 	ldr	ip, [sp, #24]
   4040c:	e3a03000 	mov	r3, #0
   40410:	e3a01000 	mov	r1, #0
   40414:	e18c2001 	orr	r2, ip, r1
   40418:	e183c000 	orr	ip, r3, r0
   4041c:	e89d0003 	ldm	sp, {r0, r1}
   40420:	e000000c 	and	r0, r0, ip
   40424:	e28dc008 	add	ip, sp, #8
   40428:	e0011002 	and	r1, r1, r2
   4042c:	e88c0003 	stm	ip, {r0, r1}
   40430:	e28dc008 	add	ip, sp, #8
   40434:	e89c0003 	ldm	ip, {r0, r1}
   40438:	e28dd020 	add	sp, sp, #32
   4043c:	e12fff1e 	bx	lr

00040440 <esmGetStatusBuffer>:
   40440:	e24dd010 	sub	sp, sp, #16
   40444:	e88d0003 	stm	sp, {r0, r1}
   40448:	e59fc21c 	ldr	ip, [pc, #540]	; 4066c <esmGetConfigValue+0x11c>
   4044c:	e89d0003 	ldm	sp, {r0, r1}
   40450:	e59cc000 	ldr	ip, [ip]
   40454:	e001100c 	and	r1, r1, ip
   40458:	e28dc008 	add	ip, sp, #8
   4045c:	e3a02000 	mov	r2, #0
   40460:	e0000002 	and	r0, r0, r2
   40464:	e88c0003 	stm	ip, {r0, r1}
   40468:	e28dc008 	add	ip, sp, #8
   4046c:	e89c0003 	ldm	ip, {r0, r1}
   40470:	e28dd010 	add	sp, sp, #16
   40474:	e12fff1e 	bx	lr

00040478 <esmEnterSelfTest>:
   40478:	e24dd010 	sub	sp, sp, #16
   4047c:	e59fc1f8 	ldr	ip, [pc, #504]	; 4067c <esmGetConfigValue+0x12c>
   40480:	e59cc000 	ldr	ip, [ip]
   40484:	e20cc001 	and	ip, ip, #1
   40488:	e58dc000 	str	ip, [sp]
   4048c:	e59fc1ec 	ldr	ip, [pc, #492]	; 40680 <esmGetConfigValue+0x130>
   40490:	e59cc000 	ldr	ip, [ip]
   40494:	e58dc004 	str	ip, [sp, #4]
   40498:	e59dc000 	ldr	ip, [sp]
   4049c:	e35c0000 	cmp	ip, #0
   404a0:	1a000005 	bne	404bc <esmEnterSelfTest+0x44>
   404a4:	e59dc004 	ldr	ip, [sp, #4]
   404a8:	e35c0000 	cmp	ip, #0
   404ac:	1a000002 	bne	404bc <esmEnterSelfTest+0x44>
   404b0:	e3a0c002 	mov	ip, #2
   404b4:	e5cdc008 	strb	ip, [sp, #8]
   404b8:	ea00000d 	b	404f4 <esmEnterSelfTest+0x7c>
   404bc:	e59f01bc 	ldr	r0, [pc, #444]	; 40680 <esmGetConfigValue+0x130>
   404c0:	e3a0c00a 	mov	ip, #10
   404c4:	e580c000 	str	ip, [r0]
   404c8:	e3a0c001 	mov	ip, #1
   404cc:	e5cdc008 	strb	ip, [sp, #8]
   404d0:	e59fc1a4 	ldr	ip, [pc, #420]	; 4067c <esmGetConfigValue+0x12c>
   404d4:	e59cc000 	ldr	ip, [ip]
   404d8:	e31c0001 	tst	ip, #1
   404dc:	0a000001 	beq	404e8 <esmEnterSelfTest+0x70>
   404e0:	e3a0c003 	mov	ip, #3
   404e4:	e5cdc008 	strb	ip, [sp, #8]
   404e8:	e59f0190 	ldr	r0, [pc, #400]	; 40680 <esmGetConfigValue+0x130>
   404ec:	e3a0c005 	mov	ip, #5
   404f0:	e580c000 	str	ip, [r0]
   404f4:	e5dd0008 	ldrb	r0, [sp, #8]
   404f8:	e28dd010 	add	sp, sp, #16
   404fc:	e12fff1e 	bx	lr

00040500 <esmSelfTestStatus>:
   40500:	e24dd008 	sub	sp, sp, #8
   40504:	e59fc170 	ldr	ip, [pc, #368]	; 4067c <esmGetConfigValue+0x12c>
   40508:	e59cc000 	ldr	ip, [ip]
   4050c:	e31c0001 	tst	ip, #1
   40510:	1a000009 	bne	4053c <esmSelfTestStatus+0x3c>
   40514:	e59fc164 	ldr	ip, [pc, #356]	; 40680 <esmGetConfigValue+0x130>
   40518:	e59cc000 	ldr	ip, [ip]
   4051c:	e35c0005 	cmp	ip, #5
   40520:	1a000002 	bne	40530 <esmSelfTestStatus+0x30>
   40524:	e3a0c001 	mov	ip, #1
   40528:	e5cdc000 	strb	ip, [sp]
   4052c:	ea000004 	b	40544 <esmSelfTestStatus+0x44>
   40530:	e3a0c003 	mov	ip, #3
   40534:	e5cdc000 	strb	ip, [sp]
   40538:	ea000001 	b	40544 <esmSelfTestStatus+0x44>
   4053c:	e3a0c000 	mov	ip, #0
   40540:	e5cdc000 	strb	ip, [sp]
   40544:	e5dd0000 	ldrb	r0, [sp]
   40548:	e28dd008 	add	sp, sp, #8
   4054c:	e12fff1e 	bx	lr

00040550 <esmGetConfigValue>:
   40550:	e24dd008 	sub	sp, sp, #8
   40554:	e5cd1004 	strb	r1, [sp, #4]
   40558:	e58d0000 	str	r0, [sp]
   4055c:	e5ddc004 	ldrb	ip, [sp, #4]
   40560:	e35c0000 	cmp	ip, #0
   40564:	1a000018 	bne	405cc <esmGetConfigValue+0x7c>
   40568:	e59dc000 	ldr	ip, [sp]
   4056c:	e3a00000 	mov	r0, #0
   40570:	e58c0000 	str	r0, [ip]
   40574:	e59dc000 	ldr	ip, [sp]
   40578:	e3a00000 	mov	r0, #0
   4057c:	e58c0004 	str	r0, [ip, #4]
   40580:	e59dc000 	ldr	ip, [sp]
   40584:	e3a00000 	mov	r0, #0
   40588:	e58c0008 	str	r0, [ip, #8]
   4058c:	e59dc000 	ldr	ip, [sp]
   40590:	e3030fff 	movw	r0, #16383	; 0x3fff
   40594:	e58c000c 	str	r0, [ip, #12]
   40598:	e59dc000 	ldr	ip, [sp]
   4059c:	e3a00000 	mov	r0, #0
   405a0:	e58c0010 	str	r0, [ip, #16]
   405a4:	e59dc000 	ldr	ip, [sp]
   405a8:	e3a00000 	mov	r0, #0
   405ac:	e58c0014 	str	r0, [ip, #20]
   405b0:	e59dc000 	ldr	ip, [sp]
   405b4:	e3a00000 	mov	r0, #0
   405b8:	e58c0018 	str	r0, [ip, #24]
   405bc:	e59dc000 	ldr	ip, [sp]
   405c0:	e3a00000 	mov	r0, #0
   405c4:	e58c001c 	str	r0, [ip, #28]
   405c8:	ea00001f 	b	4064c <esmGetConfigValue+0xfc>
   405cc:	e59fc0c0 	ldr	ip, [pc, #192]	; 40694 <esmGetConfigValue+0x144>
   405d0:	e59d0000 	ldr	r0, [sp]
   405d4:	e59cc000 	ldr	ip, [ip]
   405d8:	e580c000 	str	ip, [r0]
   405dc:	e59fc0b8 	ldr	ip, [pc, #184]	; 4069c <esmGetConfigValue+0x14c>
   405e0:	e59d0000 	ldr	r0, [sp]
   405e4:	e59cc000 	ldr	ip, [ip]
   405e8:	e580c004 	str	ip, [r0, #4]
   405ec:	e59fc098 	ldr	ip, [pc, #152]	; 4068c <esmGetConfigValue+0x13c>
   405f0:	e59d0000 	ldr	r0, [sp]
   405f4:	e59cc000 	ldr	ip, [ip]
   405f8:	e580c008 	str	ip, [r0, #8]
   405fc:	e59fc074 	ldr	ip, [pc, #116]	; 40678 <esmGetConfigValue+0x128>
   40600:	e59d0000 	ldr	r0, [sp]
   40604:	e59cc000 	ldr	ip, [ip]
   40608:	e580c00c 	str	ip, [r0, #12]
   4060c:	e59fc06c 	ldr	ip, [pc, #108]	; 40680 <esmGetConfigValue+0x130>
   40610:	e59d0000 	ldr	r0, [sp]
   40614:	e59cc000 	ldr	ip, [ip]
   40618:	e580c010 	str	ip, [r0, #16]
   4061c:	e59fc074 	ldr	ip, [pc, #116]	; 40698 <esmGetConfigValue+0x148>
   40620:	e59d0000 	ldr	r0, [sp]
   40624:	e59cc000 	ldr	ip, [ip]
   40628:	e580c014 	str	ip, [r0, #20]
   4062c:	e59fc06c 	ldr	ip, [pc, #108]	; 406a0 <esmGetConfigValue+0x150>
   40630:	e59d0000 	ldr	r0, [sp]
   40634:	e59cc000 	ldr	ip, [ip]
   40638:	e580c018 	str	ip, [r0, #24]
   4063c:	e59fc04c 	ldr	ip, [pc, #76]	; 40690 <esmGetConfigValue+0x140>
   40640:	e59d0000 	ldr	r0, [sp]
   40644:	e59cc000 	ldr	ip, [ip]
   40648:	e580c01c 	str	ip, [r0, #28]
   4064c:	e28dd008 	add	sp, sp, #8
   40650:	e12fff1e 	bx	lr
   40654:	fffff504 	.word	0xfffff504
   40658:	fffff544 	.word	0xfffff544
   4065c:	fffff50c 	.word	0xfffff50c
   40660:	fffff54c 	.word	0xfffff54c
   40664:	fffff518 	.word	0xfffff518
   40668:	fffff51c 	.word	0xfffff51c
   4066c:	fffff53c 	.word	0xfffff53c
   40670:	fffff520 	.word	0xfffff520
   40674:	fffff558 	.word	0xfffff558
   40678:	fffff534 	.word	0xfffff534
   4067c:	fffff524 	.word	0xfffff524
   40680:	fffff538 	.word	0xfffff538
   40684:	fffff514 	.word	0xfffff514
   40688:	fffff554 	.word	0xfffff554
   4068c:	fffff510 	.word	0xfffff510
   40690:	fffff550 	.word	0xfffff550
   40694:	fffff500 	.word	0xfffff500
   40698:	fffff540 	.word	0xfffff540
   4069c:	fffff508 	.word	0xfffff508
   406a0:	fffff548 	.word	0xfffff548

000406a4 <gioInit>:
   406a4:	e59f0434 	ldr	r0, [pc, #1076]	; 40ae0 <gioGetConfigValue+0x174>
   406a8:	e3a0c001 	mov	ip, #1
   406ac:	e580c000 	str	ip, [r0]
   406b0:	e59f042c 	ldr	r0, [pc, #1068]	; 40ae4 <gioGetConfigValue+0x178>
   406b4:	e3a0c0ff 	mov	ip, #255	; 0xff
   406b8:	e580c000 	str	ip, [r0]
   406bc:	e59f0424 	ldr	r0, [pc, #1060]	; 40ae8 <gioGetConfigValue+0x17c>
   406c0:	e3a0c0ff 	mov	ip, #255	; 0xff
   406c4:	e580c000 	str	ip, [r0]
   406c8:	e59f041c 	ldr	r0, [pc, #1052]	; 40aec <gioGetConfigValue+0x180>
   406cc:	e3a0c031 	mov	ip, #49	; 0x31
   406d0:	e580c000 	str	ip, [r0]
   406d4:	e59f0414 	ldr	r0, [pc, #1044]	; 40af0 <gioGetConfigValue+0x184>
   406d8:	e3a0c0ff 	mov	ip, #255	; 0xff
   406dc:	e580c000 	str	ip, [r0]
   406e0:	e59f040c 	ldr	r0, [pc, #1036]	; 40af4 <gioGetConfigValue+0x188>
   406e4:	e3a0c000 	mov	ip, #0
   406e8:	e580c000 	str	ip, [r0]
   406ec:	e59f0404 	ldr	r0, [pc, #1028]	; 40af8 <gioGetConfigValue+0x18c>
   406f0:	e3a0c000 	mov	ip, #0
   406f4:	e580c000 	str	ip, [r0]
   406f8:	e59f03fc 	ldr	r0, [pc, #1020]	; 40afc <gioGetConfigValue+0x190>
   406fc:	e3a0c000 	mov	ip, #0
   40700:	e580c000 	str	ip, [r0]
   40704:	e59f03f4 	ldr	r0, [pc, #1012]	; 40b00 <gioGetConfigValue+0x194>
   40708:	e3a0c000 	mov	ip, #0
   4070c:	e580c000 	str	ip, [r0]
   40710:	e59f03ec 	ldr	r0, [pc, #1004]	; 40b04 <gioGetConfigValue+0x198>
   40714:	e3a0c000 	mov	ip, #0
   40718:	e580c000 	str	ip, [r0]
   4071c:	e59f03e4 	ldr	r0, [pc, #996]	; 40b08 <gioGetConfigValue+0x19c>
   40720:	e3a0c000 	mov	ip, #0
   40724:	e580c000 	str	ip, [r0]
   40728:	e59f03dc 	ldr	r0, [pc, #988]	; 40b0c <gioGetConfigValue+0x1a0>
   4072c:	e3a0c000 	mov	ip, #0
   40730:	e580c000 	str	ip, [r0]
   40734:	e59f03d4 	ldr	r0, [pc, #980]	; 40b10 <gioGetConfigValue+0x1a4>
   40738:	e3a0c000 	mov	ip, #0
   4073c:	e580c000 	str	ip, [r0]
   40740:	e59f03cc 	ldr	r0, [pc, #972]	; 40b14 <gioGetConfigValue+0x1a8>
   40744:	e3a0c000 	mov	ip, #0
   40748:	e580c000 	str	ip, [r0]
   4074c:	e59f03c4 	ldr	r0, [pc, #964]	; 40b18 <gioGetConfigValue+0x1ac>
   40750:	e3a0c000 	mov	ip, #0
   40754:	e580c000 	str	ip, [r0]
   40758:	e59f03bc 	ldr	r0, [pc, #956]	; 40b1c <gioGetConfigValue+0x1b0>
   4075c:	e3a0c0ff 	mov	ip, #255	; 0xff
   40760:	e580c000 	str	ip, [r0]
   40764:	e59f03b4 	ldr	r0, [pc, #948]	; 40b20 <gioGetConfigValue+0x1b4>
   40768:	e3a0c000 	mov	ip, #0
   4076c:	e580c000 	str	ip, [r0]
   40770:	e12fff1e 	bx	lr

00040774 <gioSetDirection>:
   40774:	e24dd008 	sub	sp, sp, #8
   40778:	e58d1004 	str	r1, [sp, #4]
   4077c:	e58d0000 	str	r0, [sp]
   40780:	e59d0000 	ldr	r0, [sp]
   40784:	e59dc004 	ldr	ip, [sp, #4]
   40788:	e580c000 	str	ip, [r0]
   4078c:	e28dd008 	add	sp, sp, #8
   40790:	e12fff1e 	bx	lr

00040794 <gioSetBit>:
   40794:	e24dd010 	sub	sp, sp, #16
   40798:	e58d2008 	str	r2, [sp, #8]
   4079c:	e58d1004 	str	r1, [sp, #4]
   407a0:	e58d0000 	str	r0, [sp]
   407a4:	e59dc008 	ldr	ip, [sp, #8]
   407a8:	e35c0000 	cmp	ip, #0
   407ac:	0a000005 	beq	407c8 <gioSetBit+0x34>
   407b0:	e59dc004 	ldr	ip, [sp, #4]
   407b4:	e59d0000 	ldr	r0, [sp]
   407b8:	e3a01001 	mov	r1, #1
   407bc:	e1a0cc11 	lsl	ip, r1, ip
   407c0:	e580c00c 	str	ip, [r0, #12]
   407c4:	ea000004 	b	407dc <gioSetBit+0x48>
   407c8:	e59dc004 	ldr	ip, [sp, #4]
   407cc:	e59d0000 	ldr	r0, [sp]
   407d0:	e3a01001 	mov	r1, #1
   407d4:	e1a0cc11 	lsl	ip, r1, ip
   407d8:	e580c010 	str	ip, [r0, #16]
   407dc:	e28dd010 	add	sp, sp, #16
   407e0:	e12fff1e 	bx	lr

000407e4 <gioSetPort>:
   407e4:	e24dd008 	sub	sp, sp, #8
   407e8:	e58d1004 	str	r1, [sp, #4]
   407ec:	e58d0000 	str	r0, [sp]
   407f0:	e59d0000 	ldr	r0, [sp]
   407f4:	e59dc004 	ldr	ip, [sp, #4]
   407f8:	e580c008 	str	ip, [r0, #8]
   407fc:	e28dd008 	add	sp, sp, #8
   40800:	e12fff1e 	bx	lr

00040804 <gioGetBit>:
   40804:	e24dd008 	sub	sp, sp, #8
   40808:	e58d1004 	str	r1, [sp, #4]
   4080c:	e58d0000 	str	r0, [sp]
   40810:	e59d0000 	ldr	r0, [sp]
   40814:	e59dc004 	ldr	ip, [sp, #4]
   40818:	e5900004 	ldr	r0, [r0, #4]
   4081c:	e1a0cc30 	lsr	ip, r0, ip
   40820:	e20c0001 	and	r0, ip, #1
   40824:	e28dd008 	add	sp, sp, #8
   40828:	e12fff1e 	bx	lr

0004082c <gioGetPort>:
   4082c:	e24dd008 	sub	sp, sp, #8
   40830:	e58d0000 	str	r0, [sp]
   40834:	e59dc000 	ldr	ip, [sp]
   40838:	e59c0004 	ldr	r0, [ip, #4]
   4083c:	e28dd008 	add	sp, sp, #8
   40840:	e12fff1e 	bx	lr

00040844 <gioToggleBit>:
   40844:	e24dd008 	sub	sp, sp, #8
   40848:	e58d1004 	str	r1, [sp, #4]
   4084c:	e58d0000 	str	r0, [sp]
   40850:	e59d0000 	ldr	r0, [sp]
   40854:	e59dc004 	ldr	ip, [sp, #4]
   40858:	e3a01001 	mov	r1, #1
   4085c:	e5900004 	ldr	r0, [r0, #4]
   40860:	e1100c11 	tst	r0, r1, lsl ip
   40864:	0a000005 	beq	40880 <gioToggleBit+0x3c>
   40868:	e59dc004 	ldr	ip, [sp, #4]
   4086c:	e59d0000 	ldr	r0, [sp]
   40870:	e3a01001 	mov	r1, #1
   40874:	e1a0cc11 	lsl	ip, r1, ip
   40878:	e580c010 	str	ip, [r0, #16]
   4087c:	ea000004 	b	40894 <gioToggleBit+0x50>
   40880:	e59dc004 	ldr	ip, [sp, #4]
   40884:	e59d0000 	ldr	r0, [sp]
   40888:	e3a01001 	mov	r1, #1
   4088c:	e1a0cc11 	lsl	ip, r1, ip
   40890:	e580c00c 	str	ip, [r0, #12]
   40894:	e28dd008 	add	sp, sp, #8
   40898:	e12fff1e 	bx	lr

0004089c <gioEnableNotification>:
   4089c:	e24dd008 	sub	sp, sp, #8
   408a0:	e58d1004 	str	r1, [sp, #4]
   408a4:	e58d0000 	str	r0, [sp]
   408a8:	e59f0240 	ldr	r0, [pc, #576]	; 40af0 <gioGetConfigValue+0x184>
   408ac:	e59dc000 	ldr	ip, [sp]
   408b0:	e150000c 	cmp	r0, ip
   408b4:	1a000005 	bne	408d0 <gioEnableNotification+0x34>
   408b8:	e59dc004 	ldr	ip, [sp, #4]
   408bc:	e59f125c 	ldr	r1, [pc, #604]	; 40b20 <gioGetConfigValue+0x1b4>
   408c0:	e3a00001 	mov	r0, #1
   408c4:	e1a0cc10 	lsl	ip, r0, ip
   408c8:	e581c000 	str	ip, [r1]
   408cc:	ea00000a 	b	408fc <gioEnableNotification+0x60>
   408d0:	e59f022c 	ldr	r0, [pc, #556]	; 40b04 <gioGetConfigValue+0x198>
   408d4:	e59dc000 	ldr	ip, [sp]
   408d8:	e150000c 	cmp	r0, ip
   408dc:	1a000006 	bne	408fc <gioEnableNotification+0x60>
   408e0:	e59dc004 	ldr	ip, [sp, #4]
   408e4:	e59f1234 	ldr	r1, [pc, #564]	; 40b20 <gioGetConfigValue+0x1b4>
   408e8:	e3a00001 	mov	r0, #1
   408ec:	e28cc008 	add	ip, ip, #8
   408f0:	e1a0cc10 	lsl	ip, r0, ip
   408f4:	e581c000 	str	ip, [r1]
   408f8:	eaffffff 	b	408fc <gioEnableNotification+0x60>
   408fc:	e28dd008 	add	sp, sp, #8
   40900:	e12fff1e 	bx	lr

00040904 <gioDisableNotification>:
   40904:	e24dd008 	sub	sp, sp, #8
   40908:	e58d1004 	str	r1, [sp, #4]
   4090c:	e58d0000 	str	r0, [sp]
   40910:	e59f01d8 	ldr	r0, [pc, #472]	; 40af0 <gioGetConfigValue+0x184>
   40914:	e59dc000 	ldr	ip, [sp]
   40918:	e150000c 	cmp	r0, ip
   4091c:	1a000005 	bne	40938 <gioDisableNotification+0x34>
   40920:	e59dc004 	ldr	ip, [sp, #4]
   40924:	e59f11b8 	ldr	r1, [pc, #440]	; 40ae4 <gioGetConfigValue+0x178>
   40928:	e3a00001 	mov	r0, #1
   4092c:	e1a0cc10 	lsl	ip, r0, ip
   40930:	e581c000 	str	ip, [r1]
   40934:	ea00000a 	b	40964 <gioDisableNotification+0x60>
   40938:	e59f01c4 	ldr	r0, [pc, #452]	; 40b04 <gioGetConfigValue+0x198>
   4093c:	e59dc000 	ldr	ip, [sp]
   40940:	e150000c 	cmp	r0, ip
   40944:	1a000006 	bne	40964 <gioDisableNotification+0x60>
   40948:	e59dc004 	ldr	ip, [sp, #4]
   4094c:	e59f1190 	ldr	r1, [pc, #400]	; 40ae4 <gioGetConfigValue+0x178>
   40950:	e3a00001 	mov	r0, #1
   40954:	e28cc008 	add	ip, ip, #8
   40958:	e1a0cc10 	lsl	ip, r0, ip
   4095c:	e581c000 	str	ip, [r1]
   40960:	eaffffff 	b	40964 <gioDisableNotification+0x60>
   40964:	e28dd008 	add	sp, sp, #8
   40968:	e12fff1e 	bx	lr

0004096c <gioGetConfigValue>:
   4096c:	e24dd008 	sub	sp, sp, #8
   40970:	e5cd1004 	strb	r1, [sp, #4]
   40974:	e58d0000 	str	r0, [sp]
   40978:	e5ddc004 	ldrb	ip, [sp, #4]
   4097c:	e35c0000 	cmp	ip, #0
   40980:	1a000024 	bne	40a18 <gioGetConfigValue+0xac>
   40984:	e59dc000 	ldr	ip, [sp]
   40988:	e3a00000 	mov	r0, #0
   4098c:	e58c0000 	str	r0, [ip]
   40990:	e59dc000 	ldr	ip, [sp]
   40994:	e3a00000 	mov	r0, #0
   40998:	e58c0004 	str	r0, [ip, #4]
   4099c:	e59dc000 	ldr	ip, [sp]
   409a0:	e3a00000 	mov	r0, #0
   409a4:	e58c0008 	str	r0, [ip, #8]
   409a8:	e59dc000 	ldr	ip, [sp]
   409ac:	e3a00000 	mov	r0, #0
   409b0:	e58c000c 	str	r0, [ip, #12]
   409b4:	e59dc000 	ldr	ip, [sp]
   409b8:	e3a000ff 	mov	r0, #255	; 0xff
   409bc:	e58c0010 	str	r0, [ip, #16]
   409c0:	e59dc000 	ldr	ip, [sp]
   409c4:	e3a00000 	mov	r0, #0
   409c8:	e58c0014 	str	r0, [ip, #20]
   409cc:	e59dc000 	ldr	ip, [sp]
   409d0:	e3a00000 	mov	r0, #0
   409d4:	e58c0018 	str	r0, [ip, #24]
   409d8:	e59dc000 	ldr	ip, [sp]
   409dc:	e3a00000 	mov	r0, #0
   409e0:	e58c001c 	str	r0, [ip, #28]
   409e4:	e59dc000 	ldr	ip, [sp]
   409e8:	e3a00000 	mov	r0, #0
   409ec:	e58c0020 	str	r0, [ip, #32]
   409f0:	e59dc000 	ldr	ip, [sp]
   409f4:	e3a00000 	mov	r0, #0
   409f8:	e58c0024 	str	r0, [ip, #36]	; 0x24
   409fc:	e59dc000 	ldr	ip, [sp]
   40a00:	e3a00000 	mov	r0, #0
   40a04:	e58c0028 	str	r0, [ip, #40]	; 0x28
   40a08:	e59dc000 	ldr	ip, [sp]
   40a0c:	e3a00000 	mov	r0, #0
   40a10:	e58c002c 	str	r0, [ip, #44]	; 0x2c
   40a14:	ea00002f 	b	40ad8 <gioGetConfigValue+0x16c>
   40a18:	e59fc104 	ldr	ip, [pc, #260]	; 40b24 <gioGetConfigValue+0x1b8>
   40a1c:	e59d0000 	ldr	r0, [sp]
   40a20:	e59cc000 	ldr	ip, [ip]
   40a24:	e580c000 	str	ip, [r0]
   40a28:	e59fc0e4 	ldr	ip, [pc, #228]	; 40b14 <gioGetConfigValue+0x1a8>
   40a2c:	e59d0000 	ldr	r0, [sp]
   40a30:	e59cc000 	ldr	ip, [ip]
   40a34:	e580c004 	str	ip, [r0, #4]
   40a38:	e59fc0e0 	ldr	ip, [pc, #224]	; 40b20 <gioGetConfigValue+0x1b4>
   40a3c:	e59d0000 	ldr	r0, [sp]
   40a40:	e59cc000 	ldr	ip, [ip]
   40a44:	e580c008 	str	ip, [r0, #8]
   40a48:	e59fc0c8 	ldr	ip, [pc, #200]	; 40b18 <gioGetConfigValue+0x1ac>
   40a4c:	e59d0000 	ldr	r0, [sp]
   40a50:	e59cc000 	ldr	ip, [ip]
   40a54:	e580c00c 	str	ip, [r0, #12]
   40a58:	e59fc090 	ldr	ip, [pc, #144]	; 40af0 <gioGetConfigValue+0x184>
   40a5c:	e59d0000 	ldr	r0, [sp]
   40a60:	e59cc000 	ldr	ip, [ip]
   40a64:	e580c010 	str	ip, [r0, #16]
   40a68:	e59fc084 	ldr	ip, [pc, #132]	; 40af4 <gioGetConfigValue+0x188>
   40a6c:	e59d0000 	ldr	r0, [sp]
   40a70:	e59cc000 	ldr	ip, [ip]
   40a74:	e580c014 	str	ip, [r0, #20]
   40a78:	e59fc078 	ldr	ip, [pc, #120]	; 40af8 <gioGetConfigValue+0x18c>
   40a7c:	e59d0000 	ldr	r0, [sp]
   40a80:	e59cc000 	ldr	ip, [ip]
   40a84:	e580c018 	str	ip, [r0, #24]
   40a88:	e59fc06c 	ldr	ip, [pc, #108]	; 40afc <gioGetConfigValue+0x190>
   40a8c:	e59d0000 	ldr	r0, [sp]
   40a90:	e59cc000 	ldr	ip, [ip]
   40a94:	e580c01c 	str	ip, [r0, #28]
   40a98:	e59fc064 	ldr	ip, [pc, #100]	; 40b04 <gioGetConfigValue+0x198>
   40a9c:	e59d0000 	ldr	r0, [sp]
   40aa0:	e59cc000 	ldr	ip, [ip]
   40aa4:	e580c020 	str	ip, [r0, #32]
   40aa8:	e59fc058 	ldr	ip, [pc, #88]	; 40b08 <gioGetConfigValue+0x19c>
   40aac:	e59d0000 	ldr	r0, [sp]
   40ab0:	e59cc000 	ldr	ip, [ip]
   40ab4:	e580c024 	str	ip, [r0, #36]	; 0x24
   40ab8:	e59fc04c 	ldr	ip, [pc, #76]	; 40b0c <gioGetConfigValue+0x1a0>
   40abc:	e59d0000 	ldr	r0, [sp]
   40ac0:	e59cc000 	ldr	ip, [ip]
   40ac4:	e580c028 	str	ip, [r0, #40]	; 0x28
   40ac8:	e59fc040 	ldr	ip, [pc, #64]	; 40b10 <gioGetConfigValue+0x1a4>
   40acc:	e59d0000 	ldr	r0, [sp]
   40ad0:	e59cc000 	ldr	ip, [ip]
   40ad4:	e580c02c 	str	ip, [r0, #44]	; 0x2c
   40ad8:	e28dd008 	add	sp, sp, #8
   40adc:	e12fff1e 	bx	lr
   40ae0:	fff7bc00 	.word	0xfff7bc00
   40ae4:	fff7bc14 	.word	0xfff7bc14
   40ae8:	fff7bc1c 	.word	0xfff7bc1c
   40aec:	fff7bc3c 	.word	0xfff7bc3c
   40af0:	fff7bc34 	.word	0xfff7bc34
   40af4:	fff7bc48 	.word	0xfff7bc48
   40af8:	fff7bc50 	.word	0xfff7bc50
   40afc:	fff7bc4c 	.word	0xfff7bc4c
   40b00:	fff7bc5c 	.word	0xfff7bc5c
   40b04:	fff7bc54 	.word	0xfff7bc54
   40b08:	fff7bc68 	.word	0xfff7bc68
   40b0c:	fff7bc70 	.word	0xfff7bc70
   40b10:	fff7bc6c 	.word	0xfff7bc6c
   40b14:	fff7bc0c 	.word	0xfff7bc0c
   40b18:	fff7bc18 	.word	0xfff7bc18
   40b1c:	fff7bc20 	.word	0xfff7bc20
   40b20:	fff7bc10 	.word	0xfff7bc10
   40b24:	fff7bc08 	.word	0xfff7bc08

00040b28 <maxindex>:
   40b28:	e24dd010 	sub	sp, sp, #16
   40b2c:	e58d0000 	str	r0, [sp]
   40b30:	e3a0c000 	mov	ip, #0
   40b34:	e5cdc00a 	strb	ip, [sp, #10]
   40b38:	e3a0c000 	mov	ip, #0
   40b3c:	e1cdc0b8 	strh	ip, [sp, #8]
   40b40:	e3a0c000 	mov	ip, #0
   40b44:	e58dc004 	str	ip, [sp, #4]
   40b48:	e3a0c000 	mov	ip, #0
   40b4c:	e58dc004 	str	ip, [sp, #4]
   40b50:	e59dc004 	ldr	ip, [sp, #4]
   40b54:	e35c002f 	cmp	ip, #47	; 0x2f
   40b58:	aa000011 	bge	40ba4 <maxindex+0x7c>
   40b5c:	e59dc000 	ldr	ip, [sp]
   40b60:	e59d0004 	ldr	r0, [sp, #4]
   40b64:	e1dd10da 	ldrsb	r1, [sp, #10]
   40b68:	e190c0dc 	ldrsb	ip, [r0, ip]
   40b6c:	e15c0001 	cmp	ip, r1
   40b70:	da000005 	ble	40b8c <maxindex+0x64>
   40b74:	e59dc000 	ldr	ip, [sp]
   40b78:	e59d0004 	ldr	r0, [sp, #4]
   40b7c:	e190c0dc 	ldrsb	ip, [r0, ip]
   40b80:	e5cdc00a 	strb	ip, [sp, #10]
   40b84:	e1ddc0b6 	ldrh	ip, [sp, #6]
   40b88:	e1cdc0b8 	strh	ip, [sp, #8]
   40b8c:	e59dc004 	ldr	ip, [sp, #4]
   40b90:	e28cc001 	add	ip, ip, #1
   40b94:	e58dc004 	str	ip, [sp, #4]
   40b98:	e59dc004 	ldr	ip, [sp, #4]
   40b9c:	e35c002f 	cmp	ip, #47	; 0x2f
   40ba0:	baffffed 	blt	40b5c <maxindex+0x34>
   40ba4:	e1dd00f8 	ldrsh	r0, [sp, #8]
   40ba8:	e28dd010 	add	sp, sp, #16
   40bac:	e12fff1e 	bx	lr

00040bb0 <FAULT_DETECTED_DWC>:
   40bb0:	e92d4008 	push	{r3, lr}
   40bb4:	e28f0fb6 	add	r0, pc, #728	; 0x2d8
   40bb8:	fa000cc3 	blx	43ecc <printf>
   40bbc:	ebfffb19 	bl	3f828 <dwdGenerateSysReset>
   40bc0:	e8bd8008 	pop	{r3, pc}

00040bc4 <FAULT_DETECTED_CFCSS>:
   40bc4:	e92d4008 	push	{r3, lr}
   40bc8:	e28f0e2e 	add	r0, pc, #736	; 0x2e0
   40bcc:	fa000cbe 	blx	43ecc <printf>
   40bd0:	ebfffb14 	bl	3f828 <dwdGenerateSysReset>
   40bd4:	e8bd8008 	pop	{r3, pc}

00040bd8 <refresh_weights>:
   40bd8:	e24dd008 	sub	sp, sp, #8
   40bdc:	e3a0c000 	mov	ip, #0
   40be0:	e58dc000 	str	ip, [sp]
   40be4:	e59dc000 	ldr	ip, [sp]
   40be8:	e30b0e5f 	movw	r0, #48735	; 0xbe5f
   40bec:	e150000c 	cmp	r0, ip
   40bf0:	da00000c 	ble	40c28 <refresh_weights+0x50>
   40bf4:	e59dc000 	ldr	ip, [sp]
   40bf8:	e59f138c 	ldr	r1, [pc, #908]	; 40f8c <exe+0x138>
   40bfc:	e59d0000 	ldr	r0, [sp]
   40c00:	e59f2380 	ldr	r2, [pc, #896]	; 40f88 <exe+0x134>
   40c04:	e191c0dc 	ldrsb	ip, [r1, ip]
   40c08:	e7c2c000 	strb	ip, [r2, r0]
   40c0c:	e59dc000 	ldr	ip, [sp]
   40c10:	e28cc001 	add	ip, ip, #1
   40c14:	e58dc000 	str	ip, [sp]
   40c18:	e59dc000 	ldr	ip, [sp]
   40c1c:	e30b0e5f 	movw	r0, #48735	; 0xbe5f
   40c20:	e150000c 	cmp	r0, ip
   40c24:	cafffff2 	bgt	40bf4 <refresh_weights+0x1c>
   40c28:	e28dd008 	add	sp, sp, #8
   40c2c:	e12fff1e 	bx	lr

00040c30 <poll>:
   40c30:	e92d4000 	stmfd	sp!, {lr}
   40c34:	e24dd01c 	sub	sp, sp, #28
   40c38:	e28f0e29 	add	r0, pc, #656	; 0x290
   40c3c:	fa000ca2 	blx	43ecc <printf>
   40c40:	e3a0c000 	mov	ip, #0
   40c44:	e1cdc1b4 	strh	ip, [sp, #20]
   40c48:	e3a0c000 	mov	ip, #0
   40c4c:	e1cdc1b6 	strh	ip, [sp, #22]
   40c50:	e3a0c000 	mov	ip, #0
   40c54:	e58dc008 	str	ip, [sp, #8]
   40c58:	e59fc324 	ldr	ip, [pc, #804]	; 40f84 <exe+0x130>
   40c5c:	e58dc00c 	str	ip, [sp, #12]
   40c60:	e3a0c000 	mov	ip, #0
   40c64:	e58dc010 	str	ip, [sp, #16]
   40c68:	ebffdb5e 	bl	379e8 <initNN>
   40c6c:	e3a0c000 	mov	ip, #0
   40c70:	e58dc000 	str	ip, [sp]
   40c74:	e59dc000 	ldr	ip, [sp]
   40c78:	e35c000a 	cmp	ip, #10
   40c7c:	aa000045 	bge	40d98 <loop0+0xf8>
   40c80:	e3a01302 	mov	r1, #134217728	; 0x8000000
   40c84:	e3a00206 	mov	r0, #1610612736	; 0x60000000
   40c88:	e3a02a01 	mov	r2, #4096	; 0x1000
   40c8c:	fb000bcf 	blx	43bd2 <__aeabi_memcpy>
   40c90:	e1a00000 	nop			; (mov r0, r0)
   40c94:	e1a00000 	nop			; (mov r0, r0)
   40c98:	e1a00000 	nop			; (mov r0, r0)
   40c9c:	e1a00000 	nop			; (mov r0, r0)

00040ca0 <loop0>:
   40ca0:	e10f7000 	mrs	r7, CPSR
   40ca4:	e3a09206 	mov	r9, #1610612736	; 0x60000000
   40ca8:	e2899a01 	add	r9, r9, #4096	; 0x1000
   40cac:	e929607f 	stmdb	r9!, {r0, r1, r2, r3, r4, r5, r6, sp, lr}
   40cb0:	e9290080 	stmdb	r9!, {r7}
   40cb4:	e1a00000 	nop			; (mov r0, r0)
   40cb8:	e1a00000 	nop			; (mov r0, r0)
   40cbc:	e1a00000 	nop			; (mov r0, r0)
   40cc0:	e1a00000 	nop			; (mov r0, r0)
   40cc4:	e59dc008 	ldr	ip, [sp, #8]
   40cc8:	e3a01e31 	mov	r1, #784	; 0x310
   40ccc:	e59f02bc 	ldr	r0, [pc, #700]	; 40f90 <exe+0x13c>
   40cd0:	e0200c91 	mla	r0, r1, ip, r0
   40cd4:	e59f12b8 	ldr	r1, [pc, #696]	; 40f94 <exe+0x140>
   40cd8:	e3a02000 	mov	r2, #0
   40cdc:	e3a03000 	mov	r3, #0
   40ce0:	ebffdf2c 	bl	38998 <run_nn>
   40ce4:	e59f02a8 	ldr	r0, [pc, #680]	; 40f94 <exe+0x140>
   40ce8:	ebffff8e 	bl	40b28 <maxindex>
   40cec:	e1cd01b6 	strh	r0, [sp, #22]
   40cf0:	e59d1008 	ldr	r1, [sp, #8]
   40cf4:	e28f0f77 	add	r0, pc, #476	; 0x1dc
   40cf8:	fa000c73 	blx	43ecc <printf>
   40cfc:	e28f0e1e 	add	r0, pc, #480	; 0x1e0
   40d00:	fa000c71 	blx	43ecc <printf>
   40d04:	e3a0c000 	mov	ip, #0
   40d08:	e58dc004 	str	ip, [sp, #4]
   40d0c:	e59dc004 	ldr	ip, [sp, #4]
   40d10:	e35c002f 	cmp	ip, #47	; 0x2f
   40d14:	aa00000a 	bge	40d44 <loop0+0xa4>
   40d18:	e59dc004 	ldr	ip, [sp, #4]
   40d1c:	e59f0270 	ldr	r0, [pc, #624]	; 40f94 <exe+0x140>
   40d20:	e19010dc 	ldrsb	r1, [r0, ip]
   40d24:	e28f0d07 	add	r0, pc, #448	; 0x1c0
   40d28:	fa000c67 	blx	43ecc <printf>
   40d2c:	e59dc004 	ldr	ip, [sp, #4]
   40d30:	e28cc001 	add	ip, ip, #1
   40d34:	e58dc004 	str	ip, [sp, #4]
   40d38:	e59dc004 	ldr	ip, [sp, #4]
   40d3c:	e35c002f 	cmp	ip, #47	; 0x2f
   40d40:	bafffff4 	blt	40d18 <loop0+0x78>
   40d44:	e28f0f69 	add	r0, pc, #420	; 0x1a4
   40d48:	fa000c5f 	blx	43ecc <printf>
   40d4c:	e59dc008 	ldr	ip, [sp, #8]
   40d50:	e59f0240 	ldr	r0, [pc, #576]	; 40f98 <exe+0x144>
   40d54:	e1dd31f6 	ldrsh	r3, [sp, #22]
   40d58:	e59d1008 	ldr	r1, [sp, #8]
   40d5c:	e19020dc 	ldrsb	r2, [r0, ip]
   40d60:	e28f0f65 	add	r0, pc, #404	; 0x194
   40d64:	fa000c58 	blx	43ecc <printf>
   40d68:	e59dc008 	ldr	ip, [sp, #8]
   40d6c:	e59f1224 	ldr	r1, [pc, #548]	; 40f98 <exe+0x144>
   40d70:	e1dd01f6 	ldrsh	r0, [sp, #22]
   40d74:	e191c0dc 	ldrsb	ip, [r1, ip]
   40d78:	e15c0000 	cmp	ip, r0
   40d7c:	0a000002 	beq	40d8c <loop0+0xec>
   40d80:	e28f0f62 	add	r0, pc, #392	; 0x188
   40d84:	fa000c50 	blx	43ecc <printf>
   40d88:	ebfffaa6 	bl	3f828 <dwdGenerateSysReset>
   40d8c:	e59dc000 	ldr	ip, [sp]
   40d90:	e35c000a 	cmp	ip, #10
   40d94:	baffffb9 	blt	40c80 <poll+0x50>
   40d98:	e28dd01c 	add	sp, sp, #28
   40d9c:	e8bd8000 	ldmfd	sp!, {pc}

00040da0 <print_info>:
   40da0:	e92d4000 	stmfd	sp!, {lr}
   40da4:	e24dd01c 	sub	sp, sp, #28
   40da8:	e3a0c000 	mov	ip, #0
   40dac:	e5cdc014 	strb	ip, [sp, #20]
   40db0:	e3a0c000 	mov	ip, #0
   40db4:	e5cdc015 	strb	ip, [sp, #21]
   40db8:	e3a0c000 	mov	ip, #0
   40dbc:	e5cdc016 	strb	ip, [sp, #22]
   40dc0:	e3a0c000 	mov	ip, #0
   40dc4:	e5cdc017 	strb	ip, [sp, #23]
   40dc8:	e3a0c000 	mov	ip, #0
   40dcc:	e5cdc018 	strb	ip, [sp, #24]
   40dd0:	e3a0c000 	mov	ip, #0
   40dd4:	e5cdc019 	strb	ip, [sp, #25]
   40dd8:	e3a0c000 	mov	ip, #0
   40ddc:	e5cdc01a 	strb	ip, [sp, #26]
   40de0:	e3a0c000 	mov	ip, #0
   40de4:	e5cdc01b 	strb	ip, [sp, #27]
   40de8:	e3a0c001 	mov	ip, #1
   40dec:	e5cdc017 	strb	ip, [sp, #23]
   40df0:	e3a0c001 	mov	ip, #1
   40df4:	e5cdc018 	strb	ip, [sp, #24]
   40df8:	e5ddc017 	ldrb	ip, [sp, #23]
   40dfc:	e28f0e12 	add	r0, pc, #288	; 0x120
   40e00:	e58dc000 	str	ip, [sp]
   40e04:	e5ddc018 	ldrb	ip, [sp, #24]
   40e08:	e58dc004 	str	ip, [sp, #4]
   40e0c:	e5ddc019 	ldrb	ip, [sp, #25]
   40e10:	e58dc008 	str	ip, [sp, #8]
   40e14:	e5ddc01a 	ldrb	ip, [sp, #26]
   40e18:	e58dc00c 	str	ip, [sp, #12]
   40e1c:	e5ddc01b 	ldrb	ip, [sp, #27]
   40e20:	e58dc010 	str	ip, [sp, #16]
   40e24:	e5dd1014 	ldrb	r1, [sp, #20]
   40e28:	e5dd2015 	ldrb	r2, [sp, #21]
   40e2c:	e5dd3016 	ldrb	r3, [sp, #22]
   40e30:	fa000c25 	blx	43ecc <printf>
   40e34:	e28dd01c 	add	sp, sp, #28
   40e38:	e8bd8000 	ldmfd	sp!, {pc}

00040e3c <exe11>:
   40e3c:	e92d4008 	push	{r3, lr}
   40e40:	e28f0f4b 	add	r0, pc, #300	; 0x12c
   40e44:	fa000c20 	blx	43ecc <printf>
   40e48:	ebffe02b 	bl	38efc <init_crc>
   40e4c:	ebffe078 	bl	39034 <test_crc>
   40e50:	eafffffd 	b	40e4c <exe11+0x10>

00040e54 <exe>:
   40e54:	e92d400e 	push	{r1, r2, r3, lr}
   40e58:	e28f0f47 	add	r0, pc, #284	; 0x11c
   40e5c:	fa000c1a 	blx	43ecc <printf>
   40e60:	e3a0006f 	mov	r0, #111	; 0x6f
   40e64:	fa000d08 	blx	4428c <srand>
   40e68:	ebffdade 	bl	379e8 <initNN>
   40e6c:	e3a0c000 	mov	ip, #0
   40e70:	e1cdc0b0 	strh	ip, [sp]
   40e74:	e3a0c000 	mov	ip, #0
   40e78:	e1cdc0b2 	strh	ip, [sp, #2]
   40e7c:	e3a0c000 	mov	ip, #0
   40e80:	e1cdc0b4 	strh	ip, [sp, #4]
   40e84:	e3a0c000 	mov	ip, #0
   40e88:	e5cdc006 	strb	ip, [sp, #6]
   40e8c:	ebffff67 	bl	40c30 <poll>
   40e90:	eafffffd 	b	40e8c <exe+0x38>
   40e94:	766f6964 	.word	0x766f6964
   40e98:	20464155 	.word	0x20464155
   40e9c:	4c545f44 	.word	0x4c545f44
   40ea0:	45544543 	.word	0x45544543
   40ea4:	5445445f 	.word	0x5445445f
   40ea8:	44574328 	.word	0x44574328
   40eac:	290d0a00 	.word	0x290d0a00
   40eb0:	766f6964 	.word	0x766f6964
   40eb4:	20464155 	.word	0x20464155
   40eb8:	4c545f44 	.word	0x4c545f44
   40ebc:	45544543 	.word	0x45544543
   40ec0:	5445445f 	.word	0x5445445f
   40ec4:	43464353 	.word	0x43464353
   40ec8:	5328290d 	.word	0x5328290d
   40ecc:	0a000000 	.word	0x0a000000
   40ed0:	706f6c6c 	.word	0x706f6c6c
   40ed4:	0a000000 	.word	0x0a000000
   40ed8:	696e6465 	.word	0x696e6465
   40edc:	783a2564 	.word	0x783a2564
   40ee0:	2c000000 	.word	0x2c000000
   40ee4:	6f757470 	.word	0x6f757470
   40ee8:	75743a00 	.word	0x75743a00
   40eec:	25642c00 	.word	0x25642c00
   40ef0:	6f757470 	.word	0x6f757470
   40ef4:	7574656e 	.word	0x7574656e
   40ef8:	640d0a00 	.word	0x640d0a00
   40efc:	693a2564 	.word	0x693a2564
   40f00:	2c6c3a25 	.word	0x2c6c3a25
   40f04:	642c703a 	.word	0x642c703a
   40f08:	25640d0a 	.word	0x25640d0a
   40f0c:	00a00000 	.word	0x00a00000
   40f10:	46444320 	.word	0x46444320
   40f14:	68617320 	.word	0x68617320
   40f18:	6f636375 	.word	0x6f636375
   40f1c:	72656421 	.word	0x72656421
   40f20:	0d0a0000 	.word	0x0d0a0000
   40f24:	53445743 	.word	0x53445743
   40f28:	3a25642c 	.word	0x3a25642c
   40f2c:	43484543 	.word	0x43484543
   40f30:	4b5f433a 	.word	0x4b5f433a
   40f34:	25642c53 	.word	0x25642c53
   40f38:	433a2564 	.word	0x433a2564
   40f3c:	2c697343 	.word	0x2c697343
   40f40:	6865636b 	.word	0x6865636b
   40f44:	706f696e 	.word	0x706f696e
   40f48:	743a2564 	.word	0x743a2564
   40f4c:	2c69734d 	.word	0x2c69734d
   40f50:	6f64656c 	.word	0x6f64656c
   40f54:	3a25642c 	.word	0x3a25642c
   40f58:	4457433a 	.word	0x4457433a
   40f5c:	25642c54 	.word	0x25642c54
   40f60:	4d523a25 	.word	0x4d523a25
   40f64:	642c4346 	.word	0x642c4346
   40f68:	4353533a 	.word	0x4353533a
   40f6c:	25640d0a 	.word	0x25640d0a
   40f70:	00a00000 	.word	0x00a00000
   40f74:	73746172 	.word	0x73746172
   40f78:	740a0d00 	.word	0x740a0d00
   40f7c:	73746172 	.word	0x73746172
   40f80:	740d0a00 	.word	0x740d0a00
   40f84:	00000000 	.word	0x00000000
   40f88:	08001800 	.word	0x08001800
   40f8c:	00028710 	.word	0x00028710
   40f90:	00002290 	.word	0x00002290
   40f94:	08012368 	.word	0x08012368
   40f98:	00035221 	.word	0x00035221

00040f9c <arm_maxpool_q7_HWC>:
   40f9c:	e24dd020 	sub	sp, sp, #32
   40fa0:	e1cd30b8 	strh	r3, [sp, #8]
   40fa4:	e1cd20b6 	strh	r2, [sp, #6]
   40fa8:	e1cd10b4 	strh	r1, [sp, #4]
   40fac:	e58d0000 	str	r0, [sp]
   40fb0:	e3a0c000 	mov	ip, #0
   40fb4:	e1cdc0ba 	strh	ip, [sp, #10]
   40fb8:	ea000068 	b	41160 <arm_maxpool_q7_HWC+0x1c4>
   40fbc:	e3a0c000 	mov	ip, #0
   40fc0:	e1cdc0be 	strh	ip, [sp, #14]
   40fc4:	ea00005e 	b	41144 <arm_maxpool_q7_HWC+0x1a8>
   40fc8:	e3a0c000 	mov	ip, #0
   40fcc:	e1cdc0bc 	strh	ip, [sp, #12]
   40fd0:	ea000054 	b	41128 <arm_maxpool_q7_HWC+0x18c>
   40fd4:	e3e0c080 	mvn	ip, #128	; 0x80
   40fd8:	e58dc014 	str	ip, [sp, #20]
   40fdc:	e1dd00fe 	ldrsh	r0, [sp, #14]
   40fe0:	e1dd12b6 	ldrh	r1, [sp, #38]	; 0x26
   40fe4:	e1ddc2b2 	ldrh	ip, [sp, #34]	; 0x22
   40fe8:	e0000091 	mul	r0, r1, r0
   40fec:	e040c00c 	sub	ip, r0, ip
   40ff0:	e1cdc1b2 	strh	ip, [sp, #18]
   40ff4:	ea000034 	b	410cc <arm_maxpool_q7_HWC+0x130>
   40ff8:	e1dd00fc 	ldrsh	r0, [sp, #12]
   40ffc:	e1dd12b6 	ldrh	r1, [sp, #38]	; 0x26
   41000:	e1ddc2b2 	ldrh	ip, [sp, #34]	; 0x22
   41004:	e0000091 	mul	r0, r1, r0
   41008:	e040c00c 	sub	ip, r0, ip
   4100c:	e1cdc1b0 	strh	ip, [sp, #16]
   41010:	ea000020 	b	41098 <arm_maxpool_q7_HWC+0xfc>
   41014:	e1ddc1f2 	ldrsh	ip, [sp, #18]
   41018:	e35c0000 	cmp	ip, #0
   4101c:	4a00001a 	bmi	4108c <arm_maxpool_q7_HWC+0xf0>
   41020:	e1ddc1f0 	ldrsh	ip, [sp, #16]
   41024:	e35c0000 	cmp	ip, #0
   41028:	4a000017 	bmi	4108c <arm_maxpool_q7_HWC+0xf0>
   4102c:	e1ddc0b4 	ldrh	ip, [sp, #4]
   41030:	e1dd01f2 	ldrsh	r0, [sp, #18]
   41034:	e15c0000 	cmp	ip, r0
   41038:	da000013 	ble	4108c <arm_maxpool_q7_HWC+0xf0>
   4103c:	e1ddc0b4 	ldrh	ip, [sp, #4]
   41040:	e1dd01f0 	ldrsh	r0, [sp, #16]
   41044:	e15c0000 	cmp	ip, r0
   41048:	da00000f 	ble	4108c <arm_maxpool_q7_HWC+0xf0>
   4104c:	e1dd11f2 	ldrsh	r1, [sp, #18]
   41050:	e1dd20b4 	ldrh	r2, [sp, #4]
   41054:	e1dd01f0 	ldrsh	r0, [sp, #16]
   41058:	e1ddc0b6 	ldrh	ip, [sp, #6]
   4105c:	e59d3000 	ldr	r3, [sp]
   41060:	e0210192 	mla	r1, r2, r1, r0
   41064:	e1dd00fa 	ldrsh	r0, [sp, #10]
   41068:	e02c0c91 	mla	ip, r1, ip, r0
   4106c:	e193c0dc 	ldrsb	ip, [r3, ip]
   41070:	e5cdc018 	strb	ip, [sp, #24]
   41074:	e59dc014 	ldr	ip, [sp, #20]
   41078:	e1dd01d8 	ldrsb	r0, [sp, #24]
   4107c:	e15c0000 	cmp	ip, r0
   41080:	aa000001 	bge	4108c <arm_maxpool_q7_HWC+0xf0>
   41084:	e1ddc1d8 	ldrsb	ip, [sp, #24]
   41088:	e58dc014 	str	ip, [sp, #20]
   4108c:	e1ddc1f0 	ldrsh	ip, [sp, #16]
   41090:	e28cc001 	add	ip, ip, #1
   41094:	e1cdc1b0 	strh	ip, [sp, #16]
   41098:	e1dd00fc 	ldrsh	r0, [sp, #12]
   4109c:	e1dd12b6 	ldrh	r1, [sp, #38]	; 0x26
   410a0:	e1ddc2b2 	ldrh	ip, [sp, #34]	; 0x22
   410a4:	e0000091 	mul	r0, r1, r0
   410a8:	e1dd10b8 	ldrh	r1, [sp, #8]
   410ac:	e1dd21f0 	ldrsh	r2, [sp, #16]
   410b0:	e040c00c 	sub	ip, r0, ip
   410b4:	e081c00c 	add	ip, r1, ip
   410b8:	e15c0002 	cmp	ip, r2
   410bc:	caffffd4 	bgt	41014 <arm_maxpool_q7_HWC+0x78>
   410c0:	e1ddc1f2 	ldrsh	ip, [sp, #18]
   410c4:	e28cc001 	add	ip, ip, #1
   410c8:	e1cdc1b2 	strh	ip, [sp, #18]
   410cc:	e1dd00fe 	ldrsh	r0, [sp, #14]
   410d0:	e1dd12b6 	ldrh	r1, [sp, #38]	; 0x26
   410d4:	e1ddc2b2 	ldrh	ip, [sp, #34]	; 0x22
   410d8:	e0000091 	mul	r0, r1, r0
   410dc:	e1dd10b8 	ldrh	r1, [sp, #8]
   410e0:	e1dd21f2 	ldrsh	r2, [sp, #18]
   410e4:	e040c00c 	sub	ip, r0, ip
   410e8:	e081c00c 	add	ip, r1, ip
   410ec:	e15c0002 	cmp	ip, r2
   410f0:	caffffc0 	bgt	40ff8 <arm_maxpool_q7_HWC+0x5c>
   410f4:	e1dd10fe 	ldrsh	r1, [sp, #14]
   410f8:	e1dd22ba 	ldrh	r2, [sp, #42]	; 0x2a
   410fc:	e1dd00fc 	ldrsh	r0, [sp, #12]
   41100:	e1ddc0b6 	ldrh	ip, [sp, #6]
   41104:	e0210192 	mla	r1, r2, r1, r0
   41108:	e59d2030 	ldr	r2, [sp, #48]	; 0x30
   4110c:	e1dd00fa 	ldrsh	r0, [sp, #10]
   41110:	e0200c91 	mla	r0, r1, ip, r0
   41114:	e1ddc1d7 	ldrsb	ip, [sp, #23]
   41118:	e7c2c000 	strb	ip, [r2, r0]
   4111c:	e1ddc0fc 	ldrsh	ip, [sp, #12]
   41120:	e28cc001 	add	ip, ip, #1
   41124:	e1cdc0bc 	strh	ip, [sp, #12]
   41128:	e1ddc2ba 	ldrh	ip, [sp, #42]	; 0x2a
   4112c:	e1dd00fc 	ldrsh	r0, [sp, #12]
   41130:	e15c0000 	cmp	ip, r0
   41134:	caffffa6 	bgt	40fd4 <arm_maxpool_q7_HWC+0x38>
   41138:	e1ddc0fe 	ldrsh	ip, [sp, #14]
   4113c:	e28cc001 	add	ip, ip, #1
   41140:	e1cdc0be 	strh	ip, [sp, #14]
   41144:	e1ddc2ba 	ldrh	ip, [sp, #42]	; 0x2a
   41148:	e1dd00fe 	ldrsh	r0, [sp, #14]
   4114c:	e15c0000 	cmp	ip, r0
   41150:	caffff9c 	bgt	40fc8 <arm_maxpool_q7_HWC+0x2c>
   41154:	e1ddc0fa 	ldrsh	ip, [sp, #10]
   41158:	e28cc001 	add	ip, ip, #1
   4115c:	e1cdc0ba 	strh	ip, [sp, #10]
   41160:	e1ddc0b6 	ldrh	ip, [sp, #6]
   41164:	e1dd00fa 	ldrsh	r0, [sp, #10]
   41168:	e15c0000 	cmp	ip, r0
   4116c:	caffff92 	bgt	40fbc <arm_maxpool_q7_HWC+0x20>
   41170:	e3a00000 	mov	r0, #0
   41174:	e28dd020 	add	sp, sp, #32
   41178:	e12fff1e 	bx	lr

0004117c <arm_avepool_q7_HWC>:
   4117c:	e92d4000 	stmfd	sp!, {lr}
   41180:	e24dd024 	sub	sp, sp, #36	; 0x24
   41184:	e1cd30bc 	strh	r3, [sp, #12]
   41188:	e1cd20ba 	strh	r2, [sp, #10]
   4118c:	e1cd10b8 	strh	r1, [sp, #8]
   41190:	e58d0000 	str	r0, [sp]
   41194:	e3a0c000 	mov	ip, #0
   41198:	e58dc004 	str	ip, [sp, #4]
   4119c:	e3a0c000 	mov	ip, #0
   411a0:	e1cdc0be 	strh	ip, [sp, #14]
   411a4:	ea00006b 	b	41358 <arm_avepool_q7_HWC+0x1dc>
   411a8:	e3a0c000 	mov	ip, #0
   411ac:	e1cdc1b2 	strh	ip, [sp, #18]
   411b0:	ea000061 	b	4133c <arm_avepool_q7_HWC+0x1c0>
   411b4:	e3a0c000 	mov	ip, #0
   411b8:	e1cdc1b0 	strh	ip, [sp, #16]
   411bc:	ea000057 	b	41320 <arm_avepool_q7_HWC+0x1a4>
   411c0:	e3a0c000 	mov	ip, #0
   411c4:	e58dc018 	str	ip, [sp, #24]
   411c8:	e3a0c000 	mov	ip, #0
   411cc:	e58dc01c 	str	ip, [sp, #28]
   411d0:	e1dd01f2 	ldrsh	r0, [sp, #18]
   411d4:	e1dd12be 	ldrh	r1, [sp, #46]	; 0x2e
   411d8:	e1ddc2ba 	ldrh	ip, [sp, #42]	; 0x2a
   411dc:	e0000091 	mul	r0, r1, r0
   411e0:	e040c00c 	sub	ip, r0, ip
   411e4:	e1cdc1b6 	strh	ip, [sp, #22]
   411e8:	ea000033 	b	412bc <arm_avepool_q7_HWC+0x140>
   411ec:	e1dd01f0 	ldrsh	r0, [sp, #16]
   411f0:	e1dd12be 	ldrh	r1, [sp, #46]	; 0x2e
   411f4:	e1ddc2ba 	ldrh	ip, [sp, #42]	; 0x2a
   411f8:	e0000091 	mul	r0, r1, r0
   411fc:	e040c00c 	sub	ip, r0, ip
   41200:	e1cdc1b4 	strh	ip, [sp, #20]
   41204:	ea00001f 	b	41288 <arm_avepool_q7_HWC+0x10c>
   41208:	e1ddc1f6 	ldrsh	ip, [sp, #22]
   4120c:	e35c0000 	cmp	ip, #0
   41210:	4a000019 	bmi	4127c <arm_avepool_q7_HWC+0x100>
   41214:	e1ddc1f4 	ldrsh	ip, [sp, #20]
   41218:	e35c0000 	cmp	ip, #0
   4121c:	4a000016 	bmi	4127c <arm_avepool_q7_HWC+0x100>
   41220:	e1ddc0b8 	ldrh	ip, [sp, #8]
   41224:	e1dd01f6 	ldrsh	r0, [sp, #22]
   41228:	e15c0000 	cmp	ip, r0
   4122c:	da000012 	ble	4127c <arm_avepool_q7_HWC+0x100>
   41230:	e1ddc0b8 	ldrh	ip, [sp, #8]
   41234:	e1dd01f4 	ldrsh	r0, [sp, #20]
   41238:	e15c0000 	cmp	ip, r0
   4123c:	da00000e 	ble	4127c <arm_avepool_q7_HWC+0x100>
   41240:	e1dd11f6 	ldrsh	r1, [sp, #22]
   41244:	e1dd20b8 	ldrh	r2, [sp, #8]
   41248:	e1dd01f4 	ldrsh	r0, [sp, #20]
   4124c:	e1ddc0ba 	ldrh	ip, [sp, #10]
   41250:	e0210192 	mla	r1, r2, r1, r0
   41254:	e59d2000 	ldr	r2, [sp]
   41258:	e1dd00fe 	ldrsh	r0, [sp, #14]
   4125c:	e0200c91 	mla	r0, r1, ip, r0
   41260:	e59dc018 	ldr	ip, [sp, #24]
   41264:	e19200d0 	ldrsb	r0, [r2, r0]
   41268:	e080c00c 	add	ip, r0, ip
   4126c:	e58dc018 	str	ip, [sp, #24]
   41270:	e59dc01c 	ldr	ip, [sp, #28]
   41274:	e28cc001 	add	ip, ip, #1
   41278:	e58dc01c 	str	ip, [sp, #28]
   4127c:	e1ddc1f4 	ldrsh	ip, [sp, #20]
   41280:	e28cc001 	add	ip, ip, #1
   41284:	e1cdc1b4 	strh	ip, [sp, #20]
   41288:	e1dd01f0 	ldrsh	r0, [sp, #16]
   4128c:	e1dd12be 	ldrh	r1, [sp, #46]	; 0x2e
   41290:	e1ddc2ba 	ldrh	ip, [sp, #42]	; 0x2a
   41294:	e0000091 	mul	r0, r1, r0
   41298:	e1dd10bc 	ldrh	r1, [sp, #12]
   4129c:	e1dd21f4 	ldrsh	r2, [sp, #20]
   412a0:	e040c00c 	sub	ip, r0, ip
   412a4:	e081c00c 	add	ip, r1, ip
   412a8:	e15c0002 	cmp	ip, r2
   412ac:	caffffd5 	bgt	41208 <arm_avepool_q7_HWC+0x8c>
   412b0:	e1ddc1f6 	ldrsh	ip, [sp, #22]
   412b4:	e28cc001 	add	ip, ip, #1
   412b8:	e1cdc1b6 	strh	ip, [sp, #22]
   412bc:	e1dd01f2 	ldrsh	r0, [sp, #18]
   412c0:	e1dd12be 	ldrh	r1, [sp, #46]	; 0x2e
   412c4:	e1ddc2ba 	ldrh	ip, [sp, #42]	; 0x2a
   412c8:	e0000091 	mul	r0, r1, r0
   412cc:	e1dd10bc 	ldrh	r1, [sp, #12]
   412d0:	e1dd21f6 	ldrsh	r2, [sp, #22]
   412d4:	e040c00c 	sub	ip, r0, ip
   412d8:	e081c00c 	add	ip, r1, ip
   412dc:	e15c0002 	cmp	ip, r2
   412e0:	caffffc1 	bgt	411ec <arm_avepool_q7_HWC+0x70>
   412e4:	e59d0018 	ldr	r0, [sp, #24]
   412e8:	e59d101c 	ldr	r1, [sp, #28]
   412ec:	eb000b3a 	bl	43fdc <__aeabi_idiv>
   412f0:	e1ddc1f2 	ldrsh	ip, [sp, #18]
   412f4:	e1dd33b2 	ldrh	r3, [sp, #50]	; 0x32
   412f8:	e1dd21f0 	ldrsh	r2, [sp, #16]
   412fc:	e1dd10ba 	ldrh	r1, [sp, #10]
   41300:	e59de038 	ldr	lr, [sp, #56]	; 0x38
   41304:	e0222c93 	mla	r2, r3, ip, r2
   41308:	e1ddc0fe 	ldrsh	ip, [sp, #14]
   4130c:	e02cc192 	mla	ip, r2, r1, ip
   41310:	e7ce000c 	strb	r0, [lr, ip]
   41314:	e1ddc1f0 	ldrsh	ip, [sp, #16]
   41318:	e28cc001 	add	ip, ip, #1
   4131c:	e1cdc1b0 	strh	ip, [sp, #16]
   41320:	e1ddc3b2 	ldrh	ip, [sp, #50]	; 0x32
   41324:	e1dd01f0 	ldrsh	r0, [sp, #16]
   41328:	e15c0000 	cmp	ip, r0
   4132c:	caffffa3 	bgt	411c0 <arm_avepool_q7_HWC+0x44>
   41330:	e1ddc1f2 	ldrsh	ip, [sp, #18]
   41334:	e28cc001 	add	ip, ip, #1
   41338:	e1cdc1b2 	strh	ip, [sp, #18]
   4133c:	e1ddc3b2 	ldrh	ip, [sp, #50]	; 0x32
   41340:	e1dd01f2 	ldrsh	r0, [sp, #18]
   41344:	e15c0000 	cmp	ip, r0
   41348:	caffff99 	bgt	411b4 <arm_avepool_q7_HWC+0x38>
   4134c:	e1ddc0fe 	ldrsh	ip, [sp, #14]
   41350:	e28cc001 	add	ip, ip, #1
   41354:	e1cdc0be 	strh	ip, [sp, #14]
   41358:	e1ddc0ba 	ldrh	ip, [sp, #10]
   4135c:	e1dd00fe 	ldrsh	r0, [sp, #14]
   41360:	e15c0000 	cmp	ip, r0
   41364:	caffff8f 	bgt	411a8 <arm_avepool_q7_HWC+0x2c>
   41368:	e59d0004 	ldr	r0, [sp, #4]
   4136c:	e28dd024 	add	sp, sp, #36	; 0x24
   41370:	e8bd8000 	ldmfd	sp!, {pc}

00041374 <RS485_Tx1>:
   41374:	e12fff1e 	bx	lr

00041378 <RS485_Rx1>:
   41378:	e12fff1e 	bx	lr

0004137c <RS485_sci_lin_Tx>:
   4137c:	e59f033c 	ldr	r0, [pc, #828]	; 416c0 <fputc+0x34>
   41380:	e590c000 	ldr	ip, [r0]
   41384:	e38cc002 	orr	ip, ip, #2
   41388:	e580c000 	str	ip, [r0]
   4138c:	e12fff1e 	bx	lr

00041390 <RS485_sci_lin_Rx>:
   41390:	e59f0328 	ldr	r0, [pc, #808]	; 416c0 <fputc+0x34>
   41394:	e590c000 	ldr	ip, [r0]
   41398:	e3ccc002 	bic	ip, ip, #2
   4139c:	e580c000 	str	ip, [r0]
   413a0:	e12fff1e 	bx	lr

000413a4 <sci_Send>:
   413a4:	e24dd008 	sub	sp, sp, #8
   413a8:	e58d1004 	str	r1, [sp, #4]
   413ac:	e58d0000 	str	r0, [sp]
   413b0:	e59dc004 	ldr	ip, [sp, #4]
   413b4:	e35c0000 	cmp	ip, #0
   413b8:	e24c0001 	sub	r0, ip, #1
   413bc:	e58d0004 	str	r0, [sp, #4]
   413c0:	0a00000d 	beq	413fc <sci_Send+0x58>
   413c4:	e59fc2f8 	ldr	ip, [pc, #760]	; 416c4 <fputc+0x38>
   413c8:	e59cc000 	ldr	ip, [ip]
   413cc:	e31c0c01 	tst	ip, #256	; 0x100
   413d0:	0afffffb 	beq	413c4 <sci_Send+0x20>
   413d4:	e59dc000 	ldr	ip, [sp]
   413d8:	e59f12e8 	ldr	r1, [pc, #744]	; 416c8 <fputc+0x3c>
   413dc:	e4dc0001 	ldrb	r0, [ip], #1
   413e0:	e58dc000 	str	ip, [sp]
   413e4:	e5810000 	str	r0, [r1]
   413e8:	e59dc004 	ldr	ip, [sp, #4]
   413ec:	e35c0000 	cmp	ip, #0
   413f0:	e24c0001 	sub	r0, ip, #1
   413f4:	e58d0004 	str	r0, [sp, #4]
   413f8:	1afffff1 	bne	413c4 <sci_Send+0x20>
   413fc:	e28dd008 	add	sp, sp, #8
   41400:	e12fff1e 	bx	lr

00041404 <sci_lin_Send>:
   41404:	e24dd008 	sub	sp, sp, #8
   41408:	e58d1004 	str	r1, [sp, #4]
   4140c:	e58d0000 	str	r0, [sp]
   41410:	e59dc004 	ldr	ip, [sp, #4]
   41414:	e35c0000 	cmp	ip, #0
   41418:	e24c0001 	sub	r0, ip, #1
   4141c:	e58d0004 	str	r0, [sp, #4]
   41420:	0a00000d 	beq	4145c <sci_lin_Send+0x58>
   41424:	e59fc2a0 	ldr	ip, [pc, #672]	; 416cc <fputc+0x40>
   41428:	e59cc000 	ldr	ip, [ip]
   4142c:	e31c0c01 	tst	ip, #256	; 0x100
   41430:	0afffffb 	beq	41424 <sci_lin_Send+0x20>
   41434:	e59dc000 	ldr	ip, [sp]
   41438:	e59f1290 	ldr	r1, [pc, #656]	; 416d0 <fputc+0x44>
   4143c:	e4dc0001 	ldrb	r0, [ip], #1
   41440:	e58dc000 	str	ip, [sp]
   41444:	e5810000 	str	r0, [r1]
   41448:	e59dc004 	ldr	ip, [sp, #4]
   4144c:	e35c0000 	cmp	ip, #0
   41450:	e24c0001 	sub	r0, ip, #1
   41454:	e58d0004 	str	r0, [sp, #4]
   41458:	1afffff1 	bne	41424 <sci_lin_Send+0x20>
   4145c:	e28dd008 	add	sp, sp, #8
   41460:	e12fff1e 	bx	lr

00041464 <sciNotification>:
   41464:	e92d400e 	push	{r1, r2, r3, lr}
   41468:	e58d1004 	str	r1, [sp, #4]
   4146c:	e58d0000 	str	r0, [sp]
   41470:	e59dc004 	ldr	ip, [sp, #4]
   41474:	e35c0c02 	cmp	ip, #512	; 0x200
   41478:	1a000034 	bne	41550 <sciNotification+0xec>
   4147c:	e59f0250 	ldr	r0, [pc, #592]	; 416d4 <fputc+0x48>
   41480:	e59dc000 	ldr	ip, [sp]
   41484:	e150000c 	cmp	r0, ip
   41488:	1a000018 	bne	414f0 <sciNotification+0x8c>
   4148c:	e59f0244 	ldr	r0, [pc, #580]	; 416d8 <fputc+0x4c>
   41490:	e3a0c102 	mov	ip, #-2147483648	; 0x80000000
   41494:	e580c000 	str	ip, [r0]
   41498:	e59f0240 	ldr	r0, [pc, #576]	; 416e0 <fputc+0x54>
   4149c:	e59fc240 	ldr	ip, [pc, #576]	; 416e4 <fputc+0x58>
   414a0:	e59f1234 	ldr	r1, [pc, #564]	; 416dc <fputc+0x50>
   414a4:	e5900000 	ldr	r0, [r0]
   414a8:	e5dcc000 	ldrb	ip, [ip]
   414ac:	e7c1c000 	strb	ip, [r1, r0]
   414b0:	e59f0228 	ldr	r0, [pc, #552]	; 416e0 <fputc+0x54>
   414b4:	e590c000 	ldr	ip, [r0]
   414b8:	e28cc001 	add	ip, ip, #1
   414bc:	e580c000 	str	ip, [r0]
   414c0:	e59fc218 	ldr	ip, [pc, #536]	; 416e0 <fputc+0x54>
   414c4:	e59cc000 	ldr	ip, [ip]
   414c8:	e35c0c02 	cmp	ip, #512	; 0x200
   414cc:	3a000002 	bcc	414dc <sciNotification+0x78>
   414d0:	e59f0208 	ldr	r0, [pc, #520]	; 416e0 <fputc+0x54>
   414d4:	e3a0c000 	mov	ip, #0
   414d8:	e580c000 	str	ip, [r0]
   414dc:	e59f01f0 	ldr	r0, [pc, #496]	; 416d4 <fputc+0x48>
   414e0:	e59f21fc 	ldr	r2, [pc, #508]	; 416e4 <fputc+0x58>
   414e4:	e3a01001 	mov	r1, #1
   414e8:	ebffed60 	bl	3ca70 <sciReceive>
   414ec:	ea000017 	b	41550 <sciNotification+0xec>
   414f0:	e59f01f0 	ldr	r0, [pc, #496]	; 416e8 <fputc+0x5c>
   414f4:	e3a0c102 	mov	ip, #-2147483648	; 0x80000000
   414f8:	e580c000 	str	ip, [r0]
   414fc:	e59f01ec 	ldr	r0, [pc, #492]	; 416f0 <fputc+0x64>
   41500:	e59fc1ec 	ldr	ip, [pc, #492]	; 416f4 <fputc+0x68>
   41504:	e59f11e0 	ldr	r1, [pc, #480]	; 416ec <fputc+0x60>
   41508:	e5900000 	ldr	r0, [r0]
   4150c:	e5dcc000 	ldrb	ip, [ip]
   41510:	e7c1c000 	strb	ip, [r1, r0]
   41514:	e59f01d4 	ldr	r0, [pc, #468]	; 416f0 <fputc+0x64>
   41518:	e590c000 	ldr	ip, [r0]
   4151c:	e28cc001 	add	ip, ip, #1
   41520:	e580c000 	str	ip, [r0]
   41524:	e59fc1c4 	ldr	ip, [pc, #452]	; 416f0 <fputc+0x64>
   41528:	e59cc000 	ldr	ip, [ip]
   4152c:	e35c0c02 	cmp	ip, #512	; 0x200
   41530:	3a000002 	bcc	41540 <sciNotification+0xdc>
   41534:	e59f01b4 	ldr	r0, [pc, #436]	; 416f0 <fputc+0x64>
   41538:	e3a0c000 	mov	ip, #0
   4153c:	e580c000 	str	ip, [r0]
   41540:	e59f01b0 	ldr	r0, [pc, #432]	; 416f8 <fputc+0x6c>
   41544:	e59f21a8 	ldr	r2, [pc, #424]	; 416f4 <fputc+0x68>
   41548:	e3a01001 	mov	r1, #1
   4154c:	ebffed47 	bl	3ca70 <sciReceive>
   41550:	e8bd800e 	pop	{r1, r2, r3, pc}

00041554 <user_sci_init>:
   41554:	e92d4008 	push	{r3, lr}
   41558:	e59f019c 	ldr	r0, [pc, #412]	; 416fc <fputc+0x70>
   4155c:	e590c000 	ldr	ip, [r0]
   41560:	e38cc002 	orr	ip, ip, #2
   41564:	e580c000 	str	ip, [r0]
   41568:	ebffff88 	bl	41390 <RS485_sci_lin_Rx>
   4156c:	e59f018c 	ldr	r0, [pc, #396]	; 41700 <fputc+0x74>
   41570:	e59fc18c 	ldr	ip, [pc, #396]	; 41704 <fputc+0x78>
   41574:	e580c000 	str	ip, [r0]
   41578:	e59f0188 	ldr	r0, [pc, #392]	; 41708 <fputc+0x7c>
   4157c:	e59fc188 	ldr	ip, [pc, #392]	; 4170c <fputc+0x80>
   41580:	e580c000 	str	ip, [r0]
   41584:	e59f0184 	ldr	r0, [pc, #388]	; 41710 <fputc+0x84>
   41588:	e59fc184 	ldr	ip, [pc, #388]	; 41714 <fputc+0x88>
   4158c:	e580c000 	str	ip, [r0]
   41590:	e59f0148 	ldr	r0, [pc, #328]	; 416e0 <fputc+0x54>
   41594:	e3a0c000 	mov	ip, #0
   41598:	e580c000 	str	ip, [r0]
   4159c:	e59f0134 	ldr	r0, [pc, #308]	; 416d8 <fputc+0x4c>
   415a0:	e3a0c000 	mov	ip, #0
   415a4:	e580c000 	str	ip, [r0]
   415a8:	e59f0168 	ldr	r0, [pc, #360]	; 41718 <fputc+0x8c>
   415ac:	e59fc168 	ldr	ip, [pc, #360]	; 4171c <fputc+0x90>
   415b0:	e580c000 	str	ip, [r0]
   415b4:	e59f0164 	ldr	r0, [pc, #356]	; 41720 <fputc+0x94>
   415b8:	e59fc164 	ldr	ip, [pc, #356]	; 41724 <fputc+0x98>
   415bc:	e580c000 	str	ip, [r0]
   415c0:	e59f0160 	ldr	r0, [pc, #352]	; 41728 <fputc+0x9c>
   415c4:	e59fc160 	ldr	ip, [pc, #352]	; 4172c <fputc+0xa0>
   415c8:	e580c000 	str	ip, [r0]
   415cc:	e59f011c 	ldr	r0, [pc, #284]	; 416f0 <fputc+0x64>
   415d0:	e3a0c000 	mov	ip, #0
   415d4:	e580c000 	str	ip, [r0]
   415d8:	e59f0108 	ldr	r0, [pc, #264]	; 416e8 <fputc+0x5c>
   415dc:	e3a0c000 	mov	ip, #0
   415e0:	e580c000 	str	ip, [r0]
   415e4:	f1080080 	cpsie	i
   415e8:	e59f20f4 	ldr	r2, [pc, #244]	; 416e4 <fputc+0x58>
   415ec:	e59f00e0 	ldr	r0, [pc, #224]	; 416d4 <fputc+0x48>
   415f0:	e3a01001 	mov	r1, #1
   415f4:	ebffed1d 	bl	3ca70 <sciReceive>
   415f8:	e59f00f8 	ldr	r0, [pc, #248]	; 416f8 <fputc+0x6c>
   415fc:	e59f20f0 	ldr	r2, [pc, #240]	; 416f4 <fputc+0x68>
   41600:	e3a01001 	mov	r1, #1
   41604:	ebffed19 	bl	3ca70 <sciReceive>
   41608:	e8bd8008 	pop	{r3, pc}

0004160c <fputs>:
   4160c:	e92d4000 	stmfd	sp!, {lr}
   41610:	e24dd014 	sub	sp, sp, #20
   41614:	e58d1004 	str	r1, [sp, #4]
   41618:	e58d0000 	str	r0, [sp]
   4161c:	e59d0000 	ldr	r0, [sp]
   41620:	fa000b36 	blx	44300 <strlen>
   41624:	e58d000c 	str	r0, [sp, #12]
   41628:	e3a0c000 	mov	ip, #0
   4162c:	e58dc008 	str	ip, [sp, #8]
   41630:	e59dc00c 	ldr	ip, [sp, #12]
   41634:	e59d0008 	ldr	r0, [sp, #8]
   41638:	e15c0000 	cmp	ip, r0
   4163c:	9a00000f 	bls	41680 <fputs+0x74>
   41640:	e59fc07c 	ldr	ip, [pc, #124]	; 416c4 <fputc+0x38>
   41644:	e59cc000 	ldr	ip, [ip]
   41648:	e31c0c01 	tst	ip, #256	; 0x100
   4164c:	0afffffb 	beq	41640 <fputs+0x34>
   41650:	e59dc000 	ldr	ip, [sp]
   41654:	e59d0008 	ldr	r0, [sp, #8]
   41658:	e59f1068 	ldr	r1, [pc, #104]	; 416c8 <fputc+0x3c>
   4165c:	e7d0c00c 	ldrb	ip, [r0, ip]
   41660:	e581c000 	str	ip, [r1]
   41664:	e59dc008 	ldr	ip, [sp, #8]
   41668:	e28cc001 	add	ip, ip, #1
   4166c:	e58dc008 	str	ip, [sp, #8]
   41670:	e59dc00c 	ldr	ip, [sp, #12]
   41674:	e59d0008 	ldr	r0, [sp, #8]
   41678:	e15c0000 	cmp	ip, r0
   4167c:	8affffef 	bhi	41640 <fputs+0x34>
   41680:	e59d000c 	ldr	r0, [sp, #12]
   41684:	e28dd014 	add	sp, sp, #20
   41688:	e8bd8000 	ldmfd	sp!, {pc}

0004168c <fputc>:
   4168c:	e24dd008 	sub	sp, sp, #8
   41690:	e58d1004 	str	r1, [sp, #4]
   41694:	e58d0000 	str	r0, [sp]
   41698:	e59fc024 	ldr	ip, [pc, #36]	; 416c4 <fputc+0x38>
   4169c:	e59cc000 	ldr	ip, [ip]
   416a0:	e31c0c01 	tst	ip, #256	; 0x100
   416a4:	0afffffb 	beq	41698 <fputc+0xc>
   416a8:	e59f0018 	ldr	r0, [pc, #24]	; 416c8 <fputc+0x3c>
   416ac:	e5ddc003 	ldrb	ip, [sp, #3]
   416b0:	e580c000 	str	ip, [r0]
   416b4:	e59d0000 	ldr	r0, [sp]
   416b8:	e28dd008 	add	sp, sp, #8
   416bc:	e12fff1e 	bx	lr
   416c0:	fff7bc3c 	.word	0xfff7bc3c
   416c4:	fff7e51c 	.word	0xfff7e51c
   416c8:	fff7e538 	.word	0xfff7e538
   416cc:	fff7e41c 	.word	0xfff7e41c
   416d0:	fff7e438 	.word	0xfff7e438
   416d4:	fff7e500 	.word	0xfff7e500
   416d8:	08011f00 	.word	0x08011f00
   416dc:	08011cfc 	.word	0x08011cfc
   416e0:	08011efc 	.word	0x08011efc
   416e4:	080123c0 	.word	0x080123c0
   416e8:	08011cec 	.word	0x08011cec
   416ec:	08011ae8 	.word	0x08011ae8
   416f0:	08011ce8 	.word	0x08011ce8
   416f4:	080123e0 	.word	0x080123e0
   416f8:	fff7e400 	.word	0xfff7e400
   416fc:	fff7bc34 	.word	0xfff7bc34
   41700:	08011f0c 	.word	0x08011f0c
   41704:	00041378 	.word	0x00041378
   41708:	08011f08 	.word	0x08011f08
   4170c:	00041374 	.word	0x00041374
   41710:	08011f04 	.word	0x08011f04
   41714:	000413a4 	.word	0x000413a4
   41718:	08011cf8 	.word	0x08011cf8
   4171c:	00041390 	.word	0x00041390
   41720:	08011cf4 	.word	0x08011cf4
   41724:	0004137c 	.word	0x0004137c
   41728:	08011cf0 	.word	0x08011cf0
   4172c:	00041404 	.word	0x00041404

00041730 <_coreInitRegisters_>:
   41730:	e1a0000e 	mov	r0, lr
   41734:	e3a01000 	mov	r1, #0
   41738:	e3a02000 	mov	r2, #0
   4173c:	e3a03000 	mov	r3, #0
   41740:	e3a04000 	mov	r4, #0
   41744:	e3a05000 	mov	r5, #0
   41748:	e3a06000 	mov	r6, #0
   4174c:	e3a07000 	mov	r7, #0
   41750:	e3a08000 	mov	r8, #0
   41754:	e3a09000 	mov	r9, #0
   41758:	e3a0a000 	mov	sl, #0
   4175c:	e3a0b000 	mov	fp, #0
   41760:	e3a0c000 	mov	ip, #0
   41764:	e3a0d000 	mov	sp, #0
   41768:	e10f1000 	mrs	r1, CPSR
   4176c:	e16ff001 	msr	SPSR_fsxc, r1
   41770:	f1020011 	cps	#17
   41774:	e1a0e000 	mov	lr, r0
   41778:	e3a08000 	mov	r8, #0
   4177c:	e3a09000 	mov	r9, #0
   41780:	e3a0a000 	mov	sl, #0
   41784:	e3a0b000 	mov	fp, #0
   41788:	e3a0c000 	mov	ip, #0
   4178c:	e10f1000 	mrs	r1, CPSR
   41790:	e16ff001 	msr	SPSR_fsxc, r1
   41794:	f1020012 	cps	#18
   41798:	e1a0e000 	mov	lr, r0
   4179c:	e10f1000 	mrs	r1, CPSR
   417a0:	e16ff001 	msr	SPSR_fsxc, r1
   417a4:	f1020017 	cps	#23
   417a8:	e1a0e000 	mov	lr, r0
   417ac:	e10f1000 	mrs	r1, CPSR
   417b0:	e16ff001 	msr	SPSR_fsxc, r1
   417b4:	f102001b 	cps	#27
   417b8:	e1a0e000 	mov	lr, r0
   417bc:	e10f1000 	mrs	r1, CPSR
   417c0:	e16ff001 	msr	SPSR_fsxc, r1
   417c4:	f102001f 	cps	#31
   417c8:	e1a0e000 	mov	lr, r0
   417cc:	e10f1000 	mrs	r1, CPSR
   417d0:	e16ff001 	msr	SPSR_fsxc, r1
   417d4:	ee112f50 	mrc	15, 0, r2, cr1, cr0, {2}
   417d8:	e382260f 	orr	r2, r2, #15728640	; 0xf00000
   417dc:	ee012f50 	mcr	15, 0, r2, cr1, cr0, {2}
   417e0:	e3a02101 	mov	r2, #1073741824	; 0x40000000
   417e4:	eee82a10 	vmsr	fpexc, r2
   417e8:	ec411b10 	vmov	d0, r1, r1
   417ec:	ec411b11 	vmov	d1, r1, r1
   417f0:	ec411b12 	vmov	d2, r1, r1
   417f4:	ec411b13 	vmov	d3, r1, r1
   417f8:	ec411b14 	vmov	d4, r1, r1
   417fc:	ec411b15 	vmov	d5, r1, r1
   41800:	ec411b16 	vmov	d6, r1, r1
   41804:	ec411b17 	vmov	d7, r1, r1
   41808:	ec411b18 	vmov	d8, r1, r1
   4180c:	ec411b19 	vmov	d9, r1, r1
   41810:	ec411b1a 	vmov	d10, r1, r1
   41814:	ec411b1b 	vmov	d11, r1, r1
   41818:	ec411b1c 	vmov	d12, r1, r1
   4181c:	ec411b1d 	vmov	d13, r1, r1
   41820:	ec411b1e 	vmov	d14, r1, r1
   41824:	ec411b1f 	vmov	d15, r1, r1
   41828:	ebffffff 	bl	4182c <next1>

0004182c <next1>:
   4182c:	ebffffff 	bl	41830 <next2>

00041830 <next2>:
   41830:	ebffffff 	bl	41834 <next3>

00041834 <next3>:
   41834:	ebffffff 	bl	41838 <next4>

00041838 <next4>:
   41838:	e12fff10 	bx	r0

0004183c <_coreInitStackPointer_>:
   4183c:	f1020011 	cps	#17
   41840:	e59fd030 	ldr	sp, [pc, #48]	; 41878 <fiqSp>
   41844:	f1020012 	cps	#18
   41848:	e59fd02c 	ldr	sp, [pc, #44]	; 4187c <irqSp>
   4184c:	f1020013 	cps	#19
   41850:	e59fd01c 	ldr	sp, [pc, #28]	; 41874 <svcSp>
   41854:	f1020017 	cps	#23
   41858:	e59fd020 	ldr	sp, [pc, #32]	; 41880 <abortSp>
   4185c:	f102001b 	cps	#27
   41860:	e59fd01c 	ldr	sp, [pc, #28]	; 41884 <undefSp>
   41864:	f102001f 	cps	#31
   41868:	e59fd000 	ldr	sp, [pc]	; 41870 <userSp>
   4186c:	e12fff1e 	bx	lr

00041870 <userSp>:
   41870:	08001000 	.word	0x08001000

00041874 <svcSp>:
   41874:	08001100 	.word	0x08001100

00041878 <fiqSp>:
   41878:	08001200 	.word	0x08001200

0004187c <irqSp>:
   4187c:	08001300 	.word	0x08001300

00041880 <abortSp>:
   41880:	08001400 	.word	0x08001400

00041884 <undefSp>:
   41884:	08001500 	.word	0x08001500

00041888 <_getCPSRValue_>:
   41888:	e10f0000 	mrs	r0, CPSR
   4188c:	e12fff1e 	bx	lr

00041890 <_gotoCPUIdle_>:
   41890:	e320f003 	wfi
   41894:	e1a00000 	nop			; (mov r0, r0)
   41898:	e1a00000 	nop			; (mov r0, r0)
   4189c:	e1a00000 	nop			; (mov r0, r0)
   418a0:	e1a00000 	nop			; (mov r0, r0)
   418a4:	e12fff1e 	bx	lr

000418a8 <_coreEnableVfp_>:
   418a8:	ee110f50 	mrc	15, 0, r0, cr1, cr0, {2}
   418ac:	e380060f 	orr	r0, r0, #15728640	; 0xf00000
   418b0:	ee010f50 	mcr	15, 0, r0, cr1, cr0, {2}
   418b4:	e3a00101 	mov	r0, #1073741824	; 0x40000000
   418b8:	eee80a10 	vmsr	fpexc, r0
   418bc:	e12fff1e 	bx	lr

000418c0 <_coreEnableEventBusExport_>:
   418c0:	ee190f1c 	mrc	15, 0, r0, cr9, cr12, {0}
   418c4:	e3800010 	orr	r0, r0, #16
   418c8:	ee090f1c 	mcr	15, 0, r0, cr9, cr12, {0}
   418cc:	e12fff1e 	bx	lr

000418d0 <_coreDisableEventBusExport_>:
   418d0:	ee190f1c 	mrc	15, 0, r0, cr9, cr12, {0}
   418d4:	e3c00010 	bic	r0, r0, #16
   418d8:	ee090f1c 	mcr	15, 0, r0, cr9, cr12, {0}
   418dc:	e12fff1e 	bx	lr

000418e0 <_coreEnableRamEcc_>:
   418e0:	ee110f30 	mrc	15, 0, r0, cr1, cr0, {1}
   418e4:	e3800303 	orr	r0, r0, #201326592	; 0xc000000
   418e8:	ee010f30 	mcr	15, 0, r0, cr1, cr0, {1}
   418ec:	e12fff1e 	bx	lr

000418f0 <_coreDisableRamEcc_>:
   418f0:	ee110f30 	mrc	15, 0, r0, cr1, cr0, {1}
   418f4:	e3c00303 	bic	r0, r0, #201326592	; 0xc000000
   418f8:	ee010f30 	mcr	15, 0, r0, cr1, cr0, {1}
   418fc:	e12fff1e 	bx	lr

00041900 <_coreEnableFlashEcc_>:
   41900:	ee110f30 	mrc	15, 0, r0, cr1, cr0, {1}
   41904:	e3800402 	orr	r0, r0, #33554432	; 0x2000000
   41908:	f57ff05f 	dmb	sy
   4190c:	ee010f30 	mcr	15, 0, r0, cr1, cr0, {1}
   41910:	e12fff1e 	bx	lr

00041914 <_coreDisableFlashEcc_>:
   41914:	ee110f30 	mrc	15, 0, r0, cr1, cr0, {1}
   41918:	e3c00402 	bic	r0, r0, #33554432	; 0x2000000
   4191c:	ee010f30 	mcr	15, 0, r0, cr1, cr0, {1}
   41920:	e12fff1e 	bx	lr

00041924 <_coreEnableIrqVicOffset_>:
   41924:	ee110f10 	mrc	15, 0, r0, cr1, cr0, {0}
   41928:	e3800401 	orr	r0, r0, #16777216	; 0x1000000
   4192c:	ee010f10 	mcr	15, 0, r0, cr1, cr0, {0}
   41930:	e12fff1e 	bx	lr

00041934 <_coreGetDataFault_>:
   41934:	ee150f10 	mrc	15, 0, r0, cr5, cr0, {0}
   41938:	e12fff1e 	bx	lr

0004193c <_coreClearDataFault_>:
   4193c:	e3a00000 	mov	r0, #0
   41940:	ee050f10 	mcr	15, 0, r0, cr5, cr0, {0}
   41944:	e12fff1e 	bx	lr

00041948 <_coreGetInstructionFault_>:
   41948:	ee150f30 	mrc	15, 0, r0, cr5, cr0, {1}
   4194c:	e12fff1e 	bx	lr

00041950 <_coreClearInstructionFault_>:
   41950:	e3a00000 	mov	r0, #0
   41954:	ee050f30 	mcr	15, 0, r0, cr5, cr0, {1}
   41958:	e12fff1e 	bx	lr

0004195c <_coreGetDataFaultAddress_>:
   4195c:	ee160f10 	mrc	15, 0, r0, cr6, cr0, {0}
   41960:	e12fff1e 	bx	lr

00041964 <_coreClearDataFaultAddress_>:
   41964:	e3a00000 	mov	r0, #0
   41968:	ee060f10 	mcr	15, 0, r0, cr6, cr0, {0}
   4196c:	e12fff1e 	bx	lr

00041970 <_coreGetInstructionFaultAddress_>:
   41970:	ee160f50 	mrc	15, 0, r0, cr6, cr0, {2}
   41974:	e12fff1e 	bx	lr

00041978 <_coreClearInstructionFaultAddress_>:
   41978:	e3a00000 	mov	r0, #0
   4197c:	ee060f50 	mcr	15, 0, r0, cr6, cr0, {2}
   41980:	e12fff1e 	bx	lr

00041984 <_coreGetAuxiliaryDataFault_>:
   41984:	ee150f11 	mrc	15, 0, r0, cr5, cr1, {0}
   41988:	e12fff1e 	bx	lr

0004198c <_coreClearAuxiliaryDataFault_>:
   4198c:	e3a00000 	mov	r0, #0
   41990:	ee050f11 	mcr	15, 0, r0, cr5, cr1, {0}
   41994:	e12fff1e 	bx	lr

00041998 <_coreGetAuxiliaryInstructionFault_>:
   41998:	ee150f31 	mrc	15, 0, r0, cr5, cr1, {1}
   4199c:	e12fff1e 	bx	lr

000419a0 <_coreClearAuxiliaryInstructionFault_>:
   419a0:	e3a00000 	mov	r0, #0
   419a4:	ee150f31 	mrc	15, 0, r0, cr5, cr1, {1}
   419a8:	e12fff1e 	bx	lr

000419ac <_disable_interrupt_>:
   419ac:	f10c00c0 	cpsid	if
   419b0:	e12fff1e 	bx	lr

000419b4 <_disable_FIQ_interrupt_>:
   419b4:	f10c0040 	cpsid	f
   419b8:	e12fff1e 	bx	lr

000419bc <_disable_IRQ_interrupt_>:
   419bc:	f10c0080 	cpsid	i
   419c0:	e12fff1e 	bx	lr

000419c4 <_enable_interrupt_>:
   419c4:	f10800c0 	cpsie	if
   419c8:	e12fff1e 	bx	lr

000419cc <_esmCcmErrorsClear_>:
   419cc:	e92d0007 	push	{r0, r1, r2}
   419d0:	e59f0048 	ldr	r0, [pc, #72]	; 41a20 <ESMSR1_REG>
   419d4:	e59f2064 	ldr	r2, [pc, #100]	; 41a40 <ESMSR1_ERR_CLR>
   419d8:	e5802000 	str	r2, [r0]
   419dc:	e59f0040 	ldr	r0, [pc, #64]	; 41a24 <ESMSR2_REG>
   419e0:	e59f205c 	ldr	r2, [pc, #92]	; 41a44 <ESMSR2_ERR_CLR>
   419e4:	e5802000 	str	r2, [r0]
   419e8:	e59f0040 	ldr	r0, [pc, #64]	; 41a30 <ESMSSR2_REG>
   419ec:	e59f2054 	ldr	r2, [pc, #84]	; 41a48 <ESMSSR2_ERR_CLR>
   419f0:	e5802000 	str	r2, [r0]
   419f4:	e59f0030 	ldr	r0, [pc, #48]	; 41a2c <ESMKEY_REG>
   419f8:	e3a02005 	mov	r2, #5
   419fc:	e5802000 	str	r2, [r0]
   41a00:	e59f0048 	ldr	r0, [pc, #72]	; 41a50 <VIM_INTREQ>
   41a04:	e59f2040 	ldr	r2, [pc, #64]	; 41a4c <VIM_INT_CLR>
   41a08:	e5802000 	str	r2, [r0]
   41a0c:	e59f0020 	ldr	r0, [pc, #32]	; 41a34 <CCMR4_STAT_REG>
   41a10:	e59f2024 	ldr	r2, [pc, #36]	; 41a3c <CCMR4_ERR_CLR>
   41a14:	e5802000 	str	r2, [r0]
   41a18:	e8bd0007 	pop	{r0, r1, r2}
   41a1c:	e12fff1e 	bx	lr

00041a20 <ESMSR1_REG>:
   41a20:	fffff518 	.word	0xfffff518

00041a24 <ESMSR2_REG>:
   41a24:	fffff51c 	.word	0xfffff51c

00041a28 <ESMSR3_REG>:
   41a28:	fffff520 	.word	0xfffff520

00041a2c <ESMKEY_REG>:
   41a2c:	fffff538 	.word	0xfffff538

00041a30 <ESMSSR2_REG>:
   41a30:	fffff53c 	.word	0xfffff53c

00041a34 <CCMR4_STAT_REG>:
   41a34:	fffff600 	.word	0xfffff600

00041a38 <ERR_CLR_WRD>:
   41a38:	ffffffff 	.word	0xffffffff

00041a3c <CCMR4_ERR_CLR>:
   41a3c:	00010000 	.word	0x00010000

00041a40 <ESMSR1_ERR_CLR>:
   41a40:	80000000 	.word	0x80000000

00041a44 <ESMSR2_ERR_CLR>:
   41a44:	00000004 	.word	0x00000004

00041a48 <ESMSSR2_ERR_CLR>:
   41a48:	00000004 	.word	0x00000004

00041a4c <VIM_INT_CLR>:
   41a4c:	00000001 	.word	0x00000001

00041a50 <VIM_INTREQ>:
   41a50:	fffffe20 	.word	0xfffffe20

00041a54 <_errata_CORTEXR4_57_>:
   41a54:	ee1f0f10 	mrc	15, 0, r0, cr15, cr0, {0}
   41a58:	e3800801 	orr	r0, r0, #65536	; 0x10000
   41a5c:	ee0f0f10 	mcr	15, 0, r0, cr15, cr0, {0}
   41a60:	e12fff1e 	bx	lr

00041a64 <_errata_CORTEXR4_66_>:
   41a64:	ee110f30 	mrc	15, 0, r0, cr1, cr0, {1}
   41a68:	e3800080 	orr	r0, r0, #128	; 0x80
   41a6c:	ee010f30 	mcr	15, 0, r0, cr1, cr0, {1}
   41a70:	e12fff1e 	bx	lr

00041a74 <__TI_PINIT_Base>:
   41a74:	00000000 	.word	0x00000000

00041a78 <__TI_PINIT_Limit>:
   41a78:	00000000 	.word	0x00000000

00041a7c <__SSAT>:
   41a7c:	e24dd010 	sub	sp, sp, #16
   41a80:	e58d1004 	str	r1, [sp, #4]
   41a84:	e58d0000 	str	r0, [sp]
   41a88:	e59dc004 	ldr	ip, [sp, #4]
   41a8c:	e35c0000 	cmp	ip, #0
   41a90:	0a000017 	beq	41af4 <__SSAT+0x78>
   41a94:	e59dc004 	ldr	ip, [sp, #4]
   41a98:	e35c0020 	cmp	ip, #32
   41a9c:	8a000014 	bhi	41af4 <__SSAT+0x78>
   41aa0:	e59dc004 	ldr	ip, [sp, #4]
   41aa4:	e3a01001 	mov	r1, #1
   41aa8:	e24cc001 	sub	ip, ip, #1
   41aac:	e3a00001 	mov	r0, #1
   41ab0:	e060cc11 	rsb	ip, r0, r1, lsl ip
   41ab4:	e58dc008 	str	ip, [sp, #8]
   41ab8:	e59dc008 	ldr	ip, [sp, #8]
   41abc:	e1e0c00c 	mvn	ip, ip
   41ac0:	e58dc00c 	str	ip, [sp, #12]
   41ac4:	e59d0000 	ldr	r0, [sp]
   41ac8:	e59dc008 	ldr	ip, [sp, #8]
   41acc:	e15c0000 	cmp	ip, r0
   41ad0:	aa000001 	bge	41adc <__SSAT+0x60>
   41ad4:	e59d0008 	ldr	r0, [sp, #8]
   41ad8:	ea000006 	b	41af8 <__SSAT+0x7c>
   41adc:	e59dc00c 	ldr	ip, [sp, #12]
   41ae0:	e59d0000 	ldr	r0, [sp]
   41ae4:	e15c0000 	cmp	ip, r0
   41ae8:	da000001 	ble	41af4 <__SSAT+0x78>
   41aec:	e59d000c 	ldr	r0, [sp, #12]
   41af0:	ea000000 	b	41af8 <__SSAT+0x7c>
   41af4:	e59d0000 	ldr	r0, [sp]
   41af8:	e28dd010 	add	sp, sp, #16
   41afc:	e12fff1e 	bx	lr

00041b00 <arm_convolve_HWC_q7_basic>:
   41b00:	e92d4070 	push	{r4, r5, r6, lr}
   41b04:	e24dd028 	sub	sp, sp, #40	; 0x28
   41b08:	e58d3004 	str	r3, [sp, #4]
   41b0c:	e1cd20be 	strh	r2, [sp, #14]
   41b10:	e1cd10bc 	strh	r1, [sp, #12]
   41b14:	e58d0000 	str	r0, [sp]
   41b18:	e3a0c000 	mov	ip, #0
   41b1c:	e1cdc1b0 	strh	ip, [sp, #16]
   41b20:	ea000089 	b	41d4c <arm_convolve_HWC_q7_basic+0x24c>
   41b24:	e3a0c000 	mov	ip, #0
   41b28:	e1cdc1b2 	strh	ip, [sp, #18]
   41b2c:	ea00007f 	b	41d30 <arm_convolve_HWC_q7_basic+0x230>
   41b30:	e3a0c000 	mov	ip, #0
   41b34:	e1cdc1b4 	strh	ip, [sp, #20]
   41b38:	ea000075 	b	41d14 <arm_convolve_HWC_q7_basic+0x214>
   41b3c:	e1dd01b2 	ldrh	r0, [sp, #18]
   41b40:	e1dd15ba 	ldrh	r1, [sp, #90]	; 0x5a
   41b44:	e1ddc1b4 	ldrh	ip, [sp, #20]
   41b48:	e1dd23ba 	ldrh	r2, [sp, #58]	; 0x3a
   41b4c:	e020c091 	mla	r0, r1, r0, ip
   41b50:	e1ddc1b0 	ldrh	ip, [sp, #16]
   41b54:	e02cc092 	mla	ip, r2, r0, ip
   41b58:	e58dc020 	str	ip, [sp, #32]
   41b5c:	e3a0c000 	mov	ip, #0
   41b60:	e58dc024 	str	ip, [sp, #36]	; 0x24
   41b64:	e59d0048 	ldr	r0, [sp, #72]	; 0x48
   41b68:	e1dd11b0 	ldrh	r1, [sp, #16]
   41b6c:	e1dd25b2 	ldrh	r2, [sp, #82]	; 0x52
   41b70:	e1ddc4be 	ldrh	ip, [sp, #78]	; 0x4e
   41b74:	e3a03001 	mov	r3, #1
   41b78:	e19100d0 	ldrsb	r0, [r1, r0]
   41b7c:	e1a01213 	lsl	r1, r3, r2
   41b80:	e1a010a1 	lsr	r1, r1, #1
   41b84:	e081cc10 	add	ip, r1, r0, lsl ip
   41b88:	e58dc008 	str	ip, [sp, #8]
   41b8c:	e3a0c000 	mov	ip, #0
   41b90:	e1cdc1b8 	strh	ip, [sp, #24]
   41b94:	ea00004f 	b	41cd8 <arm_convolve_HWC_q7_basic+0x1d8>
   41b98:	e3a0c000 	mov	ip, #0
   41b9c:	e1cdc1ba 	strh	ip, [sp, #26]
   41ba0:	ea000045 	b	41cbc <arm_convolve_HWC_q7_basic+0x1bc>
   41ba4:	e1dd14b6 	ldrh	r1, [sp, #70]	; 0x46
   41ba8:	e1dd21b2 	ldrh	r2, [sp, #18]
   41bac:	e1dd01b8 	ldrh	r0, [sp, #24]
   41bb0:	e1ddc4b2 	ldrh	ip, [sp, #66]	; 0x42
   41bb4:	e0200192 	mla	r0, r2, r1, r0
   41bb8:	e040c00c 	sub	ip, r0, ip
   41bbc:	e5cdc01c 	strb	ip, [sp, #28]
   41bc0:	e1dd14b6 	ldrh	r1, [sp, #70]	; 0x46
   41bc4:	e1dd21b4 	ldrh	r2, [sp, #20]
   41bc8:	e1dd01ba 	ldrh	r0, [sp, #26]
   41bcc:	e1ddc4b2 	ldrh	ip, [sp, #66]	; 0x42
   41bd0:	e0200192 	mla	r0, r2, r1, r0
   41bd4:	e040c00c 	sub	ip, r0, ip
   41bd8:	e5cdc01d 	strb	ip, [sp, #29]
   41bdc:	e1ddc1dc 	ldrsb	ip, [sp, #28]
   41be0:	e35c0000 	cmp	ip, #0
   41be4:	4a000031 	bmi	41cb0 <arm_convolve_HWC_q7_basic+0x1b0>
   41be8:	e1ddc1dd 	ldrsb	ip, [sp, #29]
   41bec:	e35c0000 	cmp	ip, #0
   41bf0:	4a00002e 	bmi	41cb0 <arm_convolve_HWC_q7_basic+0x1b0>
   41bf4:	e1ddc0bc 	ldrh	ip, [sp, #12]
   41bf8:	e1dd01dc 	ldrsb	r0, [sp, #28]
   41bfc:	e15c0000 	cmp	ip, r0
   41c00:	da00002a 	ble	41cb0 <arm_convolve_HWC_q7_basic+0x1b0>
   41c04:	e1ddc0bc 	ldrh	ip, [sp, #12]
   41c08:	e1dd01dd 	ldrsb	r0, [sp, #29]
   41c0c:	e15c0000 	cmp	ip, r0
   41c10:	da000026 	ble	41cb0 <arm_convolve_HWC_q7_basic+0x1b0>
   41c14:	e3a0c000 	mov	ip, #0
   41c18:	e1cdc1b6 	strh	ip, [sp, #22]
   41c1c:	ea00001f 	b	41ca0 <arm_convolve_HWC_q7_basic+0x1a0>
   41c20:	e1dd21b0 	ldrh	r2, [sp, #16]
   41c24:	e1dd50be 	ldrh	r5, [sp, #14]
   41c28:	e1dd01dc 	ldrsb	r0, [sp, #28]
   41c2c:	e1dd10bc 	ldrh	r1, [sp, #12]
   41c30:	e1ddc1dd 	ldrsb	ip, [sp, #29]
   41c34:	e1dde1b8 	ldrh	lr, [sp, #24]
   41c38:	e1dd43be 	ldrh	r4, [sp, #62]	; 0x3e
   41c3c:	e1dd31ba 	ldrh	r3, [sp, #26]
   41c40:	e1dd63be 	ldrh	r6, [sp, #62]	; 0x3e
   41c44:	e0050592 	mul	r5, r2, r5
   41c48:	e020c091 	mla	r0, r1, r0, ip
   41c4c:	e0233e94 	mla	r3, r4, lr, r3
   41c50:	e1dd20be 	ldrh	r2, [sp, #14]
   41c54:	e1ddc1b6 	ldrh	ip, [sp, #22]
   41c58:	e1dd10be 	ldrh	r1, [sp, #14]
   41c5c:	e1dde3be 	ldrh	lr, [sp, #62]	; 0x3e
   41c60:	e59d4000 	ldr	r4, [sp]
   41c64:	e0050596 	mul	r5, r6, r5
   41c68:	e02cc092 	mla	ip, r2, r0, ip
   41c6c:	e0010193 	mul	r1, r3, r1
   41c70:	e1dd01b6 	ldrh	r0, [sp, #22]
   41c74:	e59d2004 	ldr	r2, [sp, #4]
   41c78:	e021159e 	mla	r1, lr, r5, r1
   41c7c:	e0800001 	add	r0, r0, r1
   41c80:	e194c0dc 	ldrsb	ip, [r4, ip]
   41c84:	e19210d0 	ldrsb	r1, [r2, r0]
   41c88:	e59d0008 	ldr	r0, [sp, #8]
   41c8c:	e10c0c81 	smlabb	ip, r1, ip, r0
   41c90:	e58dc008 	str	ip, [sp, #8]
   41c94:	e1ddc1b6 	ldrh	ip, [sp, #22]
   41c98:	e28cc001 	add	ip, ip, #1
   41c9c:	e1cdc1b6 	strh	ip, [sp, #22]
   41ca0:	e1ddc0be 	ldrh	ip, [sp, #14]
   41ca4:	e1dd01b6 	ldrh	r0, [sp, #22]
   41ca8:	e15c0000 	cmp	ip, r0
   41cac:	caffffdb 	bgt	41c20 <arm_convolve_HWC_q7_basic+0x120>
   41cb0:	e1ddc1ba 	ldrh	ip, [sp, #26]
   41cb4:	e28cc001 	add	ip, ip, #1
   41cb8:	e1cdc1ba 	strh	ip, [sp, #26]
   41cbc:	e1ddc3be 	ldrh	ip, [sp, #62]	; 0x3e
   41cc0:	e1dd01ba 	ldrh	r0, [sp, #26]
   41cc4:	e15c0000 	cmp	ip, r0
   41cc8:	caffffb5 	bgt	41ba4 <arm_convolve_HWC_q7_basic+0xa4>
   41ccc:	e1ddc1b8 	ldrh	ip, [sp, #24]
   41cd0:	e28cc001 	add	ip, ip, #1
   41cd4:	e1cdc1b8 	strh	ip, [sp, #24]
   41cd8:	e1ddc3be 	ldrh	ip, [sp, #62]	; 0x3e
   41cdc:	e1dd01b8 	ldrh	r0, [sp, #24]
   41ce0:	e15c0000 	cmp	ip, r0
   41ce4:	caffffab 	bgt	41b98 <arm_convolve_HWC_q7_basic+0x98>
   41ce8:	e1ddc5b2 	ldrh	ip, [sp, #82]	; 0x52
   41cec:	e59d0008 	ldr	r0, [sp, #8]
   41cf0:	e3a01008 	mov	r1, #8
   41cf4:	e1a00c50 	asr	r0, r0, ip
   41cf8:	ebffff5f 	bl	41a7c <__SSAT>
   41cfc:	e59dc054 	ldr	ip, [sp, #84]	; 0x54
   41d00:	e59d1020 	ldr	r1, [sp, #32]
   41d04:	e7c1000c 	strb	r0, [r1, ip]
   41d08:	e1ddc1b4 	ldrh	ip, [sp, #20]
   41d0c:	e28cc001 	add	ip, ip, #1
   41d10:	e1cdc1b4 	strh	ip, [sp, #20]
   41d14:	e1ddc5ba 	ldrh	ip, [sp, #90]	; 0x5a
   41d18:	e1dd01b4 	ldrh	r0, [sp, #20]
   41d1c:	e15c0000 	cmp	ip, r0
   41d20:	caffff85 	bgt	41b3c <arm_convolve_HWC_q7_basic+0x3c>
   41d24:	e1ddc1b2 	ldrh	ip, [sp, #18]
   41d28:	e28cc001 	add	ip, ip, #1
   41d2c:	e1cdc1b2 	strh	ip, [sp, #18]
   41d30:	e1ddc5ba 	ldrh	ip, [sp, #90]	; 0x5a
   41d34:	e1dd01b2 	ldrh	r0, [sp, #18]
   41d38:	e15c0000 	cmp	ip, r0
   41d3c:	caffff7b 	bgt	41b30 <arm_convolve_HWC_q7_basic+0x30>
   41d40:	e1ddc1b0 	ldrh	ip, [sp, #16]
   41d44:	e28cc001 	add	ip, ip, #1
   41d48:	e1cdc1b0 	strh	ip, [sp, #16]
   41d4c:	e1ddc3ba 	ldrh	ip, [sp, #58]	; 0x3a
   41d50:	e1dd01b0 	ldrh	r0, [sp, #16]
   41d54:	e15c0000 	cmp	ip, r0
   41d58:	caffff71 	bgt	41b24 <arm_convolve_HWC_q7_basic+0x24>
   41d5c:	e3a00000 	mov	r0, #0
   41d60:	e28dd028 	add	sp, sp, #40	; 0x28
   41d64:	e8bd8070 	pop	{r4, r5, r6, pc}

00041d68 <_mpuInit_>:
   41d68:	ee110f10 	mrc	15, 0, r0, cr1, cr0, {0}
   41d6c:	e3c00001 	bic	r0, r0, #1
   41d70:	f57ff04f 	dsb	sy
   41d74:	ee010f10 	mcr	15, 0, r0, cr1, cr0, {0}
   41d78:	f57ff06f 	isb	sy
   41d7c:	ee110f10 	mrc	15, 0, r0, cr1, cr0, {0}
   41d80:	e3c00802 	bic	r0, r0, #131072	; 0x20000
   41d84:	ee010f10 	mcr	15, 0, r0, cr1, cr0, {0}
   41d88:	e3a00000 	mov	r0, #0
   41d8c:	ee060f12 	mcr	15, 0, r0, cr6, cr2, {0}
   41d90:	e59f01c4 	ldr	r0, [pc, #452]	; 41f5c <r1Base>
   41d94:	ee060f11 	mcr	15, 0, r0, cr6, cr1, {0}
   41d98:	e3a00008 	mov	r0, #8
   41d9c:	e3800a01 	orr	r0, r0, #4096	; 0x1000
   41da0:	ee060f91 	mcr	15, 0, r0, cr6, cr1, {4}
   41da4:	e30f0f3f 	movw	r0, #65343	; 0xff3f
   41da8:	ee060f51 	mcr	15, 0, r0, cr6, cr1, {2}
   41dac:	e3a00001 	mov	r0, #1
   41db0:	ee060f12 	mcr	15, 0, r0, cr6, cr2, {0}
   41db4:	e59f01a4 	ldr	r0, [pc, #420]	; 41f60 <r2Base>
   41db8:	ee060f11 	mcr	15, 0, r0, cr6, cr1, {0}
   41dbc:	e3a00008 	mov	r0, #8
   41dc0:	e3800c06 	orr	r0, r0, #1536	; 0x600
   41dc4:	ee060f91 	mcr	15, 0, r0, cr6, cr1, {4}
   41dc8:	e300002b 	movw	r0, #43	; 0x2b
   41dcc:	ee060f51 	mcr	15, 0, r0, cr6, cr1, {2}
   41dd0:	e3a00002 	mov	r0, #2
   41dd4:	ee060f12 	mcr	15, 0, r0, cr6, cr2, {0}
   41dd8:	e59f0184 	ldr	r0, [pc, #388]	; 41f64 <r3Base>
   41ddc:	ee060f11 	mcr	15, 0, r0, cr6, cr1, {0}
   41de0:	e3a00008 	mov	r0, #8
   41de4:	e3800c03 	orr	r0, r0, #768	; 0x300
   41de8:	ee060f91 	mcr	15, 0, r0, cr6, cr1, {4}
   41dec:	e3000023 	movw	r0, #35	; 0x23
   41df0:	ee060f51 	mcr	15, 0, r0, cr6, cr1, {2}
   41df4:	e3a00003 	mov	r0, #3
   41df8:	ee060f12 	mcr	15, 0, r0, cr6, cr2, {0}
   41dfc:	e59f0164 	ldr	r0, [pc, #356]	; 41f68 <r4Base>
   41e00:	ee060f11 	mcr	15, 0, r0, cr6, cr1, {0}
   41e04:	e3a00008 	mov	r0, #8
   41e08:	e3800c03 	orr	r0, r0, #768	; 0x300
   41e0c:	ee060f91 	mcr	15, 0, r0, cr6, cr1, {4}
   41e10:	e3000023 	movw	r0, #35	; 0x23
   41e14:	ee060f51 	mcr	15, 0, r0, cr6, cr1, {2}
   41e18:	e3a00004 	mov	r0, #4
   41e1c:	ee060f12 	mcr	15, 0, r0, cr6, cr2, {0}
   41e20:	e59f0144 	ldr	r0, [pc, #324]	; 41f6c <r5Base>
   41e24:	ee060f11 	mcr	15, 0, r0, cr6, cr1, {0}
   41e28:	e3a00000 	mov	r0, #0
   41e2c:	e3800c03 	orr	r0, r0, #768	; 0x300
   41e30:	ee060f91 	mcr	15, 0, r0, cr6, cr1, {4}
   41e34:	e30c0033 	movw	r0, #49203	; 0xc033
   41e38:	ee060f51 	mcr	15, 0, r0, cr6, cr1, {2}
   41e3c:	e3a00005 	mov	r0, #5
   41e40:	ee060f12 	mcr	15, 0, r0, cr6, cr2, {0}
   41e44:	e59f0124 	ldr	r0, [pc, #292]	; 41f70 <r6Base>
   41e48:	ee060f11 	mcr	15, 0, r0, cr6, cr1, {0}
   41e4c:	e3a00000 	mov	r0, #0
   41e50:	e3800c03 	orr	r0, r0, #768	; 0x300
   41e54:	ee060f91 	mcr	15, 0, r0, cr6, cr1, {4}
   41e58:	e3000035 	movw	r0, #53	; 0x35
   41e5c:	ee060f51 	mcr	15, 0, r0, cr6, cr1, {2}
   41e60:	e3a00006 	mov	r0, #6
   41e64:	ee060f12 	mcr	15, 0, r0, cr6, cr2, {0}
   41e68:	e59f0104 	ldr	r0, [pc, #260]	; 41f74 <r7Base>
   41e6c:	ee060f11 	mcr	15, 0, r0, cr6, cr1, {0}
   41e70:	e3a00008 	mov	r0, #8
   41e74:	e3800c12 	orr	r0, r0, #4608	; 0x1200
   41e78:	ee060f91 	mcr	15, 0, r0, cr6, cr1, {4}
   41e7c:	e300002d 	movw	r0, #45	; 0x2d
   41e80:	ee060f51 	mcr	15, 0, r0, cr6, cr1, {2}
   41e84:	e3a00007 	mov	r0, #7
   41e88:	ee060f12 	mcr	15, 0, r0, cr6, cr2, {0}
   41e8c:	e59f00e4 	ldr	r0, [pc, #228]	; 41f78 <r8Base>
   41e90:	ee060f11 	mcr	15, 0, r0, cr6, cr1, {0}
   41e94:	e3a00010 	mov	r0, #16
   41e98:	e3800c13 	orr	r0, r0, #4864	; 0x1300
   41e9c:	ee060f91 	mcr	15, 0, r0, cr6, cr1, {4}
   41ea0:	e300002f 	movw	r0, #47	; 0x2f
   41ea4:	ee060f51 	mcr	15, 0, r0, cr6, cr1, {2}
   41ea8:	e3a00008 	mov	r0, #8
   41eac:	ee060f12 	mcr	15, 0, r0, cr6, cr2, {0}
   41eb0:	e59f00c4 	ldr	r0, [pc, #196]	; 41f7c <r9Base>
   41eb4:	ee060f11 	mcr	15, 0, r0, cr6, cr1, {0}
   41eb8:	e3a00010 	mov	r0, #16
   41ebc:	e3800c13 	orr	r0, r0, #4864	; 0x1300
   41ec0:	ee060f91 	mcr	15, 0, r0, cr6, cr1, {4}
   41ec4:	e3000011 	movw	r0, #17
   41ec8:	ee060f51 	mcr	15, 0, r0, cr6, cr1, {2}
   41ecc:	e3a00009 	mov	r0, #9
   41ed0:	ee060f12 	mcr	15, 0, r0, cr6, cr2, {0}
   41ed4:	e59f00a4 	ldr	r0, [pc, #164]	; 41f80 <r10Base>
   41ed8:	ee060f11 	mcr	15, 0, r0, cr6, cr1, {0}
   41edc:	e3a00010 	mov	r0, #16
   41ee0:	e3800c13 	orr	r0, r0, #4864	; 0x1300
   41ee4:	ee060f91 	mcr	15, 0, r0, cr6, cr1, {4}
   41ee8:	e300002f 	movw	r0, #47	; 0x2f
   41eec:	ee060f51 	mcr	15, 0, r0, cr6, cr1, {2}
   41ef0:	e3a0000a 	mov	r0, #10
   41ef4:	ee060f12 	mcr	15, 0, r0, cr6, cr2, {0}
   41ef8:	e59f0084 	ldr	r0, [pc, #132]	; 41f84 <r11Base>
   41efc:	ee060f11 	mcr	15, 0, r0, cr6, cr1, {0}
   41f00:	e3a00008 	mov	r0, #8
   41f04:	e3800c11 	orr	r0, r0, #4352	; 0x1100
   41f08:	ee060f91 	mcr	15, 0, r0, cr6, cr1, {4}
   41f0c:	e30e0014 	movw	r0, #57364	; 0xe014
   41f10:	ee060f51 	mcr	15, 0, r0, cr6, cr1, {2}
   41f14:	e3a0000b 	mov	r0, #11
   41f18:	ee060f12 	mcr	15, 0, r0, cr6, cr2, {0}
   41f1c:	e59f0064 	ldr	r0, [pc, #100]	; 41f88 <r12Base>
   41f20:	ee060f11 	mcr	15, 0, r0, cr6, cr1, {0}
   41f24:	e3a00008 	mov	r0, #8
   41f28:	e3800c13 	orr	r0, r0, #4864	; 0x1300
   41f2c:	ee060f91 	mcr	15, 0, r0, cr6, cr1, {4}
   41f30:	e30c002a 	movw	r0, #49194	; 0xc02a
   41f34:	ee060f51 	mcr	15, 0, r0, cr6, cr1, {2}
   41f38:	ee110f10 	mrc	15, 0, r0, cr1, cr0, {0}
   41f3c:	e3800802 	orr	r0, r0, #131072	; 0x20000
   41f40:	ee010f10 	mcr	15, 0, r0, cr1, cr0, {0}
   41f44:	ee110f10 	mrc	15, 0, r0, cr1, cr0, {0}
   41f48:	e3800001 	orr	r0, r0, #1
   41f4c:	f57ff04f 	dsb	sy
   41f50:	ee010f10 	mcr	15, 0, r0, cr1, cr0, {0}
   41f54:	f57ff06f 	isb	sy
   41f58:	e12fff1e 	bx	lr

00041f5c <r1Base>:
   41f5c:	00000000 	.word	0x00000000

00041f60 <r2Base>:
   41f60:	00000000 	.word	0x00000000

00041f64 <r3Base>:
   41f64:	08000000 	.word	0x08000000

00041f68 <r4Base>:
   41f68:	08400000 	.word	0x08400000

00041f6c <r5Base>:
   41f6c:	60000000 	.word	0x60000000

00041f70 <r6Base>:
   41f70:	80000000 	.word	0x80000000

00041f74 <r7Base>:
   41f74:	f0000000 	.word	0xf0000000

00041f78 <r8Base>:
   41f78:	fc000000 	.word	0xfc000000

00041f7c <r9Base>:
   41f7c:	fe000000 	.word	0xfe000000

00041f80 <r10Base>:
   41f80:	ff000000 	.word	0xff000000

00041f84 <r11Base>:
   41f84:	08001000 	.word	0x08001000

00041f88 <r12Base>:
   41f88:	20000000 	.word	0x20000000

00041f8c <_mpuEnable_>:
   41f8c:	ee110f10 	mrc	15, 0, r0, cr1, cr0, {0}
   41f90:	e3800001 	orr	r0, r0, #1
   41f94:	f57ff04f 	dsb	sy
   41f98:	ee010f10 	mcr	15, 0, r0, cr1, cr0, {0}
   41f9c:	f57ff06f 	isb	sy
   41fa0:	e12fff1e 	bx	lr

00041fa4 <_mpuDisable_>:
   41fa4:	ee110f10 	mrc	15, 0, r0, cr1, cr0, {0}
   41fa8:	e3c00001 	bic	r0, r0, #1
   41fac:	f57ff04f 	dsb	sy
   41fb0:	ee010f10 	mcr	15, 0, r0, cr1, cr0, {0}
   41fb4:	f57ff06f 	isb	sy
   41fb8:	e12fff1e 	bx	lr

00041fbc <_mpuEnableBackgroundRegion_>:
   41fbc:	ee110f10 	mrc	15, 0, r0, cr1, cr0, {0}
   41fc0:	e3800802 	orr	r0, r0, #131072	; 0x20000
   41fc4:	ee010f10 	mcr	15, 0, r0, cr1, cr0, {0}
   41fc8:	e12fff1e 	bx	lr

00041fcc <_mpuDisableBackgroundRegion_>:
   41fcc:	ee110f10 	mrc	15, 0, r0, cr1, cr0, {0}
   41fd0:	e3c00802 	bic	r0, r0, #131072	; 0x20000
   41fd4:	ee010f10 	mcr	15, 0, r0, cr1, cr0, {0}
   41fd8:	e12fff1e 	bx	lr

00041fdc <_mpuGetNumberOfRegions_>:
   41fdc:	ee100f90 	mrc	15, 0, r0, cr0, cr0, {4}
   41fe0:	e6ef0470 	uxtb	r0, r0, ror #8
   41fe4:	e12fff1e 	bx	lr

00041fe8 <_mpuAreRegionsSeparate_>:
   41fe8:	ee100f90 	mrc	15, 0, r0, cr0, cr0, {4}
   41fec:	e6ef0070 	uxtb	r0, r0
   41ff0:	e12fff1e 	bx	lr

00041ff4 <_mpuSetRegion_>:
   41ff4:	ee060f12 	mcr	15, 0, r0, cr6, cr2, {0}
   41ff8:	e12fff1e 	bx	lr

00041ffc <_mpuGetRegion_>:
   41ffc:	ee160f12 	mrc	15, 0, r0, cr6, cr2, {0}
   42000:	e12fff1e 	bx	lr

00042004 <_mpuSetRegionBaseAddress_>:
   42004:	ee060f11 	mcr	15, 0, r0, cr6, cr1, {0}
   42008:	e12fff1e 	bx	lr

0004200c <_mpuGetRegionBaseAddress_>:
   4200c:	ee160f11 	mrc	15, 0, r0, cr6, cr1, {0}
   42010:	e12fff1e 	bx	lr

00042014 <_mpuSetRegionTypeAndPermission_>:
   42014:	e1800001 	orr	r0, r0, r1
   42018:	ee060f91 	mcr	15, 0, r0, cr6, cr1, {4}
   4201c:	e12fff1e 	bx	lr

00042020 <_mpuGetRegionType_>:
   42020:	ee160f91 	mrc	15, 0, r0, cr6, cr1, {4}
   42024:	e3c00cff 	bic	r0, r0, #65280	; 0xff00
   42028:	e12fff1e 	bx	lr

0004202c <_mpuGetRegionPermission_>:
   4202c:	ee160f91 	mrc	15, 0, r0, cr6, cr1, {4}
   42030:	e3c000ff 	bic	r0, r0, #255	; 0xff
   42034:	e12fff1e 	bx	lr

00042038 <_mpuSetRegionSizeRegister_>:
   42038:	ee060f51 	mcr	15, 0, r0, cr6, cr1, {2}
   4203c:	e12fff1e 	bx	lr

00042040 <__USAT>:
   42040:	e24dd010 	sub	sp, sp, #16
   42044:	e58d1004 	str	r1, [sp, #4]
   42048:	e58d0000 	str	r0, [sp]
   4204c:	e59dc004 	ldr	ip, [sp, #4]
   42050:	e35c001f 	cmp	ip, #31
   42054:	8a00000f 	bhi	42098 <__USAT+0x58>
   42058:	e59dc004 	ldr	ip, [sp, #4]
   4205c:	e3a01001 	mov	r1, #1
   42060:	e3a00001 	mov	r0, #1
   42064:	e060cc11 	rsb	ip, r0, r1, lsl ip
   42068:	e58dc008 	str	ip, [sp, #8]
   4206c:	e59d0000 	ldr	r0, [sp]
   42070:	e59dc008 	ldr	ip, [sp, #8]
   42074:	e15c0000 	cmp	ip, r0
   42078:	aa000001 	bge	42084 <__USAT+0x44>
   4207c:	e59d0008 	ldr	r0, [sp, #8]
   42080:	ea000005 	b	4209c <__USAT+0x5c>
   42084:	e59dc000 	ldr	ip, [sp]
   42088:	e35c0000 	cmp	ip, #0
   4208c:	5a000001 	bpl	42098 <__USAT+0x58>
   42090:	e3a00000 	mov	r0, #0
   42094:	ea000000 	b	4209c <__USAT+0x5c>
   42098:	e59d0000 	ldr	r0, [sp]
   4209c:	e28dd010 	add	sp, sp, #16
   420a0:	e12fff1e 	bx	lr

000420a4 <__SSAT>:
   420a4:	e24dd010 	sub	sp, sp, #16
   420a8:	e58d1004 	str	r1, [sp, #4]
   420ac:	e58d0000 	str	r0, [sp]
   420b0:	e59dc004 	ldr	ip, [sp, #4]
   420b4:	e35c0000 	cmp	ip, #0
   420b8:	0a000017 	beq	4211c <__SSAT+0x78>
   420bc:	e59dc004 	ldr	ip, [sp, #4]
   420c0:	e35c0020 	cmp	ip, #32
   420c4:	8a000014 	bhi	4211c <__SSAT+0x78>
   420c8:	e59dc004 	ldr	ip, [sp, #4]
   420cc:	e3a01001 	mov	r1, #1
   420d0:	e24cc001 	sub	ip, ip, #1
   420d4:	e3a00001 	mov	r0, #1
   420d8:	e060cc11 	rsb	ip, r0, r1, lsl ip
   420dc:	e58dc008 	str	ip, [sp, #8]
   420e0:	e59dc008 	ldr	ip, [sp, #8]
   420e4:	e1e0c00c 	mvn	ip, ip
   420e8:	e58dc00c 	str	ip, [sp, #12]
   420ec:	e59d0000 	ldr	r0, [sp]
   420f0:	e59dc008 	ldr	ip, [sp, #8]
   420f4:	e15c0000 	cmp	ip, r0
   420f8:	aa000001 	bge	42104 <__SSAT+0x60>
   420fc:	e59d0008 	ldr	r0, [sp, #8]
   42100:	ea000006 	b	42120 <__SSAT+0x7c>
   42104:	e59dc00c 	ldr	ip, [sp, #12]
   42108:	e59d0000 	ldr	r0, [sp]
   4210c:	e15c0000 	cmp	ip, r0
   42110:	da000001 	ble	4211c <__SSAT+0x78>
   42114:	e59d000c 	ldr	r0, [sp, #12]
   42118:	ea000000 	b	42120 <__SSAT+0x7c>
   4211c:	e59d0000 	ldr	r0, [sp]
   42120:	e28dd010 	add	sp, sp, #16
   42124:	e12fff1e 	bx	lr

00042128 <arm_softmax_q7>:
   42128:	e92d4000 	stmfd	sp!, {lr}
   4212c:	e24dd01c 	sub	sp, sp, #28
   42130:	e58d2004 	str	r2, [sp, #4]
   42134:	e1cd11b4 	strh	r1, [sp, #20]
   42138:	e58d0000 	str	r0, [sp]
   4213c:	e3e0cc01 	mvn	ip, #256	; 0x100
   42140:	e1cdc1b8 	strh	ip, [sp, #24]
   42144:	e3a0c000 	mov	ip, #0
   42148:	e58dc00c 	str	ip, [sp, #12]
   4214c:	e3a0c000 	mov	ip, #0
   42150:	e1cdc1b6 	strh	ip, [sp, #22]
   42154:	ea00000c 	b	4218c <arm_softmax_q7+0x64>
   42158:	e59d0000 	ldr	r0, [sp]
   4215c:	e1dd11f6 	ldrsh	r1, [sp, #22]
   42160:	e1ddc1f8 	ldrsh	ip, [sp, #24]
   42164:	e19100d0 	ldrsb	r0, [r1, r0]
   42168:	e15c0000 	cmp	ip, r0
   4216c:	aa000003 	bge	42180 <arm_softmax_q7+0x58>
   42170:	e59dc000 	ldr	ip, [sp]
   42174:	e1dd01f6 	ldrsh	r0, [sp, #22]
   42178:	e190c0dc 	ldrsb	ip, [r0, ip]
   4217c:	e1cdc1b8 	strh	ip, [sp, #24]
   42180:	e1ddc1f6 	ldrsh	ip, [sp, #22]
   42184:	e28cc001 	add	ip, ip, #1
   42188:	e1cdc1b6 	strh	ip, [sp, #22]
   4218c:	e1ddc1b4 	ldrh	ip, [sp, #20]
   42190:	e1dd01f6 	ldrsh	r0, [sp, #22]
   42194:	e15c0000 	cmp	ip, r0
   42198:	caffffee 	bgt	42158 <arm_softmax_q7+0x30>
   4219c:	e1ddc1f8 	ldrsh	ip, [sp, #24]
   421a0:	e24cc008 	sub	ip, ip, #8
   421a4:	e1cdc1b8 	strh	ip, [sp, #24]
   421a8:	e3a0c000 	mov	ip, #0
   421ac:	e58dc008 	str	ip, [sp, #8]
   421b0:	e3a0c000 	mov	ip, #0
   421b4:	e1cdc1b6 	strh	ip, [sp, #22]
   421b8:	ea000015 	b	42214 <arm_softmax_q7+0xec>
   421bc:	e59d0000 	ldr	r0, [sp]
   421c0:	e1dd11f6 	ldrsh	r1, [sp, #22]
   421c4:	e1ddc1f8 	ldrsh	ip, [sp, #24]
   421c8:	e19100d0 	ldrsb	r0, [r1, r0]
   421cc:	e15c0000 	cmp	ip, r0
   421d0:	aa00000c 	bge	42208 <arm_softmax_q7+0xe0>
   421d4:	e59d0000 	ldr	r0, [sp]
   421d8:	e1dd11f6 	ldrsh	r1, [sp, #22]
   421dc:	e1ddc1f8 	ldrsh	ip, [sp, #24]
   421e0:	e19100d0 	ldrsb	r0, [r1, r0]
   421e4:	e3a01005 	mov	r1, #5
   421e8:	e040000c 	sub	r0, r0, ip
   421ec:	ebffff93 	bl	42040 <__USAT>
   421f0:	e5cd001a 	strb	r0, [sp, #26]
   421f4:	e5ddc01a 	ldrb	ip, [sp, #26]
   421f8:	e3a01001 	mov	r1, #1
   421fc:	e59d0008 	ldr	r0, [sp, #8]
   42200:	e080cc11 	add	ip, r0, r1, lsl ip
   42204:	e58dc008 	str	ip, [sp, #8]
   42208:	e1ddc1f6 	ldrsh	ip, [sp, #22]
   4220c:	e28cc001 	add	ip, ip, #1
   42210:	e1cdc1b6 	strh	ip, [sp, #22]
   42214:	e1ddc1b4 	ldrh	ip, [sp, #20]
   42218:	e1dd01f6 	ldrsh	r0, [sp, #22]
   4221c:	e15c0000 	cmp	ip, r0
   42220:	caffffe5 	bgt	421bc <arm_softmax_q7+0x94>
   42224:	e59d1008 	ldr	r1, [sp, #8]
   42228:	e3a00601 	mov	r0, #1048576	; 0x100000
   4222c:	eb00076a 	bl	43fdc <__aeabi_idiv>
   42230:	e58d0010 	str	r0, [sp, #16]
   42234:	e3a0c000 	mov	ip, #0
   42238:	e1cdc1b6 	strh	ip, [sp, #22]
   4223c:	ea00002d 	b	422f8 <arm_softmax_q7+0x1d0>
   42240:	e59d0000 	ldr	r0, [sp]
   42244:	e1dd11f6 	ldrsh	r1, [sp, #22]
   42248:	e1ddc1f8 	ldrsh	ip, [sp, #24]
   4224c:	e19100d0 	ldrsb	r0, [r1, r0]
   42250:	e15c0000 	cmp	ip, r0
   42254:	aa00001a 	bge	422c4 <arm_softmax_q7+0x19c>
   42258:	e59dc000 	ldr	ip, [sp]
   4225c:	e1dd01f6 	ldrsh	r0, [sp, #22]
   42260:	e1dd11f8 	ldrsh	r1, [sp, #24]
   42264:	e190c0dc 	ldrsb	ip, [r0, ip]
   42268:	e041c00c 	sub	ip, r1, ip
   4226c:	e3a01005 	mov	r1, #5
   42270:	e28c000d 	add	r0, ip, #13
   42274:	ebffff71 	bl	42040 <__USAT>
   42278:	e5cd001a 	strb	r0, [sp, #26]
   4227c:	e59d0010 	ldr	r0, [sp, #16]
   42280:	e5ddc01a 	ldrb	ip, [sp, #26]
   42284:	e3a01008 	mov	r1, #8
   42288:	e1a00c50 	asr	r0, r0, ip
   4228c:	ebffff84 	bl	420a4 <__SSAT>
   42290:	e59dc004 	ldr	ip, [sp, #4]
   42294:	e1dd11f6 	ldrsh	r1, [sp, #22]
   42298:	e7c1000c 	strb	r0, [r1, ip]
   4229c:	e59dc004 	ldr	ip, [sp, #4]
   422a0:	e1dd01f6 	ldrsh	r0, [sp, #22]
   422a4:	e190c0dc 	ldrsb	ip, [r0, ip]
   422a8:	e35c007f 	cmp	ip, #127	; 0x7f
   422ac:	1a000008 	bne	422d4 <arm_softmax_q7+0x1ac>
   422b0:	e59dc004 	ldr	ip, [sp, #4]
   422b4:	e1dd01f6 	ldrsh	r0, [sp, #22]
   422b8:	e3a0107e 	mov	r1, #126	; 0x7e
   422bc:	e7c0100c 	strb	r1, [r0, ip]
   422c0:	ea000003 	b	422d4 <arm_softmax_q7+0x1ac>
   422c4:	e59dc004 	ldr	ip, [sp, #4]
   422c8:	e1dd01f6 	ldrsh	r0, [sp, #22]
   422cc:	e3a01000 	mov	r1, #0
   422d0:	e7c0100c 	strb	r1, [r0, ip]
   422d4:	e59d0004 	ldr	r0, [sp, #4]
   422d8:	e1dd11f6 	ldrsh	r1, [sp, #22]
   422dc:	e59dc00c 	ldr	ip, [sp, #12]
   422e0:	e19100d0 	ldrsb	r0, [r1, r0]
   422e4:	e080c00c 	add	ip, r0, ip
   422e8:	e58dc00c 	str	ip, [sp, #12]
   422ec:	e1ddc1f6 	ldrsh	ip, [sp, #22]
   422f0:	e28cc001 	add	ip, ip, #1
   422f4:	e1cdc1b6 	strh	ip, [sp, #22]
   422f8:	e1ddc1b4 	ldrh	ip, [sp, #20]
   422fc:	e1dd01f6 	ldrsh	r0, [sp, #22]
   42300:	e15c0000 	cmp	ip, r0
   42304:	caffffcd 	bgt	42240 <arm_softmax_q7+0x118>
   42308:	e59d000c 	ldr	r0, [sp, #12]
   4230c:	e28dd01c 	add	sp, sp, #28
   42310:	e8bd8000 	ldmfd	sp!, {pc}

00042314 <__aeabi_uldivmod>:
   42314:	e92d41f0 	push	{r4, r5, r6, r7, r8, lr}
   42318:	e1a04002 	mov	r4, r2
   4231c:	e1a05003 	mov	r5, r3
   42320:	e1540000 	cmp	r4, r0
   42324:	01550001 	cmpeq	r5, r1
   42328:	83a02000 	movhi	r2, #0
   4232c:	83a03000 	movhi	r3, #0
   42330:	8a00009d 	bhi	425ac <mod1+0x3c>
   42334:	e3540000 	cmp	r4, #0
   42338:	03550000 	cmpeq	r5, #0
   4233c:	1a000005 	bne	42358 <_not_zero_>
   42340:	e3500000 	cmp	r0, #0
   42344:	03510000 	cmpeq	r1, #0
   42348:	13e01000 	mvnne	r1, #0
   4234c:	13e00000 	mvnne	r0, #0
   42350:	eb00009c 	bl	425c8 <__aeabi_ldiv0>
   42354:	e8bd81f0 	pop	{r4, r5, r6, r7, r8, pc}

00042358 <_not_zero_>:
   42358:	e3a08000 	mov	r8, #0
   4235c:	e3a0e000 	mov	lr, #0
   42360:	e3540000 	cmp	r4, #0
   42364:	01550000 	cmpeq	r5, r0
   42368:	91a04005 	movls	r4, r5
   4236c:	93a05000 	movls	r5, #0
   42370:	e1a07821 	lsr	r7, r1, #16
   42374:	e1877800 	orr	r7, r7, r0, lsl #16
   42378:	e1a06820 	lsr	r6, r0, #16
   4237c:	e1540006 	cmp	r4, r6
   42380:	01550007 	cmpeq	r5, r7
   42384:	91a04804 	lslls	r4, r4, #16
   42388:	91844825 	orrls	r4, r4, r5, lsr #16
   4238c:	91a05805 	lslls	r5, r5, #16
   42390:	e1a07421 	lsr	r7, r1, #8
   42394:	e1877c00 	orr	r7, r7, r0, lsl #24
   42398:	e1a06420 	lsr	r6, r0, #8
   4239c:	e1540006 	cmp	r4, r6
   423a0:	01550007 	cmpeq	r5, r7
   423a4:	91a04404 	lslls	r4, r4, #8
   423a8:	91844c25 	orrls	r4, r4, r5, lsr #24
   423ac:	91a05405 	lslls	r5, r5, #8
   423b0:	e1a070a1 	lsr	r7, r1, #1
   423b4:	e1877f80 	orr	r7, r7, r0, lsl #31
   423b8:	e1a060a0 	lsr	r6, r0, #1
   423bc:	e1540006 	cmp	r4, r6
   423c0:	01550007 	cmpeq	r5, r7
   423c4:	8a000069 	bhi	42570 <mod1>
   423c8:	e1a07121 	lsr	r7, r1, #2
   423cc:	e1877f00 	orr	r7, r7, r0, lsl #30
   423d0:	e1a06120 	lsr	r6, r0, #2
   423d4:	e1540006 	cmp	r4, r6
   423d8:	01550007 	cmpeq	r5, r7
   423dc:	8a000059 	bhi	42548 <mod2>
   423e0:	e1a071a1 	lsr	r7, r1, #3
   423e4:	e1877e80 	orr	r7, r7, r0, lsl #29
   423e8:	e1a061a0 	lsr	r6, r0, #3
   423ec:	e1540006 	cmp	r4, r6
   423f0:	01550007 	cmpeq	r5, r7
   423f4:	8a000049 	bhi	42520 <mod3>
   423f8:	e1a07221 	lsr	r7, r1, #4
   423fc:	e1877e00 	orr	r7, r7, r0, lsl #28
   42400:	e1a06220 	lsr	r6, r0, #4
   42404:	e1540006 	cmp	r4, r6
   42408:	01550007 	cmpeq	r5, r7
   4240c:	8a000039 	bhi	424f8 <mod4>
   42410:	e1a072a1 	lsr	r7, r1, #5
   42414:	e1877d80 	orr	r7, r7, r0, lsl #27
   42418:	e1a062a0 	lsr	r6, r0, #5
   4241c:	e1540006 	cmp	r4, r6
   42420:	01550007 	cmpeq	r5, r7
   42424:	8a000029 	bhi	424d0 <mod5>
   42428:	e1a07321 	lsr	r7, r1, #6
   4242c:	e1877d00 	orr	r7, r7, r0, lsl #26
   42430:	e1a06320 	lsr	r6, r0, #6
   42434:	e1540006 	cmp	r4, r6
   42438:	01550007 	cmpeq	r5, r7
   4243c:	8a000019 	bhi	424a8 <mod6>
   42440:	e1a073a1 	lsr	r7, r1, #7
   42444:	e1877c80 	orr	r7, r7, r0, lsl #25
   42448:	e1a063a0 	lsr	r6, r0, #7
   4244c:	e1540006 	cmp	r4, r6
   42450:	01550007 	cmpeq	r5, r7
   42454:	8a000009 	bhi	42480 <mod7>

00042458 <divll>:
   42458:	e1a06384 	lsl	r6, r4, #7
   4245c:	e1866ca5 	orr	r6, r6, r5, lsr #25
   42460:	e1a07385 	lsl	r7, r5, #7
   42464:	e1500006 	cmp	r0, r6
   42468:	01510007 	cmpeq	r1, r7
   4246c:	3a000001 	bcc	42478 <divll+0x20>
   42470:	e0511007 	subs	r1, r1, r7
   42474:	e0d00006 	sbcs	r0, r0, r6
   42478:	e0b88008 	adcs	r8, r8, r8
   4247c:	e0aee00e 	adc	lr, lr, lr

00042480 <mod7>:
   42480:	e1a06304 	lsl	r6, r4, #6
   42484:	e1866d25 	orr	r6, r6, r5, lsr #26
   42488:	e1a07305 	lsl	r7, r5, #6
   4248c:	e1500006 	cmp	r0, r6
   42490:	01510007 	cmpeq	r1, r7
   42494:	3a000001 	bcc	424a0 <mod7+0x20>
   42498:	e0511007 	subs	r1, r1, r7
   4249c:	e0d00006 	sbcs	r0, r0, r6
   424a0:	e0b88008 	adcs	r8, r8, r8
   424a4:	e0aee00e 	adc	lr, lr, lr

000424a8 <mod6>:
   424a8:	e1a06284 	lsl	r6, r4, #5
   424ac:	e1866da5 	orr	r6, r6, r5, lsr #27
   424b0:	e1a07285 	lsl	r7, r5, #5
   424b4:	e1500006 	cmp	r0, r6
   424b8:	01510007 	cmpeq	r1, r7
   424bc:	3a000001 	bcc	424c8 <mod6+0x20>
   424c0:	e0511007 	subs	r1, r1, r7
   424c4:	e0d00006 	sbcs	r0, r0, r6
   424c8:	e0b88008 	adcs	r8, r8, r8
   424cc:	e0aee00e 	adc	lr, lr, lr

000424d0 <mod5>:
   424d0:	e1a06204 	lsl	r6, r4, #4
   424d4:	e1866e25 	orr	r6, r6, r5, lsr #28
   424d8:	e1a07205 	lsl	r7, r5, #4
   424dc:	e1500006 	cmp	r0, r6
   424e0:	01510007 	cmpeq	r1, r7
   424e4:	3a000001 	bcc	424f0 <mod5+0x20>
   424e8:	e0511007 	subs	r1, r1, r7
   424ec:	e0d00006 	sbcs	r0, r0, r6
   424f0:	e0b88008 	adcs	r8, r8, r8
   424f4:	e0aee00e 	adc	lr, lr, lr

000424f8 <mod4>:
   424f8:	e1a06184 	lsl	r6, r4, #3
   424fc:	e1866ea5 	orr	r6, r6, r5, lsr #29
   42500:	e1a07185 	lsl	r7, r5, #3
   42504:	e1500006 	cmp	r0, r6
   42508:	01510007 	cmpeq	r1, r7
   4250c:	3a000001 	bcc	42518 <mod4+0x20>
   42510:	e0511007 	subs	r1, r1, r7
   42514:	e0d00006 	sbcs	r0, r0, r6
   42518:	e0b88008 	adcs	r8, r8, r8
   4251c:	e0aee00e 	adc	lr, lr, lr

00042520 <mod3>:
   42520:	e1a06104 	lsl	r6, r4, #2
   42524:	e1866f25 	orr	r6, r6, r5, lsr #30
   42528:	e1a07105 	lsl	r7, r5, #2
   4252c:	e1500006 	cmp	r0, r6
   42530:	01510007 	cmpeq	r1, r7
   42534:	3a000001 	bcc	42540 <mod3+0x20>
   42538:	e0511007 	subs	r1, r1, r7
   4253c:	e0d00006 	sbcs	r0, r0, r6
   42540:	e0b88008 	adcs	r8, r8, r8
   42544:	e0aee00e 	adc	lr, lr, lr

00042548 <mod2>:
   42548:	e1a06084 	lsl	r6, r4, #1
   4254c:	e1866fa5 	orr	r6, r6, r5, lsr #31
   42550:	e1a07085 	lsl	r7, r5, #1
   42554:	e1500006 	cmp	r0, r6
   42558:	01510007 	cmpeq	r1, r7
   4255c:	3a000001 	bcc	42568 <mod2+0x20>
   42560:	e0511007 	subs	r1, r1, r7
   42564:	e0d00006 	sbcs	r0, r0, r6
   42568:	e0b88008 	adcs	r8, r8, r8
   4256c:	e0aee00e 	adc	lr, lr, lr

00042570 <mod1>:
   42570:	e1500004 	cmp	r0, r4
   42574:	01510005 	cmpeq	r1, r5
   42578:	3a000001 	bcc	42584 <mod1+0x14>
   4257c:	e0511005 	subs	r1, r1, r5
   42580:	e0d00004 	sbcs	r0, r0, r4
   42584:	e0b88008 	adcs	r8, r8, r8
   42588:	e0aee00e 	adc	lr, lr, lr
   4258c:	e1520004 	cmp	r2, r4
   42590:	01530005 	cmpeq	r3, r5
   42594:	31a05425 	lsrcc	r5, r5, #8
   42598:	31855c04 	orrcc	r5, r5, r4, lsl #24
   4259c:	31a04424 	lsrcc	r4, r4, #8
   425a0:	3affffac 	bcc	42458 <divll>
   425a4:	e1a0200e 	mov	r2, lr
   425a8:	e1a03008 	mov	r3, r8
   425ac:	e1a06002 	mov	r6, r2
   425b0:	e1a07003 	mov	r7, r3
   425b4:	e1a02000 	mov	r2, r0
   425b8:	e1a03001 	mov	r3, r1
   425bc:	e1a00006 	mov	r0, r6
   425c0:	e1a01007 	mov	r1, r7
   425c4:	e8bd81f0 	pop	{r4, r5, r6, r7, r8, pc}

000425c8 <__aeabi_ldiv0>:
   425c8:	e12fff1e 	bx	lr

000425cc <vimParityErrorHandler>:
   425cc:	e92d500f 	push	{r0, r1, r2, r3, ip, lr}
   425d0:	eef8ca10 	vmrs	ip, fpexc
   425d4:	e92d1000 	stmfd	sp!, {ip}
   425d8:	eef1ca10 	vmrs	ip, fpscr
   425dc:	e92d1000 	stmfd	sp!, {ip}
   425e0:	ed2d0b10 	vpush	{d0-d7}
   425e4:	e24dd010 	sub	sp, sp, #16
   425e8:	e59fc224 	ldr	ip, [pc, #548]	; 42814 <vimParityErrorHandler+0x248>
   425ec:	e59cc000 	ldr	ip, [ip]
   425f0:	e58dc004 	str	ip, [sp, #4]
   425f4:	e59dc004 	ldr	ip, [sp, #4]
   425f8:	e7dfc49f 	bfc	ip, #9, #23
   425fc:	e1a0c12c 	lsr	ip, ip, #2
   42600:	e58dc008 	str	ip, [sp, #8]
   42604:	e59dc008 	ldr	ip, [sp, #8]
   42608:	e35c0060 	cmp	ip, #96	; 0x60
   4260c:	2a000078 	bcs	427f4 <vimParityErrorHandler+0x228>
   42610:	e59dc008 	ldr	ip, [sp, #8]
   42614:	e59f1200 	ldr	r1, [pc, #512]	; 4281c <vimParityErrorHandler+0x250>
   42618:	e59d0008 	ldr	r0, [sp, #8]
   4261c:	e59f21f4 	ldr	r2, [pc, #500]	; 42818 <vimParityErrorHandler+0x24c>
   42620:	e791c10c 	ldr	ip, [r1, ip, lsl #2]
   42624:	e782c100 	str	ip, [r2, r0, lsl #2]
   42628:	e59f01f0 	ldr	r0, [pc, #496]	; 42820 <vimParityErrorHandler+0x254>
   4262c:	e3a0c001 	mov	ip, #1
   42630:	e580c000 	str	ip, [r0]
   42634:	e59fc1e8 	ldr	ip, [pc, #488]	; 42824 <vimParityErrorHandler+0x258>
   42638:	e59cc000 	ldr	ip, [ip]
   4263c:	e35c0000 	cmp	ip, #0
   42640:	0a000004 	beq	42658 <vimParityErrorHandler+0x8c>
   42644:	e59fc1d8 	ldr	ip, [pc, #472]	; 42824 <vimParityErrorHandler+0x258>
   42648:	e59cc000 	ldr	ip, [ip]
   4264c:	e24cc001 	sub	ip, ip, #1
   42650:	e58dc000 	str	ip, [sp]
   42654:	ea000003 	b	42668 <vimParityErrorHandler+0x9c>
   42658:	e59fc1c8 	ldr	ip, [pc, #456]	; 42828 <vimParityErrorHandler+0x25c>
   4265c:	e59cc000 	ldr	ip, [ip]
   42660:	e24cc001 	sub	ip, ip, #1
   42664:	e58dc000 	str	ip, [sp]
   42668:	e59dc000 	ldr	ip, [sp]
   4266c:	e35c0000 	cmp	ip, #0
   42670:	1a000035 	bne	4274c <vimParityErrorHandler+0x180>
   42674:	e59f01b0 	ldr	r0, [pc, #432]	; 4282c <vimParityErrorHandler+0x260>
   42678:	e3a0c001 	mov	ip, #1
   4267c:	e580c000 	str	ip, [r0]
   42680:	e59fc1a8 	ldr	ip, [pc, #424]	; 42830 <vimParityErrorHandler+0x264>
   42684:	e59cc000 	ldr	ip, [ip]
   42688:	e24cc001 	sub	ip, ip, #1
   4268c:	e58dc000 	str	ip, [sp]
   42690:	e59dc000 	ldr	ip, [sp]
   42694:	e35c0020 	cmp	ip, #32
   42698:	2a000007 	bcs	426bc <vimParityErrorHandler+0xf0>
   4269c:	e59dc000 	ldr	ip, [sp]
   426a0:	e59f118c 	ldr	r1, [pc, #396]	; 42834 <vimParityErrorHandler+0x268>
   426a4:	e3a00001 	mov	r0, #1
   426a8:	e1a0cc10 	lsl	ip, r0, ip
   426ac:	e581c000 	str	ip, [r1]
   426b0:	e59d0000 	ldr	r0, [sp]
   426b4:	eb000264 	bl	4304c <esmGroup1Notification>
   426b8:	ea00004d 	b	427f4 <vimParityErrorHandler+0x228>
   426bc:	e59dc000 	ldr	ip, [sp]
   426c0:	e35c0040 	cmp	ip, #64	; 0x40
   426c4:	2a000009 	bcs	426f0 <vimParityErrorHandler+0x124>
   426c8:	e59dc000 	ldr	ip, [sp]
   426cc:	e59f1164 	ldr	r1, [pc, #356]	; 42838 <vimParityErrorHandler+0x26c>
   426d0:	e3a00001 	mov	r0, #1
   426d4:	e24cc020 	sub	ip, ip, #32
   426d8:	e1a0cc10 	lsl	ip, r0, ip
   426dc:	e581c000 	str	ip, [r1]
   426e0:	e59dc000 	ldr	ip, [sp]
   426e4:	e24c0020 	sub	r0, ip, #32
   426e8:	eb00025b 	bl	4305c <esmGroup2Notification>
   426ec:	ea000040 	b	427f4 <vimParityErrorHandler+0x228>
   426f0:	e59dc000 	ldr	ip, [sp]
   426f4:	e35c0060 	cmp	ip, #96	; 0x60
   426f8:	2a000009 	bcs	42724 <vimParityErrorHandler+0x158>
   426fc:	e59dc000 	ldr	ip, [sp]
   42700:	e59f1134 	ldr	r1, [pc, #308]	; 4283c <vimParityErrorHandler+0x270>
   42704:	e3a00001 	mov	r0, #1
   42708:	e24cc040 	sub	ip, ip, #64	; 0x40
   4270c:	e1a0cc10 	lsl	ip, r0, ip
   42710:	e581c000 	str	ip, [r1]
   42714:	e59dc000 	ldr	ip, [sp]
   42718:	e24c0020 	sub	r0, ip, #32
   4271c:	eb00024a 	bl	4304c <esmGroup1Notification>
   42720:	ea000033 	b	427f4 <vimParityErrorHandler+0x228>
   42724:	e59dc000 	ldr	ip, [sp]
   42728:	e59f1110 	ldr	r1, [pc, #272]	; 42840 <vimParityErrorHandler+0x274>
   4272c:	e3a00001 	mov	r0, #1
   42730:	e24cc060 	sub	ip, ip, #96	; 0x60
   42734:	e1a0cc10 	lsl	ip, r0, ip
   42738:	e581c000 	str	ip, [r1]
   4273c:	e59dc000 	ldr	ip, [sp]
   42740:	e24c0040 	sub	r0, ip, #64	; 0x40
   42744:	eb000244 	bl	4305c <esmGroup2Notification>
   42748:	ea000029 	b	427f4 <vimParityErrorHandler+0x228>
   4274c:	e59dc000 	ldr	ip, [sp]
   42750:	e35c0020 	cmp	ip, #32
   42754:	2a00000a 	bcs	42784 <vimParityErrorHandler+0x1b8>
   42758:	e59dc000 	ldr	ip, [sp]
   4275c:	e59f10e0 	ldr	r1, [pc, #224]	; 42844 <vimParityErrorHandler+0x278>
   42760:	e3a00001 	mov	r0, #1
   42764:	e1a0cc10 	lsl	ip, r0, ip
   42768:	e581c000 	str	ip, [r1]
   4276c:	e59f10d4 	ldr	r1, [pc, #212]	; 42848 <vimParityErrorHandler+0x27c>
   42770:	e59dc000 	ldr	ip, [sp]
   42774:	e3a00001 	mov	r0, #1
   42778:	e1a0cc10 	lsl	ip, r0, ip
   4277c:	e581c000 	str	ip, [r1]
   42780:	ea00001b 	b	427f4 <vimParityErrorHandler+0x228>
   42784:	e59dc000 	ldr	ip, [sp]
   42788:	e35c0040 	cmp	ip, #64	; 0x40
   4278c:	2a00000c 	bcs	427c4 <vimParityErrorHandler+0x1f8>
   42790:	e59dc000 	ldr	ip, [sp]
   42794:	e59f10b0 	ldr	r1, [pc, #176]	; 4284c <vimParityErrorHandler+0x280>
   42798:	e3a00001 	mov	r0, #1
   4279c:	e24cc020 	sub	ip, ip, #32
   427a0:	e1a0cc10 	lsl	ip, r0, ip
   427a4:	e581c000 	str	ip, [r1]
   427a8:	e59dc000 	ldr	ip, [sp]
   427ac:	e59f109c 	ldr	r1, [pc, #156]	; 42850 <vimParityErrorHandler+0x284>
   427b0:	e3a00001 	mov	r0, #1
   427b4:	e24cc020 	sub	ip, ip, #32
   427b8:	e1a0cc10 	lsl	ip, r0, ip
   427bc:	e581c000 	str	ip, [r1]
   427c0:	ea00000b 	b	427f4 <vimParityErrorHandler+0x228>
   427c4:	e59dc000 	ldr	ip, [sp]
   427c8:	e59f1084 	ldr	r1, [pc, #132]	; 42854 <vimParityErrorHandler+0x288>
   427cc:	e3a00001 	mov	r0, #1
   427d0:	e24cc040 	sub	ip, ip, #64	; 0x40
   427d4:	e1a0cc10 	lsl	ip, r0, ip
   427d8:	e581c000 	str	ip, [r1]
   427dc:	e59dc000 	ldr	ip, [sp]
   427e0:	e59f1070 	ldr	r1, [pc, #112]	; 42858 <vimParityErrorHandler+0x28c>
   427e4:	e3a00001 	mov	r0, #1
   427e8:	e24cc040 	sub	ip, ip, #64	; 0x40
   427ec:	e1a0cc10 	lsl	ip, r0, ip
   427f0:	e581c000 	str	ip, [r1]
   427f4:	e28dd010 	add	sp, sp, #16
   427f8:	ecbd0b10 	vpop	{d0-d7}
   427fc:	e8bd1000 	ldmfd	sp!, {ip}
   42800:	eee1ca10 	vmsr	fpscr, ip
   42804:	e8bd1000 	ldmfd	sp!, {ip}
   42808:	eee8ca10 	vmsr	fpexc, ip
   4280c:	e8bd500f 	pop	{r0, r1, r2, r3, ip, lr}
   42810:	e25ef004 	subs	pc, lr, #4
   42814:	fffffdf4 	.word	0xfffffdf4
   42818:	fff82000 	.word	0xfff82000
   4281c:	00034e5c 	.word	0x00034e5c
   42820:	fffffdec 	.word	0xfffffdec
   42824:	fffffe04 	.word	0xfffffe04
   42828:	fffffe00 	.word	0xfffffe00
   4282c:	fffffe20 	.word	0xfffffe20
   42830:	fffff528 	.word	0xfffff528
   42834:	fffff518 	.word	0xfffff518
   42838:	fffff51c 	.word	0xfffff51c
   4283c:	fffff558 	.word	0xfffff558
   42840:	fffff55c 	.word	0xfffff55c
   42844:	fffffe40 	.word	0xfffffe40
   42848:	fffffe30 	.word	0xfffffe30
   4284c:	fffffe44 	.word	0xfffffe44
   42850:	fffffe34 	.word	0xfffffe34
   42854:	fffffe48 	.word	0xfffffe48
   42858:	fffffe38 	.word	0xfffffe38

0004285c <emif_ASYNC1Init>:
   4285c:	e59f0234 	ldr	r0, [pc, #564]	; 42a98 <emifGetConfigValue+0x158>
   42860:	e3a0c000 	mov	ip, #0
   42864:	e580c000 	str	ip, [r0]
   42868:	e59f0228 	ldr	r0, [pc, #552]	; 42a98 <emifGetConfigValue+0x158>
   4286c:	e59fc228 	ldr	ip, [pc, #552]	; 42a9c <emifGetConfigValue+0x15c>
   42870:	e580c000 	str	ip, [r0]
   42874:	e59fc224 	ldr	ip, [pc, #548]	; 42aa0 <emifGetConfigValue+0x160>
   42878:	e59f1220 	ldr	r1, [pc, #544]	; 42aa0 <emifGetConfigValue+0x160>
   4287c:	e59f0220 	ldr	r0, [pc, #544]	; 42aa4 <emifGetConfigValue+0x164>
   42880:	e59cc000 	ldr	ip, [ip]
   42884:	e000c00c 	and	ip, r0, ip
   42888:	e38cc252 	orr	ip, ip, #536870917	; 0x20000005
   4288c:	e581c000 	str	ip, [r1]
   42890:	e59fc210 	ldr	ip, [pc, #528]	; 42aa8 <emifGetConfigValue+0x168>
   42894:	e59f020c 	ldr	r0, [pc, #524]	; 42aa8 <emifGetConfigValue+0x168>
   42898:	e59cc000 	ldr	ip, [ip]
   4289c:	e3ccc0ff 	bic	ip, ip, #255	; 0xff
   428a0:	e580c000 	str	ip, [r0]
   428a4:	e12fff1e 	bx	lr

000428a8 <emif_ASYNC2Init>:
   428a8:	e59f01fc 	ldr	r0, [pc, #508]	; 42aac <emifGetConfigValue+0x16c>
   428ac:	e3a0c000 	mov	ip, #0
   428b0:	e580c000 	str	ip, [r0]
   428b4:	e59f01f0 	ldr	r0, [pc, #496]	; 42aac <emifGetConfigValue+0x16c>
   428b8:	e59fc1f0 	ldr	ip, [pc, #496]	; 42ab0 <emifGetConfigValue+0x170>
   428bc:	e580c000 	str	ip, [r0]
   428c0:	e59fc1d8 	ldr	ip, [pc, #472]	; 42aa0 <emifGetConfigValue+0x160>
   428c4:	e59f11d4 	ldr	r1, [pc, #468]	; 42aa0 <emifGetConfigValue+0x160>
   428c8:	e59f01d4 	ldr	r0, [pc, #468]	; 42aa4 <emifGetConfigValue+0x164>
   428cc:	e59cc000 	ldr	ip, [ip]
   428d0:	e000c00c 	and	ip, r0, ip
   428d4:	e38cc252 	orr	ip, ip, #536870917	; 0x20000005
   428d8:	e581c000 	str	ip, [r1]
   428dc:	e59fc1c4 	ldr	ip, [pc, #452]	; 42aa8 <emifGetConfigValue+0x168>
   428e0:	e59f01c0 	ldr	r0, [pc, #448]	; 42aa8 <emifGetConfigValue+0x168>
   428e4:	e59cc000 	ldr	ip, [ip]
   428e8:	e3ccccff 	bic	ip, ip, #65280	; 0xff00
   428ec:	e580c000 	str	ip, [r0]
   428f0:	e12fff1e 	bx	lr

000428f4 <emif_ASYNC3Init>:
   428f4:	e59f01b8 	ldr	r0, [pc, #440]	; 42ab4 <emifGetConfigValue+0x174>
   428f8:	e3a0c000 	mov	ip, #0
   428fc:	e580c000 	str	ip, [r0]
   42900:	e59f01ac 	ldr	r0, [pc, #428]	; 42ab4 <emifGetConfigValue+0x174>
   42904:	e3e0c13b 	mvn	ip, #-1073741810	; 0xc000000e
   42908:	e580c000 	str	ip, [r0]
   4290c:	e59fc18c 	ldr	ip, [pc, #396]	; 42aa0 <emifGetConfigValue+0x160>
   42910:	e59f1188 	ldr	r1, [pc, #392]	; 42aa0 <emifGetConfigValue+0x160>
   42914:	e59f0188 	ldr	r0, [pc, #392]	; 42aa4 <emifGetConfigValue+0x164>
   42918:	e59cc000 	ldr	ip, [ip]
   4291c:	e000c00c 	and	ip, r0, ip
   42920:	e38cc252 	orr	ip, ip, #536870917	; 0x20000005
   42924:	e581c000 	str	ip, [r1]
   42928:	e59fc178 	ldr	ip, [pc, #376]	; 42aa8 <emifGetConfigValue+0x168>
   4292c:	e59f0174 	ldr	r0, [pc, #372]	; 42aa8 <emifGetConfigValue+0x168>
   42930:	e59cc000 	ldr	ip, [ip]
   42934:	e3ccc8ff 	bic	ip, ip, #16711680	; 0xff0000
   42938:	e580c000 	str	ip, [r0]
   4293c:	e12fff1e 	bx	lr

00042940 <emifGetConfigValue>:
   42940:	e24dd008 	sub	sp, sp, #8
   42944:	e5cd1004 	strb	r1, [sp, #4]
   42948:	e58d0000 	str	r0, [sp]
   4294c:	e5ddc004 	ldrb	ip, [sp, #4]
   42950:	e35c0000 	cmp	ip, #0
   42954:	1a000021 	bne	429e0 <emifGetConfigValue+0xa0>
   42958:	e59dc000 	ldr	ip, [sp]
   4295c:	e3a0025e 	mov	r0, #-536870907	; 0xe0000005
   42960:	e58c0000 	str	r0, [ip]
   42964:	e59dc000 	ldr	ip, [sp]
   42968:	e59f0148 	ldr	r0, [pc, #328]	; 42ab8 <emifGetConfigValue+0x178>
   4296c:	e58c0004 	str	r0, [ip, #4]
   42970:	e59dc000 	ldr	ip, [sp]
   42974:	e3a00000 	mov	r0, #0
   42978:	e58c0008 	str	r0, [ip, #8]
   4297c:	e59dc000 	ldr	ip, [sp]
   42980:	e59f0114 	ldr	r0, [pc, #276]	; 42a9c <emifGetConfigValue+0x15c>
   42984:	e58c000c 	str	r0, [ip, #12]
   42988:	e59dc000 	ldr	ip, [sp]
   4298c:	e59f011c 	ldr	r0, [pc, #284]	; 42ab0 <emifGetConfigValue+0x170>
   42990:	e58c0010 	str	r0, [ip, #16]
   42994:	e59dc000 	ldr	ip, [sp]
   42998:	e3e0013b 	mvn	r0, #-1073741810	; 0xc000000e
   4299c:	e58c0014 	str	r0, [ip, #20]
   429a0:	e59dc000 	ldr	ip, [sp]
   429a4:	e3e0010b 	mvn	r0, #-1073741822	; 0xc0000002
   429a8:	e58c0018 	str	r0, [ip, #24]
   429ac:	e59dc000 	ldr	ip, [sp]
   429b0:	e3a00000 	mov	r0, #0
   429b4:	e58c001c 	str	r0, [ip, #28]
   429b8:	e59dc000 	ldr	ip, [sp]
   429bc:	e3a00000 	mov	r0, #0
   429c0:	e58c0020 	str	r0, [ip, #32]
   429c4:	e59dc000 	ldr	ip, [sp]
   429c8:	e3a00000 	mov	r0, #0
   429cc:	e58c0024 	str	r0, [ip, #36]	; 0x24
   429d0:	e59dc000 	ldr	ip, [sp]
   429d4:	e3a0033f 	mov	r0, #-67108864	; 0xfc000000
   429d8:	e58c0028 	str	r0, [ip, #40]	; 0x28
   429dc:	ea00002b 	b	42a90 <emifGetConfigValue+0x150>
   429e0:	e59fc0b8 	ldr	ip, [pc, #184]	; 42aa0 <emifGetConfigValue+0x160>
   429e4:	e59d0000 	ldr	r0, [sp]
   429e8:	e59cc000 	ldr	ip, [ip]
   429ec:	e580c000 	str	ip, [r0]
   429f0:	e59fc0c4 	ldr	ip, [pc, #196]	; 42abc <emifGetConfigValue+0x17c>
   429f4:	e59d0000 	ldr	r0, [sp]
   429f8:	e59cc000 	ldr	ip, [ip]
   429fc:	e580c004 	str	ip, [r0, #4]
   42a00:	e59fc0b8 	ldr	ip, [pc, #184]	; 42ac0 <emifGetConfigValue+0x180>
   42a04:	e59d0000 	ldr	r0, [sp]
   42a08:	e59cc000 	ldr	ip, [ip]
   42a0c:	e580c008 	str	ip, [r0, #8]
   42a10:	e59fc080 	ldr	ip, [pc, #128]	; 42a98 <emifGetConfigValue+0x158>
   42a14:	e59d0000 	ldr	r0, [sp]
   42a18:	e59cc000 	ldr	ip, [ip]
   42a1c:	e580c00c 	str	ip, [r0, #12]
   42a20:	e59fc084 	ldr	ip, [pc, #132]	; 42aac <emifGetConfigValue+0x16c>
   42a24:	e59d0000 	ldr	r0, [sp]
   42a28:	e59cc000 	ldr	ip, [ip]
   42a2c:	e580c010 	str	ip, [r0, #16]
   42a30:	e59fc07c 	ldr	ip, [pc, #124]	; 42ab4 <emifGetConfigValue+0x174>
   42a34:	e59d0000 	ldr	r0, [sp]
   42a38:	e59cc000 	ldr	ip, [ip]
   42a3c:	e580c014 	str	ip, [r0, #20]
   42a40:	e59fc07c 	ldr	ip, [pc, #124]	; 42ac4 <emifGetConfigValue+0x184>
   42a44:	e59d0000 	ldr	r0, [sp]
   42a48:	e59cc000 	ldr	ip, [ip]
   42a4c:	e580c018 	str	ip, [r0, #24]
   42a50:	e59fc070 	ldr	ip, [pc, #112]	; 42ac8 <emifGetConfigValue+0x188>
   42a54:	e59d0000 	ldr	r0, [sp]
   42a58:	e59cc000 	ldr	ip, [ip]
   42a5c:	e580c01c 	str	ip, [r0, #28]
   42a60:	e59fc064 	ldr	ip, [pc, #100]	; 42acc <emifGetConfigValue+0x18c>
   42a64:	e59d0000 	ldr	r0, [sp]
   42a68:	e59cc000 	ldr	ip, [ip]
   42a6c:	e580c020 	str	ip, [r0, #32]
   42a70:	e59fc058 	ldr	ip, [pc, #88]	; 42ad0 <emifGetConfigValue+0x190>
   42a74:	e59d0000 	ldr	r0, [sp]
   42a78:	e59cc000 	ldr	ip, [ip]
   42a7c:	e580c024 	str	ip, [r0, #36]	; 0x24
   42a80:	e59fc020 	ldr	ip, [pc, #32]	; 42aa8 <emifGetConfigValue+0x168>
   42a84:	e59d0000 	ldr	r0, [sp]
   42a88:	e59cc000 	ldr	ip, [ip]
   42a8c:	e580c028 	str	ip, [r0, #40]	; 0x28
   42a90:	e28dd008 	add	sp, sp, #8
   42a94:	e12fff1e 	bx	lr
   42a98:	fcffe810 	.word	0xfcffe810
   42a9c:	948aa451 	.word	0x948aa451
   42aa0:	fcffe804 	.word	0xfcffe804
   42aa4:	c0ff0000 	.word	0xc0ff0000
   42aa8:	fcffe868 	.word	0xfcffe868
   42aac:	fcffe814 	.word	0xfcffe814
   42ab0:	8852455d 	.word	0x8852455d
   42ab4:	fcffe818 	.word	0xfcffe818
   42ab8:	80004000 	.word	0x80004000
   42abc:	fcffe808 	.word	0xfcffe808
   42ac0:	fcffe80c 	.word	0xfcffe80c
   42ac4:	fcffe81c 	.word	0xfcffe81c
   42ac8:	fcffe820 	.word	0xfcffe820
   42acc:	fcffe83c 	.word	0xfcffe83c
   42ad0:	fcffe844 	.word	0xfcffe844

00042ad4 <_pconv_a>:
   42ad4:	e92d 4ff0 	stmdb	sp!, {r4, r5, r6, r7, r8, r9, sl, fp, lr}
   42ad8:	a28c      	add	r2, pc, #560	; (adr r2, 42d0c <_pconv_a+0x238>)
   42ada:	4605      	mov	r5, r0
   42adc:	2000      	movs	r0, #0
   42ade:	ed2d 8b02 	vpush	{d8}
   42ae2:	eeb0 8b40 	vmov.f64	d8, d0
   42ae6:	4688      	mov	r8, r1
   42ae8:	f1ad 0d74 	sub.w	sp, sp, #116	; 0x74
   42aec:	9000      	str	r0, [sp, #0]
   42aee:	ed92 0b00 	vldr	d0, [r2]
   42af2:	a088      	add	r0, pc, #544	; (adr r0, 42d14 <_pconv_a+0x240>)
   42af4:	eeb4 8bc0 	vcmpe.f64	d8, d0
   42af8:	eef1 fa10 	vmrs	APSR_nzcv, fpscr
   42afc:	da0d      	bge.n	42b1a <_pconv_a+0x46>
   42afe:	ed90 0b00 	vldr	d0, [r0]
   42b02:	4602      	mov	r2, r0
   42b04:	eeb4 8bc0 	vcmpe.f64	d8, d0
   42b08:	eef1 fa10 	vmrs	APSR_nzcv, fpscr
   42b0c:	d905      	bls.n	42b1a <_pconv_a+0x46>
   42b0e:	eeb5 8bc0 	vcmpe.f64	d8, #0.0
   42b12:	eef1 fa10 	vmrs	APSR_nzcv, fpscr
   42b16:	d102      	bne.n	42b1e <_pconv_a+0x4a>
   42b18:	e009      	b.n	42b2e <_pconv_a+0x5a>
   42b1a:	ed92 8b00 	vldr	d8, [r2]
   42b1e:	4668      	mov	r0, sp
   42b20:	eeb0 0b48 	vmov.f64	d0, d8
   42b24:	f001 f962 	bl	43dec <frexp>
   42b28:	9800      	ldr	r0, [sp, #0]
   42b2a:	1e40      	subs	r0, r0, #1
   42b2c:	9000      	str	r0, [sp, #0]
   42b2e:	7b28      	ldrb	r0, [r5, #12]
   42b30:	68ae      	ldr	r6, [r5, #8]
   42b32:	2700      	movs	r7, #0
   42b34:	f1a0 0a41 	sub.w	sl, r0, #65	; 0x41
   42b38:	f1b6 3fff 	cmp.w	r6, #4294967295	; 0xffffffff
   42b3c:	bf08      	it	eq
   42b3e:	2701      	moveq	r7, #1
   42b40:	46bb      	mov	fp, r7
   42b42:	2841      	cmp	r0, #65	; 0x41
   42b44:	bf0c      	ite	eq
   42b46:	a767      	addeq	r7, pc, #412	; (adr r7, 42ce4 <_pconv_a+0x210>)
   42b48:	a76b      	addne	r7, pc, #428	; (adr r7, 42cf8 <_pconv_a+0x224>)
   42b4a:	eeb5 8bc0 	vcmpe.f64	d8, #0.0
   42b4e:	2030      	movs	r0, #48	; 0x30
   42b50:	eef1 fa10 	vmrs	APSR_nzcv, fpscr
   42b54:	f88d 0008 	strb.w	r0, [sp, #8]
   42b58:	bf38      	it	cc
   42b5a:	eeb1 8b48 	vnegcc.f64	d8, d8
   42b5e:	eeb5 8bc0 	vcmpe.f64	d8, #0.0
   42b62:	eef1 fa10 	vmrs	APSR_nzcv, fpscr
   42b66:	d00d      	beq.n	42b84 <_pconv_a+0xb0>
   42b68:	a801      	add	r0, sp, #4
   42b6a:	eeb0 0b48 	vmov.f64	d0, d8
   42b6e:	f001 f93d 	bl	43dec <frexp>
   42b72:	9801      	ldr	r0, [sp, #4]
   42b74:	eeb0 0b48 	vmov.f64	d0, d8
   42b78:	f1c0 0001 	rsb	r0, r0, #1
   42b7c:	f000 fd52 	bl	43624 <scalbn>
   42b80:	eeb0 8b40 	vmov.f64	d8, d0
   42b84:	eebd 0bc8 	vcvt.s32.f64	s0, d8
   42b88:	ee10 9a10 	vmov	r9, s0
   42b8c:	f10d 0109 	add.w	r1, sp, #9
   42b90:	4648      	mov	r0, r9
   42b92:	f001 f9f9 	bl	43f88 <ltoa>
   42b96:	901b      	str	r0, [sp, #108]	; 0x6c
   42b98:	ee00 9a10 	vmov	s0, r9
   42b9c:	f1bb 0f00 	cmp.w	fp, #0
   42ba0:	eeb8 0bc0 	vcvt.f64.s32	d0, s0
   42ba4:	eb0d 0400 	add.w	r4, sp, r0
   42ba8:	f104 0409 	add.w	r4, r4, #9
   42bac:	ee38 8b40 	vsub.f64	d8, d8, d0
   42bb0:	bf18      	it	ne
   42bb2:	eeb3 0b00 	vmovne.f64	d0, #48	; 0x41800000  16.0
   42bb6:	d14e      	bne.n	42c56 <_pconv_a+0x182>
   42bb8:	1c76      	adds	r6, r6, #1
   42bba:	eeb3 0b00 	vmov.f64	d0, #48	; 0x41800000  16.0
   42bbe:	d010      	beq.n	42be2 <_pconv_a+0x10e>
   42bc0:	ee20 1b08 	vmul.f64	d1, d0, d8
   42bc4:	1e76      	subs	r6, r6, #1
   42bc6:	eebd 2bc1 	vcvt.s32.f64	s4, d1
   42bca:	ee12 0a10 	vmov	r0, s4
   42bce:	ee02 0a10 	vmov	s4, r0
   42bd2:	eeb8 2bc2 	vcvt.f64.s32	d2, s4
   42bd6:	5c38      	ldrb	r0, [r7, r0]
   42bd8:	f804 0b01 	strb.w	r0, [r4], #1
   42bdc:	ee31 8b42 	vsub.f64	d8, d1, d2
   42be0:	d1ee      	bne.n	42bc0 <_pconv_a+0xec>
   42be2:	1e64      	subs	r4, r4, #1
   42be4:	f1ba 0f00 	cmp.w	sl, #0
   42be8:	bf14      	ite	ne
   42bea:	a643      	addne	r6, pc, #268	; (adr r6, 42cf8 <_pconv_a+0x224>)
   42bec:	a63d      	addeq	r6, pc, #244	; (adr r6, 42ce4 <_pconv_a+0x210>)
   42bee:	7821      	ldrb	r1, [r4, #0]
   42bf0:	4630      	mov	r0, r6
   42bf2:	f001 fb7a 	bl	442ea <strchr>
   42bf6:	1b80      	subs	r0, r0, r6
   42bf8:	2808      	cmp	r0, #8
   42bfa:	db31      	blt.n	42c60 <_pconv_a+0x18c>
   42bfc:	4627      	mov	r7, r4
   42bfe:	f04f 0b00 	mov.w	fp, #0
   42c02:	1e7e      	subs	r6, r7, #1
   42c04:	f1ba 0f00 	cmp.w	sl, #0
   42c08:	bf14      	ite	ne
   42c0a:	f20f 09ec 	addwne	r9, pc, #236	; 0xec
   42c0e:	f20f 09d4 	addweq	r9, pc, #212	; 0xd4
   42c12:	7831      	ldrb	r1, [r6, #0]
   42c14:	4648      	mov	r0, r9
   42c16:	f001 fb68 	bl	442ea <strchr>
   42c1a:	eba0 0009 	sub.w	r0, r0, r9
   42c1e:	1c40      	adds	r0, r0, #1
   42c20:	2810      	cmp	r0, #16
   42c22:	bfb4      	ite	lt
   42c24:	f819 1000 	ldrblt.w	r1, [r9, r0]
   42c28:	2130      	movge	r1, #48	; 0x30
   42c2a:	2810      	cmp	r0, #16
   42c2c:	7031      	strb	r1, [r6, #0]
   42c2e:	db17      	blt.n	42c60 <_pconv_a+0x18c>
   42c30:	1e76      	subs	r6, r6, #1
   42c32:	f807 bd01 	strb.w	fp, [r7, #-1]!
   42c36:	e7e5      	b.n	42c04 <_pconv_a+0x130>
   42c38:	ee20 1b08 	vmul.f64	d1, d0, d8
   42c3c:	eebd 2bc1 	vcvt.s32.f64	s4, d1
   42c40:	ee12 0a10 	vmov	r0, s4
   42c44:	ee02 0a10 	vmov	s4, r0
   42c48:	eeb8 2bc2 	vcvt.f64.s32	d2, s4
   42c4c:	5c38      	ldrb	r0, [r7, r0]
   42c4e:	f804 0b01 	strb.w	r0, [r4], #1
   42c52:	ee31 8b42 	vsub.f64	d8, d1, d2
   42c56:	eeb5 8bc0 	vcmpe.f64	d8, #0.0
   42c5a:	eef1 fa10 	vmrs	APSR_nzcv, fpscr
   42c5e:	d1eb      	bne.n	42c38 <_pconv_a+0x164>
   42c60:	2200      	movs	r2, #0
   42c62:	7b28      	ldrb	r0, [r5, #12]
   42c64:	4616      	mov	r6, r2
   42c66:	7026      	strb	r6, [r4, #0]
   42c68:	2841      	cmp	r0, #65	; 0x41
   42c6a:	bf14      	ite	ne
   42c6c:	2170      	movne	r1, #112	; 0x70
   42c6e:	2150      	moveq	r1, #80	; 0x50
   42c70:	9800      	ldr	r0, [sp, #0]
   42c72:	4642      	mov	r2, r8
   42c74:	f001 f95e 	bl	43f34 <_ecpy>
   42c78:	68a8      	ldr	r0, [r5, #8]
   42c7a:	f1b0 3fff 	cmp.w	r0, #4294967295	; 0xffffffff
   42c7e:	d105      	bne.n	42c8c <_pconv_a+0x1b8>
   42c80:	f10d 0009 	add.w	r0, sp, #9
   42c84:	f001 fb3c 	bl	44300 <strlen>
   42c88:	1e40      	subs	r0, r0, #1
   42c8a:	60a8      	str	r0, [r5, #8]
   42c8c:	4602      	mov	r2, r0
   42c8e:	f10d 0909 	add.w	r9, sp, #9
   42c92:	991b      	ldr	r1, [sp, #108]	; 0x6c
   42c94:	4643      	mov	r3, r8
   42c96:	4648      	mov	r0, r9
   42c98:	f001 fa8a 	bl	441b0 <_fcpy>
   42c9c:	6828      	ldr	r0, [r5, #0]
   42c9e:	68af      	ldr	r7, [r5, #8]
   42ca0:	4632      	mov	r2, r6
   42ca2:	f000 0008 	and.w	r0, r0, #8
   42ca6:	4307      	orrs	r7, r0
   42ca8:	bf18      	it	ne
   42caa:	2201      	movne	r2, #1
   42cac:	991b      	ldr	r1, [sp, #108]	; 0x6c
   42cae:	4643      	mov	r3, r8
   42cb0:	4648      	mov	r0, r9
   42cb2:	f001 f821 	bl	43cf8 <_mcpy>
   42cb6:	7b28      	ldrb	r0, [r5, #12]
   42cb8:	2841      	cmp	r0, #65	; 0x41
   42cba:	bf14      	ite	ne
   42cbc:	2178      	movne	r1, #120	; 0x78
   42cbe:	2158      	moveq	r1, #88	; 0x58
   42cc0:	f8d8 0000 	ldr.w	r0, [r8]
   42cc4:	1e42      	subs	r2, r0, #1
   42cc6:	f8c8 2000 	str.w	r2, [r8]
   42cca:	7001      	strb	r1, [r0, #0]
   42ccc:	f8d8 0000 	ldr.w	r0, [r8]
   42cd0:	1e41      	subs	r1, r0, #1
   42cd2:	b01d      	add	sp, #116	; 0x74
   42cd4:	f8c8 1000 	str.w	r1, [r8]
   42cd8:	2730      	movs	r7, #48	; 0x30
   42cda:	7007      	strb	r7, [r0, #0]
   42cdc:	ecbd 8b02 	vpop	{d8}
   42ce0:	e8bd 8ff0 	ldmia.w	sp!, {r4, r5, r6, r7, r8, r9, sl, fp, pc}
   42ce4:	30313233 	.word	0x30313233
   42ce8:	34353637 	.word	0x34353637
   42cec:	38394142 	.word	0x38394142
   42cf0:	43444546 	.word	0x43444546
   42cf4:	00c046c0 	.word	0x00c046c0
   42cf8:	30313233 	.word	0x30313233
   42cfc:	34353637 	.word	0x34353637
   42d00:	38396162 	.word	0x38396162
   42d04:	63646566 	.word	0x63646566
   42d08:	00c046c0 	.word	0x00c046c0
   42d0c:	7ff00000 	.word	0x7ff00000
   42d10:	00000000 	.word	0x00000000
   42d14:	fff00000 	.word	0xfff00000
   42d18:	00000000 	.word	0x00000000

00042d1c <_pconv_g>:
   42d1c:	e92d 47f0 	stmdb	sp!, {r4, r5, r6, r7, r8, r9, sl, lr}
   42d20:	4605      	mov	r5, r0
   42d22:	4689      	mov	r9, r1
   42d24:	f04f 0800 	mov.w	r8, #0
   42d28:	ed2d 8b04 	vpush	{d8-d9}
   42d2c:	68aa      	ldr	r2, [r5, #8]
   42d2e:	2a00      	cmp	r2, #0
   42d30:	f1ad 0d68 	sub.w	sp, sp, #104	; 0x68
   42d34:	d002      	beq.n	42d3c <_pconv_g+0x20>
   42d36:	d503      	bpl.n	42d40 <_pconv_g+0x24>
   42d38:	2206      	movs	r2, #6
   42d3a:	e000      	b.n	42d3e <_pconv_g+0x22>
   42d3c:	2201      	movs	r2, #1
   42d3e:	60aa      	str	r2, [r5, #8]
   42d40:	eeb0 9b40 	vmov.f64	d9, d0
   42d44:	f04f 0a30 	mov.w	sl, #48	; 0x30
   42d48:	eeb5 9bc0 	vcmpe.f64	d9, #0.0
   42d4c:	eef1 fa10 	vmrs	APSR_nzcv, fpscr
   42d50:	f88d a000 	strb.w	sl, [sp]
   42d54:	f102 0701 	add.w	r7, r2, #1
   42d58:	bf38      	it	cc
   42d5a:	eeb1 9b49 	vnegcc.f64	d9, d9
   42d5e:	4644      	mov	r4, r8
   42d60:	eeb2 8b04 	vmov.f64	d8, #36	; 0x41200000  10.0
   42d64:	e009      	b.n	42d7a <_pconv_g+0x5e>
   42d66:	f882 a000 	strb.w	sl, [r2]
   42d6a:	e046      	b.n	42dfa <_pconv_g+0xde>
   42d6c:	ee28 9b09 	vmul.f64	d9, d8, d9
   42d70:	1e64      	subs	r4, r4, #1
   42d72:	e00c      	b.n	42d8e <_pconv_g+0x72>
   42d74:	ee89 9b08 	vdiv.f64	d9, d9, d8
   42d78:	1c64      	adds	r4, r4, #1
   42d7a:	a04e      	add	r0, pc, #312	; (adr r0, 42eb4 <_pconv_g+0x198>)
   42d7c:	ed90 0b00 	vldr	d0, [r0]
   42d80:	eeb4 9bc0 	vcmpe.f64	d9, d0
   42d84:	eef1 fa10 	vmrs	APSR_nzcv, fpscr
   42d88:	eeb7 0b00 	vmov.f64	d0, #112	; 0x3f800000  1.0
   42d8c:	dcf2      	bgt.n	42d74 <_pconv_g+0x58>
   42d8e:	eeb5 9bc0 	vcmpe.f64	d9, #0.0
   42d92:	eef1 fa10 	vmrs	APSR_nzcv, fpscr
   42d96:	d004      	beq.n	42da2 <_pconv_g+0x86>
   42d98:	eeb4 9bc0 	vcmpe.f64	d9, d0
   42d9c:	eef1 fa10 	vmrs	APSR_nzcv, fpscr
   42da0:	d3e4      	bcc.n	42d6c <_pconv_g+0x50>
   42da2:	eebd 0bc9 	vcvt.s32.f64	s0, d9
   42da6:	ee10 6a10 	vmov	r6, s0
   42daa:	f10d 0101 	add.w	r1, sp, #1
   42dae:	4630      	mov	r0, r6
   42db0:	f001 f8ea 	bl	43f88 <ltoa>
   42db4:	eb0d 0100 	add.w	r1, sp, r0
   42db8:	4287      	cmp	r7, r0
   42dba:	4404      	add	r4, r0
   42dbc:	f101 0101 	add.w	r1, r1, #1
   42dc0:	dd13      	ble.n	42dea <_pconv_g+0xce>
   42dc2:	1a3f      	subs	r7, r7, r0
   42dc4:	ee00 6a10 	vmov	s0, r6
   42dc8:	1e7f      	subs	r7, r7, #1
   42dca:	eeb8 0bc0 	vcvt.f64.s32	d0, s0
   42dce:	ee39 0b40 	vsub.f64	d0, d9, d0
   42dd2:	ee28 9b00 	vmul.f64	d9, d8, d0
   42dd6:	eebd 0bc9 	vcvt.s32.f64	s0, d9
   42dda:	ee10 6a10 	vmov	r6, s0
   42dde:	f106 0030 	add.w	r0, r6, #48	; 0x30
   42de2:	f801 0b01 	strb.w	r0, [r1], #1
   42de6:	d1ed      	bne.n	42dc4 <_pconv_g+0xa8>
   42de8:	e002      	b.n	42df0 <_pconv_g+0xd4>
   42dea:	eb0d 0107 	add.w	r1, sp, r7
   42dee:	1c49      	adds	r1, r1, #1
   42df0:	f811 0d01 	ldrb.w	r0, [r1, #-1]!
   42df4:	460a      	mov	r2, r1
   42df6:	2834      	cmp	r0, #52	; 0x34
   42df8:	dd0a      	ble.n	42e10 <_pconv_g+0xf4>
   42dfa:	f812 0c01 	ldrb.w	r0, [r2, #-1]
   42dfe:	466e      	mov	r6, sp
   42e00:	1c40      	adds	r0, r0, #1
   42e02:	b2c3      	uxtb	r3, r0
   42e04:	2b3a      	cmp	r3, #58	; 0x3a
   42e06:	f802 0d01 	strb.w	r0, [r2, #-1]!
   42e0a:	daac      	bge.n	42d66 <_pconv_g+0x4a>
   42e0c:	4296      	cmp	r6, r2
   42e0e:	d004      	beq.n	42e1a <_pconv_g+0xfe>
   42e10:	4640      	mov	r0, r8
   42e12:	f10d 0601 	add.w	r6, sp, #1
   42e16:	7008      	strb	r0, [r1, #0]
   42e18:	e002      	b.n	42e20 <_pconv_g+0x104>
   42e1a:	f801 8c01 	strb.w	r8, [r1, #-1]
   42e1e:	1c64      	adds	r4, r4, #1
   42e20:	f114 0f03 	cmn.w	r4, #3
   42e24:	db07      	blt.n	42e36 <_pconv_g+0x11a>
   42e26:	68a8      	ldr	r0, [r5, #8]
   42e28:	42a0      	cmp	r0, r4
   42e2a:	da12      	bge.n	42e52 <_pconv_g+0x136>
   42e2c:	2c02      	cmp	r4, #2
   42e2e:	bfa4      	itt	ge
   42e30:	1e64      	subge	r4, r4, #1
   42e32:	44a0      	addge	r8, r4
   42e34:	da05      	bge.n	42e42 <_pconv_g+0x126>
   42e36:	2c00      	cmp	r4, #0
   42e38:	dc04      	bgt.n	42e44 <_pconv_g+0x128>
   42e3a:	f1c4 0401 	rsb	r4, r4, #1
   42e3e:	eba8 0804 	sub.w	r8, r8, r4
   42e42:	2401      	movs	r4, #1
   42e44:	7b29      	ldrb	r1, [r5, #12]
   42e46:	464a      	mov	r2, r9
   42e48:	4640      	mov	r0, r8
   42e4a:	1e89      	subs	r1, r1, #2
   42e4c:	b2c9      	uxtb	r1, r1
   42e4e:	f001 f871 	bl	43f34 <_ecpy>
   42e52:	4630      	mov	r0, r6
   42e54:	f001 fa54 	bl	44300 <strlen>
   42e58:	1e40      	subs	r0, r0, #1
   42e5a:	4284      	cmp	r4, r0
   42e5c:	f04f 0700 	mov.w	r7, #0
   42e60:	dc17      	bgt.n	42e92 <_pconv_g+0x176>
   42e62:	1b01      	subs	r1, r0, r4
   42e64:	1c49      	adds	r1, r1, #1
   42e66:	2800      	cmp	r0, #0
   42e68:	d403      	bmi.n	42e72 <_pconv_g+0x156>
   42e6a:	5c32      	ldrb	r2, [r6, r0]
   42e6c:	2a30      	cmp	r2, #48	; 0x30
   42e6e:	d001      	beq.n	42e74 <_pconv_g+0x158>
   42e70:	e004      	b.n	42e7c <_pconv_g+0x160>
   42e72:	4652      	mov	r2, sl
   42e74:	b917      	cbnz	r7, 42e7c <_pconv_g+0x160>
   42e76:	682b      	ldr	r3, [r5, #0]
   42e78:	091b      	lsrs	r3, r3, #4
   42e7a:	d306      	bcc.n	42e8a <_pconv_g+0x16e>
   42e7c:	f8d9 3000 	ldr.w	r3, [r9]
   42e80:	1e5f      	subs	r7, r3, #1
   42e82:	f8c9 7000 	str.w	r7, [r9]
   42e86:	701a      	strb	r2, [r3, #0]
   42e88:	2701      	movs	r7, #1
   42e8a:	1e49      	subs	r1, r1, #1
   42e8c:	f1a0 0001 	sub.w	r0, r0, #1
   42e90:	d1e9      	bne.n	42e66 <_pconv_g+0x14a>
   42e92:	6828      	ldr	r0, [r5, #0]
   42e94:	2200      	movs	r2, #0
   42e96:	f000 0008 	and.w	r0, r0, #8
   42e9a:	4338      	orrs	r0, r7
   42e9c:	bf18      	it	ne
   42e9e:	2201      	movne	r2, #1
   42ea0:	464b      	mov	r3, r9
   42ea2:	4621      	mov	r1, r4
   42ea4:	4630      	mov	r0, r6
   42ea6:	f000 ff27 	bl	43cf8 <_mcpy>
   42eaa:	b01a      	add	sp, #104	; 0x68
   42eac:	ecbd 8b04 	vpop	{d8-d9}
   42eb0:	e8bd 87f0 	ldmia.w	sp!, {r4, r5, r6, r7, r8, r9, sl, pc}
   42eb4:	41dfffff 	.word	0x41dfffff
   42eb8:	ffc00000 	.word	0xffc00000

00042ebc <__SSAT>:
   42ebc:	e24dd010 	sub	sp, sp, #16
   42ec0:	e58d1004 	str	r1, [sp, #4]
   42ec4:	e58d0000 	str	r0, [sp]
   42ec8:	e59dc004 	ldr	ip, [sp, #4]
   42ecc:	e35c0000 	cmp	ip, #0
   42ed0:	0a000017 	beq	42f34 <__SSAT+0x78>
   42ed4:	e59dc004 	ldr	ip, [sp, #4]
   42ed8:	e35c0020 	cmp	ip, #32
   42edc:	8a000014 	bhi	42f34 <__SSAT+0x78>
   42ee0:	e59dc004 	ldr	ip, [sp, #4]
   42ee4:	e3a01001 	mov	r1, #1
   42ee8:	e24cc001 	sub	ip, ip, #1
   42eec:	e3a00001 	mov	r0, #1
   42ef0:	e060cc11 	rsb	ip, r0, r1, lsl ip
   42ef4:	e58dc008 	str	ip, [sp, #8]
   42ef8:	e59dc008 	ldr	ip, [sp, #8]
   42efc:	e1e0c00c 	mvn	ip, ip
   42f00:	e58dc00c 	str	ip, [sp, #12]
   42f04:	e59d0000 	ldr	r0, [sp]
   42f08:	e59dc008 	ldr	ip, [sp, #8]
   42f0c:	e15c0000 	cmp	ip, r0
   42f10:	aa000001 	bge	42f1c <__SSAT+0x60>
   42f14:	e59d0008 	ldr	r0, [sp, #8]
   42f18:	ea000006 	b	42f38 <__SSAT+0x7c>
   42f1c:	e59dc00c 	ldr	ip, [sp, #12]
   42f20:	e59d0000 	ldr	r0, [sp]
   42f24:	e15c0000 	cmp	ip, r0
   42f28:	da000001 	ble	42f34 <__SSAT+0x78>
   42f2c:	e59d000c 	ldr	r0, [sp, #12]
   42f30:	ea000000 	b	42f38 <__SSAT+0x7c>
   42f34:	e59d0000 	ldr	r0, [sp]
   42f38:	e28dd010 	add	sp, sp, #16
   42f3c:	e12fff1e 	bx	lr

00042f40 <arm_fully_connected_q7>:
   42f40:	e92d4000 	stmfd	sp!, {lr}
   42f44:	e24dd01c 	sub	sp, sp, #28
   42f48:	e1cd31b2 	strh	r3, [sp, #18]
   42f4c:	e1cd21b0 	strh	r2, [sp, #16]
   42f50:	e58d1004 	str	r1, [sp, #4]
   42f54:	e58d0000 	str	r0, [sp]
   42f58:	e3a0c000 	mov	ip, #0
   42f5c:	e58dc008 	str	ip, [sp, #8]
   42f60:	e1ddc1b2 	ldrh	ip, [sp, #18]
   42f64:	e59d0008 	ldr	r0, [sp, #8]
   42f68:	e15c0000 	cmp	ip, r0
   42f6c:	da000033 	ble	43040 <arm_fully_connected_q7+0x100>
   42f70:	e59d0028 	ldr	r0, [sp, #40]	; 0x28
   42f74:	e59d1008 	ldr	r1, [sp, #8]
   42f78:	e1dd22b6 	ldrh	r2, [sp, #38]	; 0x26
   42f7c:	e1ddc2b2 	ldrh	ip, [sp, #34]	; 0x22
   42f80:	e3a03001 	mov	r3, #1
   42f84:	e19100d0 	ldrsb	r0, [r1, r0]
   42f88:	e1a01213 	lsl	r1, r3, r2
   42f8c:	e1a010a1 	lsr	r1, r1, #1
   42f90:	e081cc10 	add	ip, r1, r0, lsl ip
   42f94:	e58dc014 	str	ip, [sp, #20]
   42f98:	e3a0c000 	mov	ip, #0
   42f9c:	e58dc00c 	str	ip, [sp, #12]
   42fa0:	e1ddc1b0 	ldrh	ip, [sp, #16]
   42fa4:	e59d000c 	ldr	r0, [sp, #12]
   42fa8:	e15c0000 	cmp	ip, r0
   42fac:	da000014 	ble	43004 <arm_fully_connected_q7+0xc4>
   42fb0:	e59dc000 	ldr	ip, [sp]
   42fb4:	e59d000c 	ldr	r0, [sp, #12]
   42fb8:	e190c0dc 	ldrsb	ip, [r0, ip]
   42fbc:	e5cdc018 	strb	ip, [sp, #24]
   42fc0:	e1dd11b0 	ldrh	r1, [sp, #16]
   42fc4:	e59d0008 	ldr	r0, [sp, #8]
   42fc8:	e59d2004 	ldr	r2, [sp, #4]
   42fcc:	e59dc00c 	ldr	ip, [sp, #12]
   42fd0:	e020c091 	mla	r0, r1, r0, ip
   42fd4:	e1ddc1d8 	ldrsb	ip, [sp, #24]
   42fd8:	e19210d0 	ldrsb	r1, [r2, r0]
   42fdc:	e59d0014 	ldr	r0, [sp, #20]
   42fe0:	e10c0c81 	smlabb	ip, r1, ip, r0
   42fe4:	e58dc014 	str	ip, [sp, #20]
   42fe8:	e59dc00c 	ldr	ip, [sp, #12]
   42fec:	e28cc001 	add	ip, ip, #1
   42ff0:	e58dc00c 	str	ip, [sp, #12]
   42ff4:	e1ddc1b0 	ldrh	ip, [sp, #16]
   42ff8:	e59d000c 	ldr	r0, [sp, #12]
   42ffc:	e15c0000 	cmp	ip, r0
   43000:	caffffea 	bgt	42fb0 <arm_fully_connected_q7+0x70>
   43004:	e1ddc2b6 	ldrh	ip, [sp, #38]	; 0x26
   43008:	e59d0014 	ldr	r0, [sp, #20]
   4300c:	e3a01008 	mov	r1, #8
   43010:	e1a00c50 	asr	r0, r0, ip
   43014:	ebffffa8 	bl	42ebc <__SSAT>
   43018:	e59dc02c 	ldr	ip, [sp, #44]	; 0x2c
   4301c:	e59d1008 	ldr	r1, [sp, #8]
   43020:	e7c1000c 	strb	r0, [r1, ip]
   43024:	e59dc008 	ldr	ip, [sp, #8]
   43028:	e28cc001 	add	ip, ip, #1
   4302c:	e58dc008 	str	ip, [sp, #8]
   43030:	e1ddc1b2 	ldrh	ip, [sp, #18]
   43034:	e59d0008 	ldr	r0, [sp, #8]
   43038:	e15c0000 	cmp	ip, r0
   4303c:	caffffcb 	bgt	42f70 <arm_fully_connected_q7+0x30>
   43040:	e3a00000 	mov	r0, #0
   43044:	e28dd01c 	add	sp, sp, #28
   43048:	e8bd8000 	ldmfd	sp!, {pc}

0004304c <esmGroup1Notification>:
   4304c:	e24dd008 	sub	sp, sp, #8
   43050:	e58d0000 	str	r0, [sp]
   43054:	e28dd008 	add	sp, sp, #8
   43058:	e12fff1e 	bx	lr

0004305c <esmGroup2Notification>:
   4305c:	e24dd008 	sub	sp, sp, #8
   43060:	e58d0000 	str	r0, [sp]
   43064:	e28dd008 	add	sp, sp, #8
   43068:	e12fff1e 	bx	lr

0004306c <memoryPort0TestFailNotification>:
   4306c:	e24dd010 	sub	sp, sp, #16
   43070:	e58d300c 	str	r3, [sp, #12]
   43074:	e58d2008 	str	r2, [sp, #8]
   43078:	e58d1004 	str	r1, [sp, #4]
   4307c:	e58d0000 	str	r0, [sp]
   43080:	e28dd010 	add	sp, sp, #16
   43084:	e12fff1e 	bx	lr

00043088 <memoryPort1TestFailNotification>:
   43088:	e24dd010 	sub	sp, sp, #16
   4308c:	e58d300c 	str	r3, [sp, #12]
   43090:	e58d2008 	str	r2, [sp, #8]
   43094:	e58d1004 	str	r1, [sp, #4]
   43098:	e58d0000 	str	r0, [sp]
   4309c:	e28dd010 	add	sp, sp, #16
   430a0:	e12fff1e 	bx	lr
   430a4:	e24dd008 	sub	sp, sp, #8
   430a8:	e58d0000 	str	r0, [sp]
   430ac:	e28dd008 	add	sp, sp, #8
   430b0:	e12fff1e 	bx	lr

000430b4 <adcNotification>:
   430b4:	e24dd008 	sub	sp, sp, #8
   430b8:	e58d1004 	str	r1, [sp, #4]
   430bc:	e58d0000 	str	r0, [sp]
   430c0:	e28dd008 	add	sp, sp, #8
   430c4:	e12fff1e 	bx	lr

000430c8 <canErrorNotification>:
   430c8:	e24dd008 	sub	sp, sp, #8
   430cc:	e58d1004 	str	r1, [sp, #4]
   430d0:	e58d0000 	str	r0, [sp]
   430d4:	e28dd008 	add	sp, sp, #8
   430d8:	e12fff1e 	bx	lr

000430dc <canStatusChangeNotification>:
   430dc:	e24dd008 	sub	sp, sp, #8
   430e0:	e58d1004 	str	r1, [sp, #4]
   430e4:	e58d0000 	str	r0, [sp]
   430e8:	e28dd008 	add	sp, sp, #8
   430ec:	e12fff1e 	bx	lr

000430f0 <canMessageNotification>:
   430f0:	e24dd008 	sub	sp, sp, #8
   430f4:	e58d1004 	str	r1, [sp, #4]
   430f8:	e58d0000 	str	r0, [sp]
   430fc:	e28dd008 	add	sp, sp, #8
   43100:	e12fff1e 	bx	lr

00043104 <gioNotification>:
   43104:	e24dd008 	sub	sp, sp, #8
   43108:	e58d1004 	str	r1, [sp, #4]
   4310c:	e58d0000 	str	r0, [sp]
   43110:	e28dd008 	add	sp, sp, #8
   43114:	e12fff1e 	bx	lr

00043118 <i2cNotification>:
   43118:	e24dd008 	sub	sp, sp, #8
   4311c:	e58d1004 	str	r1, [sp, #4]
   43120:	e58d0000 	str	r0, [sp]
   43124:	e28dd008 	add	sp, sp, #8
   43128:	e12fff1e 	bx	lr
   4312c:	e24dd008 	sub	sp, sp, #8
   43130:	e58d1004 	str	r1, [sp, #4]
   43134:	e58d0000 	str	r0, [sp]
   43138:	e28dd008 	add	sp, sp, #8
   4313c:	e12fff1e 	bx	lr

00043140 <spiNotification>:
   43140:	e24dd008 	sub	sp, sp, #8
   43144:	e58d1004 	str	r1, [sp, #4]
   43148:	e58d0000 	str	r0, [sp]
   4314c:	e28dd008 	add	sp, sp, #8
   43150:	e12fff1e 	bx	lr

00043154 <spiEndNotification>:
   43154:	e24dd008 	sub	sp, sp, #8
   43158:	e58d0000 	str	r0, [sp]
   4315c:	e28dd008 	add	sp, sp, #8
   43160:	e12fff1e 	bx	lr

00043164 <pwmNotification>:
   43164:	e24dd010 	sub	sp, sp, #16
   43168:	e58d2008 	str	r2, [sp, #8]
   4316c:	e58d1004 	str	r1, [sp, #4]
   43170:	e58d0000 	str	r0, [sp]
   43174:	e28dd010 	add	sp, sp, #16
   43178:	e12fff1e 	bx	lr

0004317c <edgeNotification>:
   4317c:	e24dd008 	sub	sp, sp, #8
   43180:	e58d1004 	str	r1, [sp, #4]
   43184:	e58d0000 	str	r0, [sp]
   43188:	e28dd008 	add	sp, sp, #8
   4318c:	e12fff1e 	bx	lr

00043190 <hetNotification>:
   43190:	e24dd008 	sub	sp, sp, #8
   43194:	e58d1004 	str	r1, [sp, #4]
   43198:	e58d0000 	str	r0, [sp]
   4319c:	e28dd008 	add	sp, sp, #8
   431a0:	e12fff1e 	bx	lr

000431a4 <dmaGroupANotification>:
   431a4:	e24dd008 	sub	sp, sp, #8
   431a8:	e58d1000 	str	r1, [sp]
   431ac:	e5cd0004 	strb	r0, [sp, #4]
   431b0:	e28dd008 	add	sp, sp, #8
   431b4:	e12fff1e 	bx	lr

000431b8 <_c_int00>:
   431b8:	ebfff95c 	bl	41730 <_coreInitRegisters_>
   431bc:	ebfff99e 	bl	4183c <_coreInitStackPointer_>
   431c0:	e3e0c00f 	mvn	ip, #15
   431c4:	e59f0118 	ldr	r0, [pc, #280]	; 432e4 <_c_int00+0x12c>
   431c8:	e59cc000 	ldr	ip, [ip]
   431cc:	e150000c 	cmp	r0, ip
   431d0:	1a000000 	bne	431d8 <_c_int00+0x20>
   431d4:	ebfff9fc 	bl	419cc <_esmCcmErrorsClear_>
   431d8:	ebfff9b8 	bl	418c0 <_coreEnableEventBusExport_>
   431dc:	ebfffa20 	bl	41a64 <_errata_CORTEXR4_66_>
   431e0:	ebfffa1b 	bl	41a54 <_errata_CORTEXR4_57_>
   431e4:	e3e0c01b 	mvn	ip, #27
   431e8:	e59cc000 	ldr	ip, [ip]
   431ec:	e31c0902 	tst	ip, #32768	; 0x8000
   431f0:	0a000008 	beq	43218 <_c_int00+0x60>
   431f4:	e3a00005 	mov	r0, #5
   431f8:	ebffed84 	bl	3e810 <_errata_SSWF021_45_both_plls>
   431fc:	e3500000 	cmp	r0, #0
   43200:	0a000000 	beq	43208 <_c_int00+0x50>
   43204:	eb000453 	bl	44358 <handlePLLLockFail>
   43208:	e3e0001b 	mvn	r0, #27
   4320c:	e30fcfff 	movw	ip, #65535	; 0xffff
   43210:	e580c000 	str	ip, [r0]
   43214:	ea00001f 	b	43298 <_c_int00+0xe0>
   43218:	e3e0c01b 	mvn	ip, #27
   4321c:	e59cc000 	ldr	ip, [ip]
   43220:	e31c0901 	tst	ip, #16384	; 0x4000
   43224:	1a00001b 	bne	43298 <_c_int00+0xe0>
   43228:	e3e0c01b 	mvn	ip, #27
   4322c:	e59cc000 	ldr	ip, [ip]
   43230:	e31c0a02 	tst	ip, #8192	; 0x2000
   43234:	0a00000b 	beq	43268 <_c_int00+0xb0>
   43238:	e59fc0a8 	ldr	ip, [pc, #168]	; 432e8 <_c_int00+0x130>
   4323c:	e59cc000 	ldr	ip, [ip]
   43240:	e35c0000 	cmp	ip, #0
   43244:	0a000003 	beq	43258 <_c_int00+0xa0>
   43248:	e3e0001b 	mvn	r0, #27
   4324c:	e3a0ca02 	mov	ip, #8192	; 0x2000
   43250:	e580c000 	str	ip, [r0]
   43254:	ea00000f 	b	43298 <_c_int00+0xe0>
   43258:	e3e0001b 	mvn	r0, #27
   4325c:	e3a0ca02 	mov	ip, #8192	; 0x2000
   43260:	e580c000 	str	ip, [r0]
   43264:	ea00000b 	b	43298 <_c_int00+0xe0>
   43268:	e3e0c01b 	mvn	ip, #27
   4326c:	e59cc000 	ldr	ip, [ip]
   43270:	e31c0020 	tst	ip, #32
   43274:	0a000003 	beq	43288 <_c_int00+0xd0>
   43278:	e3e0001b 	mvn	r0, #27
   4327c:	e3a0c020 	mov	ip, #32
   43280:	e580c000 	str	ip, [r0]
   43284:	ea000003 	b	43298 <_c_int00+0xe0>
   43288:	e3e0c01b 	mvn	ip, #27
   4328c:	e59cc000 	ldr	ip, [ip]
   43290:	e31c0010 	tst	ip, #16
   43294:	1affffff 	bne	43298 <_c_int00+0xe0>
   43298:	e59fc04c 	ldr	ip, [pc, #76]	; 432ec <_c_int00+0x134>
   4329c:	e59cc000 	ldr	ip, [ip]
   432a0:	e35c0000 	cmp	ip, #0
   432a4:	0a000000 	beq	432ac <_c_int00+0xf4>
   432a8:	eafffffe 	b	432a8 <_c_int00+0xf0>
   432ac:	ebffe011 	bl	3b2f8 <systemInit>
   432b0:	ebffd0c0 	bl	375b8 <errata_PBIST_4>
   432b4:	ebffc8ec 	bl	3566c <pbistSelfCheck>
   432b8:	e3a00001 	mov	r0, #1
   432bc:	ebffc894 	bl	35514 <memoryInit>
   432c0:	ebfff986 	bl	418e0 <_coreEnableRamEcc_>
   432c4:	ebffcd52 	bl	36814 <checkRAMECC>
   432c8:	ebfff995 	bl	41924 <_coreEnableIrqVicOffset_>
   432cc:	ebffe985 	bl	3d8e8 <vimInit>
   432d0:	ebfff384 	bl	400e8 <esmInit>
   432d4:	fa0003a4 	blx	4416c <__TI_auto_init_nobinit_nopinit>
   432d8:	eb0001be 	bl	439d8 <main>
   432dc:	e3a00000 	mov	r0, #0
   432e0:	fa00041b 	blx	44354 <abort>
   432e4:	802aad05 	.word	0x802aad05
   432e8:	fffffc98 	.word	0xfffffc98
   432ec:	fffff520 	.word	0xfffff520

000432f0 <esmHighInterrupt>:
   432f0:	e92d500f 	push	{r0, r1, r2, r3, ip, lr}
   432f4:	eef8ca10 	vmrs	ip, fpexc
   432f8:	e92d1000 	stmfd	sp!, {ip}
   432fc:	eef1ca10 	vmrs	ip, fpscr
   43300:	e92d1000 	stmfd	sp!, {ip}
   43304:	ed2d0b10 	vpush	{d0-d7}
   43308:	e24dd008 	sub	sp, sp, #8
   4330c:	e59f8100 	ldr	r8, [pc, #256]	; 43414 <esmHighInterrupt+0x124>
   43310:	e5988000 	ldr	r8, [r8]
   43314:	e2488001 	sub	r8, r8, #1
   43318:	e58d8000 	str	r8, [sp]
   4331c:	e59d8000 	ldr	r8, [sp]
   43320:	e3580020 	cmp	r8, #32
   43324:	2a000007 	bcs	43348 <esmHighInterrupt+0x58>
   43328:	e59d8000 	ldr	r8, [sp]
   4332c:	e59fa0e4 	ldr	sl, [pc, #228]	; 43418 <esmHighInterrupt+0x128>
   43330:	e3a09001 	mov	r9, #1
   43334:	e1a08819 	lsl	r8, r9, r8
   43338:	e58a8000 	str	r8, [sl]
   4333c:	e59d0000 	ldr	r0, [sp]
   43340:	ebffff41 	bl	4304c <esmGroup1Notification>
   43344:	ea000022 	b	433d4 <esmHighInterrupt+0xe4>
   43348:	e59d8000 	ldr	r8, [sp]
   4334c:	e3580040 	cmp	r8, #64	; 0x40
   43350:	2a000009 	bcs	4337c <esmHighInterrupt+0x8c>
   43354:	e59d8000 	ldr	r8, [sp]
   43358:	e59fa0bc 	ldr	sl, [pc, #188]	; 4341c <esmHighInterrupt+0x12c>
   4335c:	e3a09001 	mov	r9, #1
   43360:	e2488020 	sub	r8, r8, #32
   43364:	e1a08819 	lsl	r8, r9, r8
   43368:	e58a8000 	str	r8, [sl]
   4336c:	e59d8000 	ldr	r8, [sp]
   43370:	e2480020 	sub	r0, r8, #32
   43374:	ebffff38 	bl	4305c <esmGroup2Notification>
   43378:	ea000015 	b	433d4 <esmHighInterrupt+0xe4>
   4337c:	e59d8000 	ldr	r8, [sp]
   43380:	e3580060 	cmp	r8, #96	; 0x60
   43384:	2a000009 	bcs	433b0 <esmHighInterrupt+0xc0>
   43388:	e59d8000 	ldr	r8, [sp]
   4338c:	e59fa08c 	ldr	sl, [pc, #140]	; 43420 <esmHighInterrupt+0x130>
   43390:	e3a09001 	mov	r9, #1
   43394:	e2488040 	sub	r8, r8, #64	; 0x40
   43398:	e1a08819 	lsl	r8, r9, r8
   4339c:	e58a8000 	str	r8, [sl]
   433a0:	e59d8000 	ldr	r8, [sp]
   433a4:	e2480020 	sub	r0, r8, #32
   433a8:	ebffff27 	bl	4304c <esmGroup1Notification>
   433ac:	ea000008 	b	433d4 <esmHighInterrupt+0xe4>
   433b0:	e59f9068 	ldr	r9, [pc, #104]	; 43420 <esmHighInterrupt+0x130>
   433b4:	e3e08000 	mvn	r8, #0
   433b8:	e5898000 	str	r8, [r9]
   433bc:	e59f9058 	ldr	r9, [pc, #88]	; 4341c <esmHighInterrupt+0x12c>
   433c0:	e3e08000 	mvn	r8, #0
   433c4:	e5898000 	str	r8, [r9]
   433c8:	e59f9048 	ldr	r9, [pc, #72]	; 43418 <esmHighInterrupt+0x128>
   433cc:	e3e08000 	mvn	r8, #0
   433d0:	e5898000 	str	r8, [r9]
   433d4:	e59d1000 	ldr	r1, [sp]
   433d8:	e28f0018 	add	r0, pc, #24
   433dc:	fa0002ba 	blx	43ecc <printf>
   433e0:	e28f001c 	add	r0, pc, #28
   433e4:	e59d1000 	ldr	r1, [sp]
   433e8:	fa0002b7 	blx	43ecc <printf>
   433ec:	e3a00006 	mov	r0, #6
   433f0:	eb0003dd 	bl	4436c <handlePLLLockFail+0x14>
   433f4:	eafffffe 	b	433f4 <esmHighInterrupt+0x104>
   433f8:	7665633a 	.word	0x7665633a
   433fc:	25642e0d 	.word	0x25642e0d
   43400:	0a000000 	.word	0x0a000000
   43404:	66696e69 	.word	0x66696e69
   43408:	73683a25 	.word	0x73683a25
   4340c:	640d0a2e 	.word	0x640d0a2e
   43410:	00a00000 	.word	0x00a00000
   43414:	fffff528 	.word	0xfffff528
   43418:	fffff518 	.word	0xfffff518
   4341c:	fffff51c 	.word	0xfffff51c
   43420:	fffff558 	.word	0xfffff558

00043424 <_pconv_e>:
   43424:	b5f0      	push	{r4, r5, r6, r7, lr}
   43426:	4604      	mov	r4, r0
   43428:	f1ad 0d6c 	sub.w	sp, sp, #108	; 0x6c
   4342c:	460f      	mov	r7, r1
   4342e:	68a3      	ldr	r3, [r4, #8]
   43430:	2b00      	cmp	r3, #0
   43432:	bf44      	itt	mi
   43434:	2306      	movmi	r3, #6
   43436:	60a3      	strmi	r3, [r4, #8]
   43438:	a037      	add	r0, pc, #220	; (adr r0, 43518 <_pconv_e+0xf4>)
   4343a:	2500      	movs	r5, #0
   4343c:	ed90 1b00 	vldr	d1, [r0]
   43440:	eeb4 0bc1 	vcmpe.f64	d0, d1
   43444:	eef1 fa10 	vmrs	APSR_nzcv, fpscr
   43448:	da2a      	bge.n	434a0 <_pconv_e+0x7c>
   4344a:	a035      	add	r0, pc, #212	; (adr r0, 43520 <_pconv_e+0xfc>)
   4344c:	ed90 1b00 	vldr	d1, [r0]
   43450:	eeb4 0bc1 	vcmpe.f64	d0, d1
   43454:	eef1 fa10 	vmrs	APSR_nzcv, fpscr
   43458:	d90c      	bls.n	43474 <_pconv_e+0x50>
   4345a:	eeb5 0bc0 	vcmpe.f64	d0, #0.0
   4345e:	eef1 fa10 	vmrs	APSR_nzcv, fpscr
   43462:	eeb7 1b00 	vmov.f64	d1, #112	; 0x3f800000  1.0
   43466:	d027      	beq.n	434b8 <_pconv_e+0x94>
   43468:	eeb4 0bc1 	vcmpe.f64	d0, d1
   4346c:	eef1 fa10 	vmrs	APSR_nzcv, fpscr
   43470:	d302      	bcc.n	43478 <_pconv_e+0x54>
   43472:	e00d      	b.n	43490 <_pconv_e+0x6c>
   43474:	ed90 0b00 	vldr	d0, [r0]
   43478:	eeb2 2b04 	vmov.f64	d2, #36	; 0x41200000  10.0
   4347c:	eeb7 1b00 	vmov.f64	d1, #112	; 0x3f800000  1.0
   43480:	ee22 0b00 	vmul.f64	d0, d2, d0
   43484:	1e6d      	subs	r5, r5, #1
   43486:	eeb4 0bc1 	vcmpe.f64	d0, d1
   4348a:	eef1 fa10 	vmrs	APSR_nzcv, fpscr
   4348e:	d3f7      	bcc.n	43480 <_pconv_e+0x5c>
   43490:	eeb2 1b04 	vmov.f64	d1, #36	; 0x41200000  10.0
   43494:	eeb4 0bc1 	vcmpe.f64	d0, d1
   43498:	eef1 fa10 	vmrs	APSR_nzcv, fpscr
   4349c:	da02      	bge.n	434a4 <_pconv_e+0x80>
   4349e:	e00b      	b.n	434b8 <_pconv_e+0x94>
   434a0:	ed90 0b00 	vldr	d0, [r0]
   434a4:	eeb2 1b04 	vmov.f64	d1, #36	; 0x41200000  10.0
   434a8:	ee80 0b01 	vdiv.f64	d0, d0, d1
   434ac:	1c6d      	adds	r5, r5, #1
   434ae:	eeb4 0bc1 	vcmpe.f64	d0, d1
   434b2:	eef1 fa10 	vmrs	APSR_nzcv, fpscr
   434b6:	daf7      	bge.n	434a8 <_pconv_e+0x84>
   434b8:	466a      	mov	r2, sp
   434ba:	a801      	add	r0, sp, #4
   434bc:	4619      	mov	r1, r3
   434be:	f000 f833 	bl	43528 <fcvt>
   434c2:	9900      	ldr	r1, [sp, #0]
   434c4:	2902      	cmp	r1, #2
   434c6:	4606      	mov	r6, r0
   434c8:	d109      	bne.n	434de <_pconv_e+0xba>
   434ca:	4608      	mov	r0, r1
   434cc:	1e40      	subs	r0, r0, #1
   434ce:	9000      	str	r0, [sp, #0]
   434d0:	4630      	mov	r0, r6
   434d2:	f000 ff15 	bl	44300 <strlen>
   434d6:	1e40      	subs	r0, r0, #1
   434d8:	2100      	movs	r1, #0
   434da:	5431      	strb	r1, [r6, r0]
   434dc:	1c6d      	adds	r5, r5, #1
   434de:	7b21      	ldrb	r1, [r4, #12]
   434e0:	4628      	mov	r0, r5
   434e2:	463a      	mov	r2, r7
   434e4:	f000 fd26 	bl	43f34 <_ecpy>
   434e8:	68a2      	ldr	r2, [r4, #8]
   434ea:	9900      	ldr	r1, [sp, #0]
   434ec:	4630      	mov	r0, r6
   434ee:	463b      	mov	r3, r7
   434f0:	f000 fe5e 	bl	441b0 <_fcpy>
   434f4:	4630      	mov	r0, r6
   434f6:	f000 ff03 	bl	44300 <strlen>
   434fa:	9900      	ldr	r1, [sp, #0]
   434fc:	2201      	movs	r2, #1
   434fe:	4288      	cmp	r0, r1
   43500:	d103      	bne.n	4350a <_pconv_e+0xe6>
   43502:	6820      	ldr	r0, [r4, #0]
   43504:	0900      	lsrs	r0, r0, #4
   43506:	bf38      	it	cc
   43508:	2200      	movcc	r2, #0
   4350a:	4630      	mov	r0, r6
   4350c:	463b      	mov	r3, r7
   4350e:	f000 fbf3 	bl	43cf8 <_mcpy>
   43512:	b01b      	add	sp, #108	; 0x6c
   43514:	bdf0      	pop	{r4, r5, r6, r7, pc}
   43516:	46c0      	nop			; (mov r8, r8)
   43518:	7ff00000 	.word	0x7ff00000
   4351c:	00000000 	.word	0x00000000
   43520:	fff00000 	.word	0xfff00000
   43524:	00000000 	.word	0x00000000

00043528 <fcvt>:
   43528:	e92d 4ff0 	stmdb	sp!, {r4, r5, r6, r7, r8, r9, sl, fp, lr}
   4352c:	4680      	mov	r8, r0
   4352e:	f04f 0a30 	mov.w	sl, #48	; 0x30
   43532:	ed2d 8b04 	vpush	{d8-d9}
   43536:	4691      	mov	r9, r2
   43538:	f108 0b01 	add.w	fp, r8, #1
   4353c:	eeb0 9b40 	vmov.f64	d9, d0
   43540:	465d      	mov	r5, fp
   43542:	460f      	mov	r7, r1
   43544:	eeb5 9bc0 	vcmpe.f64	d9, #0.0
   43548:	eef1 fa10 	vmrs	APSR_nzcv, fpscr
   4354c:	f888 a000 	strb.w	sl, [r8]
   43550:	f1ad 0d04 	sub.w	sp, sp, #4
   43554:	bf38      	it	cc
   43556:	eeb1 9b49 	vnegcc.f64	d9, d9
   4355a:	2400      	movs	r4, #0
   4355c:	eeb2 8b04 	vmov.f64	d8, #36	; 0x41200000  10.0
   43560:	e009      	b.n	43576 <fcvt+0x4e>
   43562:	f881 a000 	strb.w	sl, [r1]
   43566:	e041      	b.n	435ec <fcvt+0xc4>
   43568:	ee28 9b09 	vmul.f64	d9, d8, d9
   4356c:	1e64      	subs	r4, r4, #1
   4356e:	e00d      	b.n	4358c <fcvt+0x64>
   43570:	ee89 9b08 	vdiv.f64	d9, d9, d8
   43574:	1c64      	adds	r4, r4, #1
   43576:	a029      	add	r0, pc, #164	; (adr r0, 4361c <fcvt+0xf4>)
   43578:	ed90 0b00 	vldr	d0, [r0]
   4357c:	eeb4 9bc0 	vcmpe.f64	d9, d0
   43580:	eef1 fa10 	vmrs	APSR_nzcv, fpscr
   43584:	dcf4      	bgt.n	43570 <fcvt+0x48>
   43586:	eeb7 0b00 	vmov.f64	d0, #112	; 0x3f800000  1.0
   4358a:	1c7f      	adds	r7, r7, #1
   4358c:	eeb5 9bc0 	vcmpe.f64	d9, #0.0
   43590:	eef1 fa10 	vmrs	APSR_nzcv, fpscr
   43594:	d004      	beq.n	435a0 <fcvt+0x78>
   43596:	eeb4 9bc0 	vcmpe.f64	d9, d0
   4359a:	eef1 fa10 	vmrs	APSR_nzcv, fpscr
   4359e:	d3e3      	bcc.n	43568 <fcvt+0x40>
   435a0:	eebd 0bc9 	vcvt.s32.f64	s0, d9
   435a4:	ee10 6a10 	vmov	r6, s0
   435a8:	4659      	mov	r1, fp
   435aa:	4630      	mov	r0, r6
   435ac:	f000 fcec 	bl	43f88 <ltoa>
   435b0:	193f      	adds	r7, r7, r4
   435b2:	182d      	adds	r5, r5, r0
   435b4:	1821      	adds	r1, r4, r0
   435b6:	2f00      	cmp	r7, #0
   435b8:	f8c9 1000 	str.w	r1, [r9]
   435bc:	dd11      	ble.n	435e2 <fcvt+0xba>
   435be:	ee00 6a10 	vmov	s0, r6
   435c2:	1e7f      	subs	r7, r7, #1
   435c4:	eeb8 0bc0 	vcvt.f64.s32	d0, s0
   435c8:	ee39 0b40 	vsub.f64	d0, d9, d0
   435cc:	ee28 9b00 	vmul.f64	d9, d8, d0
   435d0:	eebd 0bc9 	vcvt.s32.f64	s0, d9
   435d4:	ee10 6a10 	vmov	r6, s0
   435d8:	f106 0030 	add.w	r0, r6, #48	; 0x30
   435dc:	f805 0b01 	strb.w	r0, [r5], #1
   435e0:	d1ed      	bne.n	435be <fcvt+0x96>
   435e2:	f815 0d01 	ldrb.w	r0, [r5, #-1]!
   435e6:	4629      	mov	r1, r5
   435e8:	2834      	cmp	r0, #52	; 0x34
   435ea:	dd0f      	ble.n	4360c <fcvt+0xe4>
   435ec:	f811 0c01 	ldrb.w	r0, [r1, #-1]
   435f0:	1c40      	adds	r0, r0, #1
   435f2:	b2c2      	uxtb	r2, r0
   435f4:	2a3a      	cmp	r2, #58	; 0x3a
   435f6:	f801 0d01 	strb.w	r0, [r1, #-1]!
   435fa:	dab2      	bge.n	43562 <fcvt+0x3a>
   435fc:	4588      	cmp	r8, r1
   435fe:	d105      	bne.n	4360c <fcvt+0xe4>
   43600:	f8d9 0000 	ldr.w	r0, [r9]
   43604:	46c3      	mov	fp, r8
   43606:	1c40      	adds	r0, r0, #1
   43608:	f8c9 0000 	str.w	r0, [r9]
   4360c:	b001      	add	sp, #4
   4360e:	2000      	movs	r0, #0
   43610:	7028      	strb	r0, [r5, #0]
   43612:	ecbd 8b04 	vpop	{d8-d9}
   43616:	4658      	mov	r0, fp
   43618:	e8bd 8ff0 	ldmia.w	sp!, {r4, r5, r6, r7, r8, r9, sl, fp, pc}
   4361c:	41dfffff 	.word	0x41dfffff
   43620:	ffc00000 	.word	0xffc00000

00043624 <scalbn>:
   43624:	b5d0      	push	{r4, r6, r7, lr}
   43626:	ed2d 8b02 	vpush	{d8}
   4362a:	eeb0 8b40 	vmov.f64	d8, d0
   4362e:	ec51 2b18 	vmov	r2, r1, d8
   43632:	468c      	mov	ip, r1
   43634:	4601      	mov	r1, r0
   43636:	ec56 7b18 	vmov	r7, r6, d8
   4363a:	f3cc 500a 	ubfx	r0, ip, #20, #11
   4363e:	b9a0      	cbnz	r0, 4366a <scalbn+0x46>
   43640:	f02c 4000 	bic.w	r0, ip, #2147483648	; 0x80000000
   43644:	4307      	orrs	r7, r0
   43646:	d04b      	beq.n	436e0 <scalbn+0xbc>
   43648:	a027      	add	r0, pc, #156	; (adr r0, 436e8 <scalbn+0xc4>)
   4364a:	4f31      	ldr	r7, [pc, #196]	; (43710 <scalbn+0xec>)
   4364c:	ed90 0b00 	vldr	d0, [r0]
   43650:	428f      	cmp	r7, r1
   43652:	ee20 8b08 	vmul.f64	d8, d0, d8
   43656:	ec52 3b18 	vmov	r3, r2, d8
   4365a:	4694      	mov	ip, r2
   4365c:	f3cc 500a 	ubfx	r0, ip, #20, #11
   43660:	f1a0 0036 	sub.w	r0, r0, #54	; 0x36
   43664:	bfc8      	it	gt
   43666:	a022      	addgt	r0, pc, #136	; (adr r0, 436f0 <scalbn+0xcc>)
   43668:	dc24      	bgt.n	436b4 <scalbn+0x90>
   4366a:	f240 72ff 	movw	r2, #2047	; 0x7ff
   4366e:	4282      	cmp	r2, r0
   43670:	bf08      	it	eq
   43672:	ee38 0b08 	vaddeq.f64	d0, d8, d8
   43676:	4408      	add	r0, r1
   43678:	d032      	beq.n	436e0 <scalbn+0xbc>
   4367a:	1e52      	subs	r2, r2, #1
   4367c:	4282      	cmp	r2, r0
   4367e:	db22      	blt.n	436c6 <scalbn+0xa2>
   43680:	2800      	cmp	r0, #0
   43682:	dd09      	ble.n	43698 <scalbn+0x74>
   43684:	f36f 5c1e 	bfc	ip, #20, #11
   43688:	ec51 2b18 	vmov	r2, r1, d8
   4368c:	ea4c 5c00 	orr.w	ip, ip, r0, lsl #20
   43690:	4611      	mov	r1, r2
   43692:	ec4c 1b10 	vmov	d0, r1, ip
   43696:	e023      	b.n	436e0 <scalbn+0xbc>
   43698:	f110 0f35 	cmn.w	r0, #53	; 0x35
   4369c:	db0f      	blt.n	436be <scalbn+0x9a>
   4369e:	3036      	adds	r0, #54	; 0x36
   436a0:	f36f 5c1e 	bfc	ip, #20, #11
   436a4:	ec51 2b18 	vmov	r2, r1, d8
   436a8:	ea4c 5c00 	orr.w	ip, ip, r0, lsl #20
   436ac:	4611      	mov	r1, r2
   436ae:	a014      	add	r0, pc, #80	; (adr r0, 43700 <scalbn+0xdc>)
   436b0:	ec4c 1b18 	vmov	d8, r1, ip
   436b4:	ed90 0b00 	vldr	d0, [r0]
   436b8:	ee20 0b08 	vmul.f64	d0, d0, d8
   436bc:	e010      	b.n	436e0 <scalbn+0xbc>
   436be:	f24c 3050 	movw	r0, #50000	; 0xc350
   436c2:	4288      	cmp	r0, r1
   436c4:	da01      	bge.n	436ca <scalbn+0xa6>
   436c6:	a40c      	add	r4, pc, #48	; (adr r4, 436f8 <scalbn+0xd4>)
   436c8:	e000      	b.n	436cc <scalbn+0xa8>
   436ca:	a40f      	add	r4, pc, #60	; (adr r4, 43708 <scalbn+0xe4>)
   436cc:	f000 fe3a 	bl	44344 <__aeabi_errno_addr>
   436d0:	2122      	movs	r1, #34	; 0x22
   436d2:	eeb0 1b48 	vmov.f64	d1, d8
   436d6:	6001      	str	r1, [r0, #0]
   436d8:	ed94 0b00 	vldr	d0, [r4]
   436dc:	f000 fde8 	bl	442b0 <copysign>
   436e0:	ecbd 8b02 	vpop	{d8}
   436e4:	bdd0      	pop	{r4, r6, r7, pc}
   436e6:	46c0      	nop			; (mov r8, r8)
   436e8:	43500000 	.word	0x43500000
   436ec:	00000000 	.word	0x00000000
   436f0:	01a56e1f 	.word	0x01a56e1f
   436f4:	c2f8f359 	.word	0xc2f8f359
   436f8:	7ff00000 	.word	0x7ff00000
   436fc:	00000000 	.word	0x00000000
   43700:	3c900000 	.word	0x3c900000
	...
   43710:	ffff3cb0 	.word	0xffff3cb0

00043714 <_dabort>:
   43714:	e92d5fff 	push	{r0, r1, r2, r3, r4, r5, r6, r7, r8, r9, sl, fp, ip, lr}
   43718:	e59fc0c8 	ldr	ip, [pc, #200]	; 437e8 <esmsr3>
   4371c:	e59c0000 	ldr	r0, [ip]
   43720:	e3100008 	tst	r0, #8
   43724:	1a000007 	bne	43748 <ramErrorFound>
   43728:	e3100020 	tst	r0, #32
   4372c:	1a000011 	bne	43778 <ramErrorFound2>

00043730 <noRAMerror>:
   43730:	e3100080 	tst	r0, #128	; 0x80
   43734:	1a00001c 	bne	437ac <flashErrorFound>
   43738:	eaffca95 	b	36194 <custom_dabort>
   4373c:	e8bd5fff 	pop	{r0, r1, r2, r3, r4, r5, r6, r7, r8, r9, sl, fp, ip, lr}
   43740:	e3a0ea02 	mov	lr, #8192	; 0x2000
   43744:	e25ef008 	subs	pc, lr, #8

00043748 <ramErrorFound>:
   43748:	e59f109c 	ldr	r1, [pc, #156]	; 437ec <ramctrl>
   4374c:	e5912000 	ldr	r2, [r1]
   43750:	e3120c01 	tst	r2, #256	; 0x100
   43754:	0a000013 	beq	437a8 <ramErrorReal>
   43758:	e3a02020 	mov	r2, #32
   4375c:	e5812010 	str	r2, [r1, #16]
   43760:	e3a02008 	mov	r2, #8
   43764:	e58c2000 	str	r2, [ip]
   43768:	e3a02005 	mov	r2, #5
   4376c:	e58c2018 	str	r2, [ip, #24]
   43770:	e8bd5fff 	pop	{r0, r1, r2, r3, r4, r5, r6, r7, r8, r9, sl, fp, ip, lr}
   43774:	e25ef004 	subs	pc, lr, #4

00043778 <ramErrorFound2>:
   43778:	e59f1070 	ldr	r1, [pc, #112]	; 437f0 <ram2ctrl>
   4377c:	e5912000 	ldr	r2, [r1]
   43780:	e3120c01 	tst	r2, #256	; 0x100
   43784:	0a000007 	beq	437a8 <ramErrorReal>
   43788:	e3a02020 	mov	r2, #32
   4378c:	e5812010 	str	r2, [r1, #16]
   43790:	e3a02020 	mov	r2, #32
   43794:	e58c2000 	str	r2, [ip]
   43798:	e3a02005 	mov	r2, #5
   4379c:	e58c2018 	str	r2, [ip, #24]
   437a0:	e8bd5fff 	pop	{r0, r1, r2, r3, r4, r5, r6, r7, r8, r9, sl, fp, ip, lr}
   437a4:	e25ef004 	subs	pc, lr, #4

000437a8 <ramErrorReal>:
   437a8:	eafffffe 	b	437a8 <ramErrorReal>

000437ac <flashErrorFound>:
   437ac:	e59f1048 	ldr	r1, [pc, #72]	; 437fc <flashbase>
   437b0:	e591206c 	ldr	r2, [r1, #108]	; 0x6c
   437b4:	e1a02822 	lsr	r2, r2, #16
   437b8:	e3120005 	tst	r2, #5
   437bc:	0a000008 	beq	437e4 <flashErrorReal>
   437c0:	e3a02001 	mov	r2, #1
   437c4:	e1a02402 	lsl	r2, r2, #8
   437c8:	e581201c 	str	r2, [r1, #28]
   437cc:	e3a02080 	mov	r2, #128	; 0x80
   437d0:	e58c2000 	str	r2, [ip]
   437d4:	e3a02005 	mov	r2, #5
   437d8:	e58c2018 	str	r2, [ip, #24]
   437dc:	e8bd5fff 	pop	{r0, r1, r2, r3, r4, r5, r6, r7, r8, r9, sl, fp, ip, lr}
   437e0:	e25ef004 	subs	pc, lr, #4

000437e4 <flashErrorReal>:
   437e4:	eafffffe 	b	437e4 <flashErrorReal>

000437e8 <esmsr3>:
   437e8:	fffff520 	.word	0xfffff520

000437ec <ramctrl>:
   437ec:	fffff800 	.word	0xfffff800

000437f0 <ram2ctrl>:
   437f0:	fffff900 	.word	0xfffff900

000437f4 <ram1errstat>:
   437f4:	fffff810 	.word	0xfffff810

000437f8 <ram2errstat>:
   437f8:	fffff910 	.word	0xfffff910

000437fc <flashbase>:
   437fc:	fff87000 	.word	0xfff87000

00043800 <floor>:
   43800:	ec50 1b10 	vmov	r1, r0, d0
   43804:	ec51 2b10 	vmov	r2, r1, d0
   43808:	f3c0 530a 	ubfx	r3, r0, #20, #11
   4380c:	4611      	mov	r1, r2
   4380e:	f2a3 32ff 	subw	r2, r3, #1023	; 0x3ff
   43812:	2a14      	cmp	r2, #20
   43814:	b5b0      	push	{r4, r5, r7, lr}
   43816:	a42e      	add	r4, pc, #184	; (adr r4, 438d0 <floor+0xd0>)
   43818:	db28      	blt.n	4386c <floor+0x6c>
   4381a:	2a34      	cmp	r2, #52	; 0x34
   4381c:	f2a3 4513 	subw	r5, r3, #1043	; 0x413
   43820:	da1e      	bge.n	43860 <floor+0x60>
   43822:	f04f 33ff 	mov.w	r3, #4294967295	; 0xffffffff
   43826:	40eb      	lsrs	r3, r5
   43828:	420b      	tst	r3, r1
   4382a:	d050      	beq.n	438ce <floor+0xce>
   4382c:	ed94 1b00 	vldr	d1, [r4]
   43830:	ee31 0b00 	vadd.f64	d0, d1, d0
   43834:	eeb5 0bc0 	vcmpe.f64	d0, #0.0
   43838:	eef1 fa10 	vmrs	APSR_nzcv, fpscr
   4383c:	dd45      	ble.n	438ca <floor+0xca>
   4383e:	2800      	cmp	r0, #0
   43840:	d50c      	bpl.n	4385c <floor+0x5c>
   43842:	2a14      	cmp	r2, #20
   43844:	f1c2 0234 	rsb	r2, r2, #52	; 0x34
   43848:	d007      	beq.n	4385a <floor+0x5a>
   4384a:	2401      	movs	r4, #1
   4384c:	4094      	lsls	r4, r2
   4384e:	190a      	adds	r2, r1, r4
   43850:	4291      	cmp	r1, r2
   43852:	bf88      	it	hi
   43854:	1c40      	addhi	r0, r0, #1
   43856:	4611      	mov	r1, r2
   43858:	e000      	b.n	4385c <floor+0x5c>
   4385a:	1c40      	adds	r0, r0, #1
   4385c:	4399      	bics	r1, r3
   4385e:	e034      	b.n	438ca <floor+0xca>
   43860:	f5b2 6f80 	cmp.w	r2, #1024	; 0x400
   43864:	bf08      	it	eq
   43866:	ee30 0b00 	vaddeq.f64	d0, d0, d0
   4386a:	bdb0      	pop	{r4, r5, r7, pc}
   4386c:	2a00      	cmp	r2, #0
   4386e:	d417      	bmi.n	438a0 <floor+0xa0>
   43870:	4b19      	ldr	r3, [pc, #100]	; (438d8 <floor+0xd8>)
   43872:	4113      	asrs	r3, r2
   43874:	ea03 0500 	and.w	r5, r3, r0
   43878:	ea51 0705 	orrs.w	r7, r1, r5
   4387c:	d027      	beq.n	438ce <floor+0xce>
   4387e:	ed94 1b00 	vldr	d1, [r4]
   43882:	ee31 0b00 	vadd.f64	d0, d1, d0
   43886:	eeb5 0bc0 	vcmpe.f64	d0, #0.0
   4388a:	eef1 fa10 	vmrs	APSR_nzcv, fpscr
   4388e:	dd1c      	ble.n	438ca <floor+0xca>
   43890:	2800      	cmp	r0, #0
   43892:	f44f 1180 	mov.w	r1, #1048576	; 0x100000
   43896:	d501      	bpl.n	4389c <floor+0x9c>
   43898:	4111      	asrs	r1, r2
   4389a:	1840      	adds	r0, r0, r1
   4389c:	4398      	bics	r0, r3
   4389e:	e010      	b.n	438c2 <floor+0xc2>
   438a0:	ed94 1b00 	vldr	d1, [r4]
   438a4:	ee31 0b00 	vadd.f64	d0, d1, d0
   438a8:	eeb5 0bc0 	vcmpe.f64	d0, #0.0
   438ac:	eef1 fa10 	vmrs	APSR_nzcv, fpscr
   438b0:	dd0b      	ble.n	438ca <floor+0xca>
   438b2:	2800      	cmp	r0, #0
   438b4:	f020 4200 	bic.w	r2, r0, #2147483648	; 0x80000000
   438b8:	d505      	bpl.n	438c6 <floor+0xc6>
   438ba:	ea51 0702 	orrs.w	r7, r1, r2
   438be:	d004      	beq.n	438ca <floor+0xca>
   438c0:	4806      	ldr	r0, [pc, #24]	; (438dc <floor+0xdc>)
   438c2:	2100      	movs	r1, #0
   438c4:	e001      	b.n	438ca <floor+0xca>
   438c6:	2100      	movs	r1, #0
   438c8:	4608      	mov	r0, r1
   438ca:	ec40 1b10 	vmov	d0, r1, r0
   438ce:	bdb0      	pop	{r4, r5, r7, pc}
   438d0:	7e37e43c 	.word	0x7e37e43c
   438d4:	8800759c 	.word	0x8800759c
   438d8:	000fffff 	.word	0x000fffff
   438dc:	bff00000 	.word	0xbff00000

000438e0 <_pmuInit_>:
   438e0:	ee190f1c 	mrc	15, 0, r0, cr9, cr12, {0}
   438e4:	e3800017 	orr	r0, r0, #23
   438e8:	ee090f1c 	mcr	15, 0, r0, cr9, cr12, {0}
   438ec:	e3a00000 	mov	r0, #0
   438f0:	e2400001 	sub	r0, r0, #1
   438f4:	ee090f7c 	mcr	15, 0, r0, cr9, cr12, {3}
   438f8:	e3a00000 	mov	r0, #0
   438fc:	ee090fbc 	mcr	15, 0, r0, cr9, cr12, {5}
   43900:	e3a00011 	mov	r0, #17
   43904:	ee090f3d 	mcr	15, 0, r0, cr9, cr13, {1}
   43908:	e3a00001 	mov	r0, #1
   4390c:	ee090fbc 	mcr	15, 0, r0, cr9, cr12, {5}
   43910:	e3a00011 	mov	r0, #17
   43914:	ee090f3d 	mcr	15, 0, r0, cr9, cr13, {1}
   43918:	e3a00002 	mov	r0, #2
   4391c:	ee090fbc 	mcr	15, 0, r0, cr9, cr12, {5}
   43920:	e3a00011 	mov	r0, #17
   43924:	ee090f3d 	mcr	15, 0, r0, cr9, cr13, {1}
   43928:	e12fff1e 	bx	lr

0004392c <_pmuEnableCountersGlobal_>:
   4392c:	ee190f1c 	mrc	15, 0, r0, cr9, cr12, {0}
   43930:	e3800007 	orr	r0, r0, #7
   43934:	ee090f1c 	mcr	15, 0, r0, cr9, cr12, {0}
   43938:	e12fff1e 	bx	lr

0004393c <_pmuDisableCountersGlobal_>:
   4393c:	ee190f1c 	mrc	15, 0, r0, cr9, cr12, {0}
   43940:	e3c00001 	bic	r0, r0, #1
   43944:	ee090f1c 	mcr	15, 0, r0, cr9, cr12, {0}
   43948:	e12fff1e 	bx	lr

0004394c <_pmuResetCycleCounter_>:
   4394c:	ee190f1c 	mrc	15, 0, r0, cr9, cr12, {0}
   43950:	e3800004 	orr	r0, r0, #4
   43954:	ee090f1c 	mcr	15, 0, r0, cr9, cr12, {0}
   43958:	e12fff1e 	bx	lr

0004395c <_pmuResetEventCounters_>:
   4395c:	ee190f1c 	mrc	15, 0, r0, cr9, cr12, {0}
   43960:	e3800002 	orr	r0, r0, #2
   43964:	ee090f1c 	mcr	15, 0, r0, cr9, cr12, {0}
   43968:	e12fff1e 	bx	lr

0004396c <_pmuResetCounters_>:
   4396c:	ee190f1c 	mrc	15, 0, r0, cr9, cr12, {0}
   43970:	e3800006 	orr	r0, r0, #6
   43974:	ee090f1c 	mcr	15, 0, r0, cr9, cr12, {0}
   43978:	e12fff1e 	bx	lr

0004397c <_pmuStartCounters_>:
   4397c:	ee090f3c 	mcr	15, 0, r0, cr9, cr12, {1}
   43980:	e12fff1e 	bx	lr

00043984 <_pmuStopCounters_>:
   43984:	ee090f5c 	mcr	15, 0, r0, cr9, cr12, {2}
   43988:	e12fff1e 	bx	lr

0004398c <_pmuSetCountEvent_>:
   4398c:	ee090fbc 	mcr	15, 0, r0, cr9, cr12, {5}
   43990:	ee091f3d 	mcr	15, 0, r1, cr9, cr13, {1}
   43994:	e12fff1e 	bx	lr

00043998 <_pmuGetCycleCount_>:
   43998:	ee190f1d 	mrc	15, 0, r0, cr9, cr13, {0}
   4399c:	e12fff1e 	bx	lr

000439a0 <_pmuGetEventCount_>:
   439a0:	ee090fbc 	mcr	15, 0, r0, cr9, cr12, {5}
   439a4:	ee190f5d 	mrc	15, 0, r0, cr9, cr13, {2}
   439a8:	e12fff1e 	bx	lr

000439ac <_pmuGetOverflow_>:
   439ac:	ee190f7c 	mrc	15, 0, r0, cr9, cr12, {3}
   439b0:	e3a01000 	mov	r1, #0
   439b4:	e2411001 	sub	r1, r1, #1
   439b8:	ee091f7c 	mcr	15, 0, r1, cr9, cr12, {3}
   439bc:	e12fff1e 	bx	lr

000439c0 <rtiNotification>:
   439c0:	e92d4008 	push	{r3, lr}
   439c4:	e58d0000 	str	r0, [sp]
   439c8:	e28f008c 	add	r0, pc, #140	; 0x8c
   439cc:	fa00013e 	blx	43ecc <printf>
   439d0:	ebffef8d 	bl	3f80c <dwdReset>
   439d4:	e8bd8008 	pop	{r3, pc}

000439d8 <main>:
   439d8:	e92d4008 	push	{r3, lr}
   439dc:	ebffe2fa 	bl	3c5cc <sciInit>
   439e0:	ebfff6db 	bl	41554 <user_sci_init>
   439e4:	f1080080 	cpsie	i
   439e8:	f1080040 	cpsie	f
   439ec:	e59f0070 	ldr	r0, [pc, #112]	; 43a64 <main+0x8c>
   439f0:	e3e01000 	mvn	r1, #0
   439f4:	ebfff35e 	bl	40774 <gioSetDirection>
   439f8:	ebffeeb6 	bl	3f4d8 <rtiInit>
   439fc:	ebfff8d9 	bl	41d68 <_mpuInit_>
   43a00:	ebfff961 	bl	41f8c <_mpuEnable_>
   43a04:	ebfff326 	bl	406a4 <gioInit>
   43a08:	e59f0058 	ldr	r0, [pc, #88]	; 43a68 <main+0x90>
   43a0c:	e590c000 	ldr	ip, [r0]
   43a10:	e38cc0c8 	orr	ip, ip, #200	; 0xc8
   43a14:	e580c000 	str	ip, [r0]
   43a18:	e59f004c 	ldr	r0, [pc, #76]	; 43a6c <main+0x94>
   43a1c:	e3a0c010 	mov	ip, #16
   43a20:	e580c000 	str	ip, [r0]
   43a24:	e59f0044 	ldr	r0, [pc, #68]	; 43a70 <main+0x98>
   43a28:	e3a0c010 	mov	ip, #16
   43a2c:	e580c000 	str	ip, [r0]
   43a30:	ebfffb89 	bl	4285c <emif_ASYNC1Init>
   43a34:	ebfffb9b 	bl	428a8 <emif_ASYNC2Init>
   43a38:	ebfffbad 	bl	428f4 <emif_ASYNC3Init>
   43a3c:	e3e0005f 	mvn	r0, #95	; 0x5f
   43a40:	e590c000 	ldr	ip, [r0]
   43a44:	e38cc102 	orr	ip, ip, #-2147483648	; 0x80000000
   43a48:	e580c000 	str	ip, [r0]
   43a4c:	ebffe569 	bl	3cff8 <hetInit>
   43a50:	ebfff4f9 	bl	40e3c <exe11>
   43a54:	e3a00000 	mov	r0, #0
   43a58:	e8bd8008 	pop	{r3, pc}
   43a5c:	31323331 	.word	0x31323331
   43a60:	320a0000 	.word	0x320a0000
   43a64:	fff7b84c 	.word	0xfff7b84c
   43a68:	fff7bc34 	.word	0xfff7bc34
   43a6c:	fff7bc44 	.word	0xfff7bc44
   43a70:	fff7bc40 	.word	0xfff7bc40

00043a74 <het1LowLevelInterrupt>:
   43a74:	e92d500f 	push	{r0, r1, r2, r3, ip, lr}
   43a78:	eef8ca10 	vmrs	ip, fpexc
   43a7c:	e92d1000 	stmfd	sp!, {ip}
   43a80:	eef1ca10 	vmrs	ip, fpscr
   43a84:	e92d1000 	stmfd	sp!, {ip}
   43a88:	ed2d0b10 	vpush	{d0-d7}
   43a8c:	e24dd008 	sub	sp, sp, #8
   43a90:	e59fc084 	ldr	ip, [pc, #132]	; 43b1c <het1LowLevelInterrupt+0xa8>
   43a94:	e59cc000 	ldr	ip, [ip]
   43a98:	e58dc000 	str	ip, [sp]
   43a9c:	e59dc000 	ldr	ip, [sp]
   43aa0:	e35c0012 	cmp	ip, #18
   43aa4:	2a000010 	bcs	43aec <het1LowLevelInterrupt+0x78>
   43aa8:	e59dc000 	ldr	ip, [sp]
   43aac:	e31c0001 	tst	ip, #1
   43ab0:	0a000006 	beq	43ad0 <het1LowLevelInterrupt+0x5c>
   43ab4:	e59dc000 	ldr	ip, [sp]
   43ab8:	e1a0c0ac 	lsr	ip, ip, #1
   43abc:	e59f005c 	ldr	r0, [pc, #92]	; 43b20 <het1LowLevelInterrupt+0xac>
   43ac0:	e24c1001 	sub	r1, ip, #1
   43ac4:	e3a02004 	mov	r2, #4
   43ac8:	ebfffda5 	bl	43164 <pwmNotification>
   43acc:	ea00000a 	b	43afc <het1LowLevelInterrupt+0x88>
   43ad0:	e59dc000 	ldr	ip, [sp]
   43ad4:	e1a0c0ac 	lsr	ip, ip, #1
   43ad8:	e59f0040 	ldr	r0, [pc, #64]	; 43b20 <het1LowLevelInterrupt+0xac>
   43adc:	e24c1001 	sub	r1, ip, #1
   43ae0:	e3a02002 	mov	r2, #2
   43ae4:	ebfffd9e 	bl	43164 <pwmNotification>
   43ae8:	ea000003 	b	43afc <het1LowLevelInterrupt+0x88>
   43aec:	e59dc000 	ldr	ip, [sp]
   43af0:	e59f0028 	ldr	r0, [pc, #40]	; 43b20 <het1LowLevelInterrupt+0xac>
   43af4:	e24c1012 	sub	r1, ip, #18
   43af8:	ebfffd9f 	bl	4317c <edgeNotification>
   43afc:	e28dd008 	add	sp, sp, #8
   43b00:	ecbd0b10 	vpop	{d0-d7}
   43b04:	e8bd1000 	ldmfd	sp!, {ip}
   43b08:	eee1ca10 	vmsr	fpscr, ip
   43b0c:	e8bd1000 	ldmfd	sp!, {ip}
   43b10:	eee8ca10 	vmsr	fpexc, ip
   43b14:	e8bd500f 	pop	{r0, r1, r2, r3, ip, lr}
   43b18:	e25ef004 	subs	pc, lr, #4
   43b1c:	fff7b810 	.word	0xfff7b810
   43b20:	fff7b800 	.word	0xfff7b800

00043b24 <_ltostr>:
   43b24:	e92d 43f8 	stmdb	sp!, {r3, r4, r5, r6, r7, r8, r9, lr}
   43b28:	2b58      	cmp	r3, #88	; 0x58
   43b2a:	4688      	mov	r8, r1
   43b2c:	4617      	mov	r7, r2
   43b2e:	9c08      	ldr	r4, [sp, #32]
   43b30:	bf0c      	ite	eq
   43b32:	a51e      	addeq	r5, pc, #120	; (adr r5, 43bac <_ltostr+0x88>)
   43b34:	a522      	addne	r5, pc, #136	; (adr r5, 43bc0 <_ltostr+0x9c>)
   43b36:	2800      	cmp	r0, #0
   43b38:	bf08      	it	eq
   43b3a:	f1b8 0f00 	cmpeq.w	r8, #0
   43b3e:	ea4f 79e7 	mov.w	r9, r7, asr #31
   43b42:	d105      	bne.n	43b50 <_ltostr+0x2c>
   43b44:	6820      	ldr	r0, [r4, #0]
   43b46:	2730      	movs	r7, #48	; 0x30
   43b48:	1e41      	subs	r1, r0, #1
   43b4a:	6021      	str	r1, [r4, #0]
   43b4c:	7007      	strb	r7, [r0, #0]
   43b4e:	e027      	b.n	43ba0 <_ltostr+0x7c>
   43b50:	463e      	mov	r6, r7
   43b52:	3e08      	subs	r6, #8
   43b54:	d013      	beq.n	43b7e <_ltostr+0x5a>
   43b56:	3e08      	subs	r6, #8
   43b58:	d00d      	beq.n	43b76 <_ltostr+0x52>
   43b5a:	2800      	cmp	r0, #0
   43b5c:	bf08      	it	eq
   43b5e:	f1b1 3fff 	cmpeq.w	r1, #4294967295	; 0xffffffff
   43b62:	d904      	bls.n	43b6e <_ltostr+0x4a>
   43b64:	464a      	mov	r2, r9
   43b66:	463b      	mov	r3, r7
   43b68:	f7fe ebd4 	blx	42314 <__aeabi_uldivmod>
   43b6c:	e00b      	b.n	43b86 <_ltostr+0x62>
   43b6e:	fbb1 f1f7 	udiv	r1, r1, r7
   43b72:	2000      	movs	r0, #0
   43b74:	e007      	b.n	43b86 <_ltostr+0x62>
   43b76:	0702      	lsls	r2, r0, #28
   43b78:	0900      	lsrs	r0, r0, #4
   43b7a:	0909      	lsrs	r1, r1, #4
   43b7c:	e002      	b.n	43b84 <_ltostr+0x60>
   43b7e:	0742      	lsls	r2, r0, #29
   43b80:	08c0      	lsrs	r0, r0, #3
   43b82:	08c9      	lsrs	r1, r1, #3
   43b84:	4311      	orrs	r1, r2
   43b86:	6822      	ldr	r2, [r4, #0]
   43b88:	fb01 8317 	mls	r3, r1, r7, r8
   43b8c:	1e56      	subs	r6, r2, #1
   43b8e:	2800      	cmp	r0, #0
   43b90:	6026      	str	r6, [r4, #0]
   43b92:	5ceb      	ldrb	r3, [r5, r3]
   43b94:	7013      	strb	r3, [r2, #0]
   43b96:	4688      	mov	r8, r1
   43b98:	bf08      	it	eq
   43b9a:	f1b8 0f00 	cmpeq.w	r8, #0
   43b9e:	d1d7      	bne.n	43b50 <_ltostr+0x2c>
   43ba0:	6820      	ldr	r0, [r4, #0]
   43ba2:	f000 fbad 	bl	44300 <strlen>
   43ba6:	1e40      	subs	r0, r0, #1
   43ba8:	e8bd 83f8 	ldmia.w	sp!, {r3, r4, r5, r6, r7, r8, r9, pc}
   43bac:	30313233 	.word	0x30313233
   43bb0:	34353637 	.word	0x34353637
   43bb4:	38394142 	.word	0x38394142
   43bb8:	43444546 	.word	0x43444546
   43bbc:	00c046c0 	.word	0x00c046c0
   43bc0:	30313233 	.word	0x30313233
   43bc4:	34353637 	.word	0x34353637
   43bc8:	38396162 	.word	0x38396162
   43bcc:	63646566 	.word	0x63646566
	...

00043bd2 <__aeabi_memcpy>:
   43bd2:	2a00      	cmp	r2, #0
   43bd4:	d04a      	beq.n	43c6c <_ret2_>
   43bd6:	ea5f 0c00 	movs.w	ip, r0
   43bda:	078b      	lsls	r3, r1, #30
   43bdc:	d11c      	bne.n	43c18 <_unaln>
   43bde:	0783      	lsls	r3, r0, #30
   43be0:	d122      	bne.n	43c28 <_saln>

00043be2 <_aln>:
   43be2:	2a10      	cmp	r2, #16
   43be4:	d308      	bcc.n	43bf8 <_udr16>

00043be6 <_ovr16>:
   43be6:	b470      	push	{r4, r5, r6}
   43be8:	3a10      	subs	r2, #16

00043bea <_lp16>:
   43bea:	c978      	ldmia	r1!, {r3, r4, r5, r6}
   43bec:	c078      	stmia	r0!, {r3, r4, r5, r6}
   43bee:	3a10      	subs	r2, #16
   43bf0:	d2fb      	bcs.n	43bea <_lp16>
   43bf2:	bc70      	pop	{r4, r5, r6}
   43bf4:	3210      	adds	r2, #16
   43bf6:	d038      	beq.n	43c6a <_ret_>

00043bf8 <_udr16>:
   43bf8:	2a04      	cmp	r2, #4
   43bfa:	d32c      	bcc.n	43c56 <_off1>
   43bfc:	2a08      	cmp	r2, #8
   43bfe:	d305      	bcc.n	43c0c <_c4>
   43c00:	2a0c      	cmp	r2, #12
   43c02:	bf24      	itt	cs

00043c04 <_c12>:
   43c04:	c908      	ldmiacs	r1!, {r3}
   43c06:	c008      	stmiacs	r0!, {r3}

00043c08 <_c8>:
   43c08:	c908      	ldmia	r1!, {r3}
   43c0a:	c008      	stmia	r0!, {r3}

00043c0c <_c4>:
   43c0c:	c908      	ldmia	r1!, {r3}
   43c0e:	c008      	stmia	r0!, {r3}

00043c10 <_oddsz>:
   43c10:	0792      	lsls	r2, r2, #30
   43c12:	d02a      	beq.n	43c6a <_ret_>
   43c14:	0f92      	lsrs	r2, r2, #30
   43c16:	e022      	b.n	43c5e <_lp1>

00043c18 <_unaln>:
   43c18:	780b      	ldrb	r3, [r1, #0]
   43c1a:	7003      	strb	r3, [r0, #0]
   43c1c:	1c49      	adds	r1, r1, #1
   43c1e:	1c40      	adds	r0, r0, #1
   43c20:	1e52      	subs	r2, r2, #1
   43c22:	d022      	beq.n	43c6a <_ret_>
   43c24:	078b      	lsls	r3, r1, #30
   43c26:	d1f7      	bne.n	43c18 <_unaln>

00043c28 <_saln>:
   43c28:	07c3      	lsls	r3, r0, #31
   43c2a:	d114      	bne.n	43c56 <_off1>
   43c2c:	0783      	lsls	r3, r0, #30
   43c2e:	d0d8      	beq.n	43be2 <_aln>

00043c30 <_off2>:
   43c30:	1f12      	subs	r2, r2, #4
   43c32:	d312      	bcc.n	43c5a <_oddb>

00043c34 <_cp4s>:
   43c34:	c908      	ldmia	r1!, {r3}
   43c36:	8043      	strh	r3, [r0, #2]
   43c38:	0c1b      	lsrs	r3, r3, #16
   43c3a:	8003      	strh	r3, [r0, #0]
   43c3c:	1d00      	adds	r0, r0, #4
   43c3e:	1f12      	subs	r2, r2, #4
   43c40:	d2f8      	bcs.n	43c34 <_cp4s>
   43c42:	e00a      	b.n	43c5a <_oddb>

00043c44 <_cp4>:
   43c44:	c908      	ldmia	r1!, {r3}
   43c46:	70c3      	strb	r3, [r0, #3]
   43c48:	0a1b      	lsrs	r3, r3, #8
   43c4a:	7083      	strb	r3, [r0, #2]
   43c4c:	0a1b      	lsrs	r3, r3, #8
   43c4e:	7043      	strb	r3, [r0, #1]
   43c50:	0a1b      	lsrs	r3, r3, #8
   43c52:	7003      	strb	r3, [r0, #0]
   43c54:	1d00      	adds	r0, r0, #4

00043c56 <_off1>:
   43c56:	1f12      	subs	r2, r2, #4
   43c58:	d2f4      	bcs.n	43c44 <_cp4>

00043c5a <_oddb>:
   43c5a:	1d12      	adds	r2, r2, #4
   43c5c:	d005      	beq.n	43c6a <_ret_>

00043c5e <_lp1>:
   43c5e:	780b      	ldrb	r3, [r1, #0]
   43c60:	7003      	strb	r3, [r0, #0]
   43c62:	1c49      	adds	r1, r1, #1
   43c64:	1c40      	adds	r0, r0, #1
   43c66:	1e52      	subs	r2, r2, #1
   43c68:	d1f9      	bne.n	43c5e <_lp1>

00043c6a <_ret_>:
   43c6a:	4660      	mov	r0, ip

00043c6c <_ret2_>:
   43c6c:	4770      	bx	lr

00043c6e <__aeabi_idiv0>:
   43c6e:	4770      	bx	lr

00043c70 <arm_relu_q7>:
   43c70:	e24dd018 	sub	sp, sp, #24
   43c74:	e5cd300c 	strb	r3, [sp, #12]
   43c78:	e58d2004 	str	r2, [sp, #4]
   43c7c:	e1cd10b8 	strh	r1, [sp, #8]
   43c80:	e58d0000 	str	r0, [sp]
   43c84:	e3a0c000 	mov	ip, #0
   43c88:	e1cdc0ba 	strh	ip, [sp, #10]
   43c8c:	ea000012 	b	43cdc <arm_relu_q7+0x6c>
   43c90:	e59dc004 	ldr	ip, [sp, #4]
   43c94:	e1dd00ba 	ldrh	r0, [sp, #10]
   43c98:	e190c0dc 	ldrsb	ip, [r0, ip]
   43c9c:	e5cdc010 	strb	ip, [sp, #16]
   43ca0:	e1ddc1d0 	ldrsb	ip, [sp, #16]
   43ca4:	e35c0000 	cmp	ip, #0
   43ca8:	5a000004 	bpl	43cc0 <arm_relu_q7+0x50>
   43cac:	e59dc000 	ldr	ip, [sp]
   43cb0:	e1dd00ba 	ldrh	r0, [sp, #10]
   43cb4:	e3a01000 	mov	r1, #0
   43cb8:	e7c0100c 	strb	r1, [r0, ip]
   43cbc:	ea000003 	b	43cd0 <arm_relu_q7+0x60>
   43cc0:	e59d0000 	ldr	r0, [sp]
   43cc4:	e1dd10ba 	ldrh	r1, [sp, #10]
   43cc8:	e1ddc1d0 	ldrsb	ip, [sp, #16]
   43ccc:	e7c1c000 	strb	ip, [r1, r0]
   43cd0:	e1ddc0ba 	ldrh	ip, [sp, #10]
   43cd4:	e28cc001 	add	ip, ip, #1
   43cd8:	e1cdc0ba 	strh	ip, [sp, #10]
   43cdc:	e1ddc0b8 	ldrh	ip, [sp, #8]
   43ce0:	e1dd00ba 	ldrh	r0, [sp, #10]
   43ce4:	e15c0000 	cmp	ip, r0
   43ce8:	caffffe8 	bgt	43c90 <arm_relu_q7+0x20>
   43cec:	e3a00000 	mov	r0, #0
   43cf0:	e28dd018 	add	sp, sp, #24
   43cf4:	e12fff1e 	bx	lr

00043cf8 <_mcpy>:
   43cf8:	e92d 41f0 	stmdb	sp!, {r4, r5, r6, r7, r8, lr}
   43cfc:	4604      	mov	r4, r0
   43cfe:	4617      	mov	r7, r2
   43d00:	460d      	mov	r5, r1
   43d02:	4698      	mov	r8, r3
   43d04:	f000 fafc 	bl	44300 <strlen>
   43d08:	4629      	mov	r1, r5
   43d0a:	4603      	mov	r3, r0
   43d0c:	2900      	cmp	r1, #0
   43d0e:	f04f 0200 	mov.w	r2, #0
   43d12:	4640      	mov	r0, r8
   43d14:	dd03      	ble.n	43d1e <_mcpy+0x26>
   43d16:	428b      	cmp	r3, r1
   43d18:	bfa4      	itt	ge
   43d1a:	1862      	addge	r2, r4, r1
   43d1c:	1e52      	subge	r2, r2, #1
   43d1e:	b127      	cbz	r7, 43d2a <_mcpy+0x32>
   43d20:	6805      	ldr	r5, [r0, #0]
   43d22:	272e      	movs	r7, #46	; 0x2e
   43d24:	1e6e      	subs	r6, r5, #1
   43d26:	6006      	str	r6, [r0, #0]
   43d28:	702f      	strb	r7, [r5, #0]
   43d2a:	428b      	cmp	r3, r1
   43d2c:	eba1 0703 	sub.w	r7, r1, r3
   43d30:	da07      	bge.n	43d42 <_mcpy+0x4a>
   43d32:	2630      	movs	r6, #48	; 0x30
   43d34:	4619      	mov	r1, r3
   43d36:	6803      	ldr	r3, [r0, #0]
   43d38:	1e5d      	subs	r5, r3, #1
   43d3a:	6005      	str	r5, [r0, #0]
   43d3c:	1e7f      	subs	r7, r7, #1
   43d3e:	701e      	strb	r6, [r3, #0]
   43d40:	d1f9      	bne.n	43d36 <_mcpy+0x3e>
   43d42:	2900      	cmp	r1, #0
   43d44:	dd0e      	ble.n	43d64 <_mcpy+0x6c>
   43d46:	4294      	cmp	r4, r2
   43d48:	eba2 0704 	sub.w	r7, r2, r4
   43d4c:	d80f      	bhi.n	43d6e <_mcpy+0x76>
   43d4e:	1c7f      	adds	r7, r7, #1
   43d50:	6801      	ldr	r1, [r0, #0]
   43d52:	1e4c      	subs	r4, r1, #1
   43d54:	6004      	str	r4, [r0, #0]
   43d56:	1e7f      	subs	r7, r7, #1
   43d58:	f812 3901 	ldrb.w	r3, [r2], #-1
   43d5c:	700b      	strb	r3, [r1, #0]
   43d5e:	d1f7      	bne.n	43d50 <_mcpy+0x58>
   43d60:	e8bd 81f0 	ldmia.w	sp!, {r4, r5, r6, r7, r8, pc}
   43d64:	6801      	ldr	r1, [r0, #0]
   43d66:	2730      	movs	r7, #48	; 0x30
   43d68:	1e4a      	subs	r2, r1, #1
   43d6a:	6002      	str	r2, [r0, #0]
   43d6c:	700f      	strb	r7, [r1, #0]
   43d6e:	e8bd 81f0 	ldmia.w	sp!, {r4, r5, r6, r7, r8, pc}

00043d72 <__aeabi_memclr>:
   43d72:	2200      	movs	r2, #0

00043d74 <__aeabi_memset>:
   43d74:	4613      	mov	r3, r2
   43d76:	460a      	mov	r2, r1
   43d78:	4619      	mov	r1, r3

00043d7a <memset>:
   43d7a:	b571      	push	{r0, r4, r5, r6, lr}
   43d7c:	f010 0f03 	tst.w	r0, #3
   43d80:	d00b      	beq.n	43d9a <_word_aligned>

00043d82 <_unaligned_loop>:
   43d82:	2a00      	cmp	r2, #0
   43d84:	bf82      	ittt	hi
   43d86:	f800 1b01 	strbhi.w	r1, [r0], #1
   43d8a:	f1b2 0201 	subshi.w	r2, r2, #1
   43d8e:	f010 0f03 	tsthi.w	r0, #3
   43d92:	d1f6      	bne.n	43d82 <_unaligned_loop>
   43d94:	2a00      	cmp	r2, #0
   43d96:	bf08      	it	eq
   43d98:	bd71      	popeq	{r0, r4, r5, r6, pc}

00043d9a <_word_aligned>:
   43d9a:	f011 01ff 	ands.w	r1, r1, #255	; 0xff
   43d9e:	ea41 2101 	orr.w	r1, r1, r1, lsl #8
   43da2:	2a04      	cmp	r2, #4
   43da4:	d318      	bcc.n	43dd8 <_memset3>
   43da6:	ea41 4101 	orr.w	r1, r1, r1, lsl #16
   43daa:	2a08      	cmp	r2, #8
   43dac:	d30f      	bcc.n	43dce <_memset7>
   43dae:	460e      	mov	r6, r1
   43db0:	2a10      	cmp	r2, #16
   43db2:	d308      	bcc.n	43dc6 <_memset15>
   43db4:	460c      	mov	r4, r1
   43db6:	460d      	mov	r5, r1
   43db8:	f1b2 030f 	subs.w	r3, r2, #15
   43dbc:	f012 020f 	ands.w	r2, r2, #15

00043dc0 <_memset16_loop>:
   43dc0:	c072      	stmia	r0!, {r1, r4, r5, r6}
   43dc2:	3b10      	subs	r3, #16
   43dc4:	d8fc      	bhi.n	43dc0 <_memset16_loop>

00043dc6 <_memset15>:
   43dc6:	f012 0f08 	tst.w	r2, #8
   43dca:	bf18      	it	ne
   43dcc:	c042      	stmiane	r0!, {r1, r6}

00043dce <_memset7>:
   43dce:	f012 0f04 	tst.w	r2, #4
   43dd2:	bf18      	it	ne
   43dd4:	f840 1b04 	strne.w	r1, [r0], #4

00043dd8 <_memset3>:
   43dd8:	f012 0f02 	tst.w	r2, #2
   43ddc:	bf18      	it	ne
   43dde:	f820 1b02 	strhne.w	r1, [r0], #2
   43de2:	f012 0f01 	tst.w	r2, #1
   43de6:	bf18      	it	ne
   43de8:	7001      	strbne	r1, [r0, #0]
   43dea:	bd71      	pop	{r0, r4, r5, r6, pc}

00043dec <frexp>:
   43dec:	ec51 2b10 	vmov	r2, r1, d0
   43df0:	4a19      	ldr	r2, [pc, #100]	; (43e58 <frexp+0x6c>)
   43df2:	b5f8      	push	{r3, r4, r5, r6, r7, lr}
   43df4:	f021 4400 	bic.w	r4, r1, #2147483648	; 0x80000000
   43df8:	42a2      	cmp	r2, r4
   43dfa:	f04f 0300 	mov.w	r3, #0
   43dfe:	6003      	str	r3, [r0, #0]
   43e00:	dd24      	ble.n	43e4c <frexp+0x60>
   43e02:	ec55 6b10 	vmov	r6, r5, d0
   43e06:	4632      	mov	r2, r6
   43e08:	ea54 0702 	orrs.w	r7, r4, r2
   43e0c:	d01e      	beq.n	43e4c <frexp+0x60>
   43e0e:	f5b4 1f80 	cmp.w	r4, #1048576	; 0x100000
   43e12:	da0e      	bge.n	43e32 <frexp+0x46>
   43e14:	a10e      	add	r1, pc, #56	; (adr r1, 43e50 <frexp+0x64>)
   43e16:	f06f 0735 	mvn.w	r7, #53	; 0x35
   43e1a:	ed91 1b00 	vldr	d1, [r1]
   43e1e:	6007      	str	r7, [r0, #0]
   43e20:	ee21 0b00 	vmul.f64	d0, d1, d0
   43e24:	ec53 4b10 	vmov	r4, r3, d0
   43e28:	ec51 2b10 	vmov	r2, r1, d0
   43e2c:	4619      	mov	r1, r3
   43e2e:	f021 4400 	bic.w	r4, r1, #2147483648	; 0x80000000
   43e32:	6803      	ldr	r3, [r0, #0]
   43e34:	f36f 511e 	bfc	r1, #20, #11
   43e38:	4f08      	ldr	r7, [pc, #32]	; (43e5c <frexp+0x70>)
   43e3a:	eb03 5324 	add.w	r3, r3, r4, asr #20
   43e3e:	f2a3 33fe 	subw	r3, r3, #1022	; 0x3fe
   43e42:	ea47 0401 	orr.w	r4, r7, r1
   43e46:	6003      	str	r3, [r0, #0]
   43e48:	ec44 2b10 	vmov	d0, r2, r4
   43e4c:	bdf8      	pop	{r3, r4, r5, r6, r7, pc}
   43e4e:	46c0      	nop			; (mov r8, r8)
   43e50:	43500000 	.word	0x43500000
   43e54:	00000000 	.word	0x00000000
   43e58:	7ff00000 	.word	0x7ff00000
   43e5c:	3fe00000 	.word	0x3fe00000

00043e60 <__TI_decompress_lzss>:
   43e60:	4684      	mov	ip, r0
   43e62:	b5f8      	push	{r3, r4, r5, r6, r7, lr}
   43e64:	f640 73ff 	movw	r3, #4095	; 0xfff
   43e68:	f81c 5b01 	ldrb.w	r5, [ip], #1
   43e6c:	2400      	movs	r4, #0
   43e6e:	e010      	b.n	43e92 <__TI_decompress_lzss+0x32>
   43e70:	1e52      	subs	r2, r2, #1
   43e72:	f812 0b01 	ldrb.w	r0, [r2], #1
   43e76:	1e7f      	subs	r7, r7, #1
   43e78:	f801 0b01 	strb.w	r0, [r1], #1
   43e7c:	d1f9      	bne.n	43e72 <__TI_decompress_lzss+0x12>
   43e7e:	e003      	b.n	43e88 <__TI_decompress_lzss+0x28>
   43e80:	f81c 0b01 	ldrb.w	r0, [ip], #1
   43e84:	f801 0b01 	strb.w	r0, [r1], #1
   43e88:	1c64      	adds	r4, r4, #1
   43e8a:	2c08      	cmp	r4, #8
   43e8c:	ea4f 0555 	mov.w	r5, r5, lsr #1
   43e90:	daea      	bge.n	43e68 <__TI_decompress_lzss+0x8>
   43e92:	0868      	lsrs	r0, r5, #1
   43e94:	d2f4      	bcs.n	43e80 <__TI_decompress_lzss+0x20>
   43e96:	f81c 2b01 	ldrb.w	r2, [ip], #1
   43e9a:	f81c 0b01 	ldrb.w	r0, [ip], #1
   43e9e:	f000 070f 	and.w	r7, r0, #15
   43ea2:	1cff      	adds	r7, r7, #3
   43ea4:	2f12      	cmp	r7, #18
   43ea6:	f3c0 1003 	ubfx	r0, r0, #4, #4
   43eaa:	ea40 1002 	orr.w	r0, r0, r2, lsl #4
   43eae:	d108      	bne.n	43ec2 <__TI_decompress_lzss+0x62>
   43eb0:	f81c 2b01 	ldrb.w	r2, [ip], #1
   43eb4:	0a16      	lsrs	r6, r2, #8
   43eb6:	bf24      	itt	cs
   43eb8:	f81c 6b01 	ldrbcs.w	r6, [ip], #1
   43ebc:	f366 12df 	bfics	r2, r6, #7, #25
   43ec0:	18bf      	adds	r7, r7, r2
   43ec2:	4283      	cmp	r3, r0
   43ec4:	eba1 0200 	sub.w	r2, r1, r0
   43ec8:	d1d2      	bne.n	43e70 <__TI_decompress_lzss+0x10>
   43eca:	bdf8      	pop	{r3, r4, r5, r6, r7, pc}

00043ecc <printf>:
   43ecc:	b40f      	push	{r0, r1, r2, r3}
   43ece:	4814      	ldr	r0, [pc, #80]	; (43f20 <printf+0x54>)
   43ed0:	b590      	push	{r4, r7, lr}
   43ed2:	af03      	add	r7, sp, #12
   43ed4:	f1ad 0d0c 	sub.w	sp, sp, #12
   43ed8:	6800      	ldr	r0, [r0, #0]
   43eda:	6839      	ldr	r1, [r7, #0]
   43edc:	9101      	str	r1, [sp, #4]
   43ede:	4780      	blx	r0
   43ee0:	4a10      	ldr	r2, [pc, #64]	; (43f24 <printf+0x58>)
   43ee2:	4c11      	ldr	r4, [pc, #68]	; (43f28 <printf+0x5c>)
   43ee4:	6990      	ldr	r0, [r2, #24]
   43ee6:	f1b0 3fff 	cmp.w	r0, #4294967295	; 0xffffffff
   43eea:	f102 0218 	add.w	r2, r2, #24
   43eee:	d104      	bne.n	43efa <printf+0x2e>
   43ef0:	6820      	ldr	r0, [r4, #0]
   43ef2:	4780      	blx	r0
   43ef4:	f04f 30ff 	mov.w	r0, #4294967295	; 0xffffffff
   43ef8:	e00c      	b.n	43f14 <printf+0x48>
   43efa:	480c      	ldr	r0, [pc, #48]	; (43f2c <printf+0x60>)
   43efc:	4b0c      	ldr	r3, [pc, #48]	; (43f30 <printf+0x64>)
   43efe:	f027 0103 	bic.w	r1, r7, #3
   43f02:	9000      	str	r0, [sp, #0]
   43f04:	1d09      	adds	r1, r1, #4
   43f06:	a801      	add	r0, sp, #4
   43f08:	f7f7 fe3a 	bl	3bb80 <__TI_printfi>
   43f0c:	6821      	ldr	r1, [r4, #0]
   43f0e:	4604      	mov	r4, r0
   43f10:	4788      	blx	r1
   43f12:	4620      	mov	r0, r4
   43f14:	b003      	add	sp, #12
   43f16:	e8bd 4090 	ldmia.w	sp!, {r4, r7, lr}
   43f1a:	b004      	add	sp, #16
   43f1c:	4770      	bx	lr
   43f1e:	46c0      	nop			; (mov r8, r8)
   43f20:	0800d768 	.word	0x0800d768
   43f24:	0800d660 	.word	0x0800d660
   43f28:	0800d76c 	.word	0x0800d76c
   43f2c:	00044351 	.word	0x00044351
   43f30:	0004434d 	.word	0x0004434d

00043f34 <_ecpy>:
   43f34:	b57c      	push	{r2, r3, r4, r5, r6, lr}
   43f36:	460d      	mov	r5, r1
   43f38:	4601      	mov	r1, r0
   43f3a:	4614      	mov	r4, r2
   43f3c:	2900      	cmp	r1, #0
   43f3e:	9400      	str	r4, [sp, #0]
   43f40:	4606      	mov	r6, r0
   43f42:	bfb8      	it	lt
   43f44:	4249      	neglt	r1, r1
   43f46:	2364      	movs	r3, #100	; 0x64
   43f48:	220a      	movs	r2, #10
   43f4a:	17c8      	asrs	r0, r1, #31
   43f4c:	f7ff fdea 	bl	43b24 <_ltostr>
   43f50:	2d70      	cmp	r5, #112	; 0x70
   43f52:	d00b      	beq.n	43f6c <_ecpy+0x38>
   43f54:	2d50      	cmp	r5, #80	; 0x50
   43f56:	d009      	beq.n	43f6c <_ecpy+0x38>
   43f58:	2e0a      	cmp	r6, #10
   43f5a:	da0b      	bge.n	43f74 <_ecpy+0x40>
   43f5c:	f116 0f0a 	cmn.w	r6, #10
   43f60:	dd04      	ble.n	43f6c <_ecpy+0x38>
   43f62:	6820      	ldr	r0, [r4, #0]
   43f64:	2330      	movs	r3, #48	; 0x30
   43f66:	1e41      	subs	r1, r0, #1
   43f68:	6021      	str	r1, [r4, #0]
   43f6a:	7003      	strb	r3, [r0, #0]
   43f6c:	2e00      	cmp	r6, #0
   43f6e:	f04f 012d 	mov.w	r1, #45	; 0x2d
   43f72:	d400      	bmi.n	43f76 <_ecpy+0x42>
   43f74:	212b      	movs	r1, #43	; 0x2b
   43f76:	6820      	ldr	r0, [r4, #0]
   43f78:	1e42      	subs	r2, r0, #1
   43f7a:	6022      	str	r2, [r4, #0]
   43f7c:	7001      	strb	r1, [r0, #0]
   43f7e:	6820      	ldr	r0, [r4, #0]
   43f80:	1e41      	subs	r1, r0, #1
   43f82:	6021      	str	r1, [r4, #0]
   43f84:	7005      	strb	r5, [r0, #0]
   43f86:	bd7c      	pop	{r2, r3, r4, r5, r6, pc}

00043f88 <ltoa>:
   43f88:	b590      	push	{r4, r7, lr}
   43f8a:	468c      	mov	ip, r1
   43f8c:	2800      	cmp	r0, #0
   43f8e:	f04f 0700 	mov.w	r7, #0
   43f92:	f1ad 0d14 	sub.w	sp, sp, #20
   43f96:	bf48      	it	mi
   43f98:	2701      	movmi	r7, #1
   43f9a:	f10d 0113 	add.w	r1, sp, #19
   43f9e:	2200      	movs	r2, #0
   43fa0:	700a      	strb	r2, [r1, #0]
   43fa2:	230a      	movs	r3, #10
   43fa4:	fb90 f2f3 	sdiv	r2, r0, r3
   43fa8:	435a      	muls	r2, r3
   43faa:	1a82      	subs	r2, r0, r2
   43fac:	bf48      	it	mi
   43fae:	4252      	negmi	r2, r2
   43fb0:	fb90 f0f3 	sdiv	r0, r0, r3
   43fb4:	3230      	adds	r2, #48	; 0x30
   43fb6:	f801 2d01 	strb.w	r2, [r1, #-1]!
   43fba:	2800      	cmp	r0, #0
   43fbc:	d1f2      	bne.n	43fa4 <ltoa+0x1c>
   43fbe:	b117      	cbz	r7, 43fc6 <ltoa+0x3e>
   43fc0:	202d      	movs	r0, #45	; 0x2d
   43fc2:	f801 0d01 	strb.w	r0, [r1, #-1]!
   43fc6:	4660      	mov	r0, ip
   43fc8:	ebad 0401 	sub.w	r4, sp, r1
   43fcc:	f104 0214 	add.w	r2, r4, #20
   43fd0:	f7ff fdff 	bl	43bd2 <__aeabi_memcpy>
   43fd4:	f104 0013 	add.w	r0, r4, #19
   43fd8:	b005      	add	sp, #20
   43fda:	bd90      	pop	{r4, r7, pc}

00043fdc <__aeabi_idiv>:
   43fdc:	e92d400c 	push	{r2, r3, lr}
   43fe0:	e3510000 	cmp	r1, #0
   43fe4:	0a00000b 	beq	44018 <div_by_zero>
   43fe8:	e28f3001 	add	r3, pc, #1
   43fec:	e12fff13 	bx	r3
   43ff0:	fb90 f3f1 	sdiv	r3, r0, r1
   43ff4:	4778      	bx	pc
   43ff6:	bf00      	nop
   43ff8:	e0020193 	mul	r2, r3, r1
   43ffc:	e0400002 	sub	r0, r0, r2
   44000:	e1a01003 	mov	r1, r3
   44004:	e1a02000 	mov	r2, r0
   44008:	e1a00001 	mov	r0, r1
   4400c:	e1a01002 	mov	r1, r2
   44010:	e8bd400c 	pop	{r2, r3, lr}
   44014:	e12fff1e 	bx	lr

00044018 <div_by_zero>:
   44018:	e3500000 	cmp	r0, #0
   4401c:	c3e00102 	mvngt	r0, #-2147483648	; 0x80000000
   44020:	b3a00102 	movlt	r0, #-2147483648	; 0x80000000
   44024:	fbffff10 	blx	43c6e <__aeabi_idiv0>
   44028:	e8bd400c 	pop	{r2, r3, lr}
   4402c:	e12fff1e 	bx	lr

00044030 <_pconv_f>:
   44030:	b5f0      	push	{r4, r5, r6, r7, lr}
   44032:	4604      	mov	r4, r0
   44034:	460d      	mov	r5, r1
   44036:	68a3      	ldr	r3, [r4, #8]
   44038:	f5ad 7dfe 	sub.w	sp, sp, #508	; 0x1fc
   4403c:	f1ad 0d08 	sub.w	sp, sp, #8
   44040:	2b00      	cmp	r3, #0
   44042:	bf44      	itt	mi
   44044:	2306      	movmi	r3, #6
   44046:	60a3      	strmi	r3, [r4, #8]
   44048:	466a      	mov	r2, sp
   4404a:	4619      	mov	r1, r3
   4404c:	a801      	add	r0, sp, #4
   4404e:	682e      	ldr	r6, [r5, #0]
   44050:	f7ff fa6a 	bl	43528 <fcvt>
   44054:	68a2      	ldr	r2, [r4, #8]
   44056:	9900      	ldr	r1, [sp, #0]
   44058:	4607      	mov	r7, r0
   4405a:	462b      	mov	r3, r5
   4405c:	f000 f8a8 	bl	441b0 <_fcpy>
   44060:	6828      	ldr	r0, [r5, #0]
   44062:	2201      	movs	r2, #1
   44064:	42b0      	cmp	r0, r6
   44066:	d103      	bne.n	44070 <_pconv_f+0x40>
   44068:	6820      	ldr	r0, [r4, #0]
   4406a:	0900      	lsrs	r0, r0, #4
   4406c:	bf38      	it	cc
   4406e:	2200      	movcc	r2, #0
   44070:	9900      	ldr	r1, [sp, #0]
   44072:	4638      	mov	r0, r7
   44074:	462b      	mov	r3, r5
   44076:	f7ff fe3f 	bl	43cf8 <_mcpy>
   4407a:	b07f      	add	sp, #508	; 0x1fc
   4407c:	b002      	add	sp, #8
   4407e:	bdf0      	pop	{r4, r5, r6, r7, pc}

00044080 <atoi>:
   44080:	b598      	push	{r3, r4, r7, lr}
   44082:	2100      	movs	r1, #0
   44084:	4c11      	ldr	r4, [pc, #68]	; (440cc <atoi+0x4c>)
   44086:	e007      	b.n	44098 <atoi+0x18>
   44088:	eb03 01c1 	add.w	r1, r3, r1, lsl #3
   4408c:	1889      	adds	r1, r1, r2
   4408e:	f810 2f01 	ldrb.w	r2, [r0, #1]!
   44092:	3930      	subs	r1, #48	; 0x30
   44094:	e00f      	b.n	440b6 <atoi+0x36>
   44096:	1c40      	adds	r0, r0, #1
   44098:	7802      	ldrb	r2, [r0, #0]
   4409a:	1913      	adds	r3, r2, r4
   4409c:	785b      	ldrb	r3, [r3, #1]
   4409e:	091b      	lsrs	r3, r3, #4
   440a0:	d2f9      	bcs.n	44096 <atoi+0x16>
   440a2:	2a2d      	cmp	r2, #45	; 0x2d
   440a4:	f04f 0701 	mov.w	r7, #1
   440a8:	d003      	beq.n	440b2 <atoi+0x32>
   440aa:	2a2b      	cmp	r2, #43	; 0x2b
   440ac:	460f      	mov	r7, r1
   440ae:	d102      	bne.n	440b6 <atoi+0x36>
   440b0:	e7ff      	b.n	440b2 <atoi+0x32>
   440b2:	f810 2f01 	ldrb.w	r2, [r0, #1]!
   440b6:	1913      	adds	r3, r2, r4
   440b8:	785b      	ldrb	r3, [r3, #1]
   440ba:	08db      	lsrs	r3, r3, #3
   440bc:	ea4f 0341 	mov.w	r3, r1, lsl #1
   440c0:	d2e2      	bcs.n	44088 <atoi+0x8>
   440c2:	b107      	cbz	r7, 440c6 <atoi+0x46>
   440c4:	4249      	negs	r1, r1
   440c6:	4608      	mov	r0, r1
   440c8:	bd98      	pop	{r3, r4, r7, pc}
   440ca:	46c0      	nop			; (mov r8, r8)
   440cc:	00035120 	.word	0x00035120

000440d0 <__aeabi_uidiv>:
   440d0:	e92d4004 	push	{r2, lr}
   440d4:	e1b02001 	movs	r2, r1
   440d8:	0a00000b 	beq	4410c <div_by_zero>
   440dc:	e28fe001 	add	lr, pc, #1
   440e0:	e12fff1e 	bx	lr
   440e4:	fbb0 fef1 	udiv	lr, r0, r1
   440e8:	4778      	bx	pc
   440ea:	bf00      	nop
   440ec:	e002019e 	mul	r2, lr, r1
   440f0:	e0400002 	sub	r0, r0, r2
   440f4:	e1a0100e 	mov	r1, lr
   440f8:	e1a02000 	mov	r2, r0
   440fc:	e1a00001 	mov	r0, r1
   44100:	e1a01002 	mov	r1, r2
   44104:	e8bd4004 	pop	{r2, lr}
   44108:	e12fff1e 	bx	lr

0004410c <div_by_zero>:
   4410c:	e3500000 	cmp	r0, #0
   44110:	83e00000 	mvnhi	r0, #0
   44114:	fbfffed4 	blx	43c6e <__aeabi_idiv0>
   44118:	e8bd4004 	pop	{r2, lr}
   4411c:	e12fff1e 	bx	lr

00044120 <rtiCompare0Interrupt>:
   44120:	e92d500f 	push	{r0, r1, r2, r3, ip, lr}
   44124:	eef8ca10 	vmrs	ip, fpexc
   44128:	e92d1000 	stmfd	sp!, {ip}
   4412c:	eef1ca10 	vmrs	ip, fpscr
   44130:	e92d1000 	stmfd	sp!, {ip}
   44134:	ed2d0b10 	vpush	{d0-d7}
   44138:	e59f0028 	ldr	r0, [pc, #40]	; 44168 <rtiCompare0Interrupt+0x48>
   4413c:	e3a0c001 	mov	ip, #1
   44140:	e580c000 	str	ip, [r0]
   44144:	e3a00001 	mov	r0, #1
   44148:	ebfffe1c 	bl	439c0 <rtiNotification>
   4414c:	ecbd0b10 	vpop	{d0-d7}
   44150:	e8bd1000 	ldmfd	sp!, {ip}
   44154:	eee1ca10 	vmsr	fpscr, ip
   44158:	e8bd1000 	ldmfd	sp!, {ip}
   4415c:	eee8ca10 	vmsr	fpexc, ip
   44160:	e8bd500f 	pop	{r0, r1, r2, r3, ip, lr}
   44164:	e25ef004 	subs	pc, lr, #4
   44168:	fffffc88 	.word	0xfffffc88

0004416c <__TI_auto_init_nobinit_nopinit>:
   4416c:	b5b0      	push	{r4, r5, r7, lr}
   4416e:	4d0c      	ldr	r5, [pc, #48]	; (441a0 <__TI_auto_init_nobinit_nopinit+0x34>)
   44170:	480c      	ldr	r0, [pc, #48]	; (441a4 <__TI_auto_init_nobinit_nopinit+0x38>)
   44172:	42a8      	cmp	r0, r5
   44174:	d011      	beq.n	4419a <__TI_auto_init_nobinit_nopinit+0x2e>
   44176:	480c      	ldr	r0, [pc, #48]	; (441a8 <__TI_auto_init_nobinit_nopinit+0x3c>)
   44178:	4c0c      	ldr	r4, [pc, #48]	; (441ac <__TI_auto_init_nobinit_nopinit+0x40>)
   4417a:	42a0      	cmp	r0, r4
   4417c:	eba0 0004 	sub.w	r0, r0, r4
   44180:	d00b      	beq.n	4419a <__TI_auto_init_nobinit_nopinit+0x2e>
   44182:	3c08      	subs	r4, #8
   44184:	10c7      	asrs	r7, r0, #3
   44186:	f854 0f08 	ldr.w	r0, [r4, #8]!
   4418a:	7801      	ldrb	r1, [r0, #0]
   4418c:	f855 2021 	ldr.w	r2, [r5, r1, lsl #2]
   44190:	6861      	ldr	r1, [r4, #4]
   44192:	1c40      	adds	r0, r0, #1
   44194:	4790      	blx	r2
   44196:	1e7f      	subs	r7, r7, #1
   44198:	d1f5      	bne.n	44186 <__TI_auto_init_nobinit_nopinit+0x1a>
   4419a:	bf00      	nop
   4419c:	bf00      	nop
   4419e:	bdb0      	pop	{r4, r5, r7, pc}
   441a0:	0004db60 	.word	0x0004db60
   441a4:	0004db6c 	.word	0x0004db6c
   441a8:	0004db98 	.word	0x0004db98
   441ac:	0004db80 	.word	0x0004db80

000441b0 <_fcpy>:
   441b0:	b5f8      	push	{r3, r4, r5, r6, r7, lr}
   441b2:	4604      	mov	r4, r0
   441b4:	4617      	mov	r7, r2
   441b6:	460d      	mov	r5, r1
   441b8:	461e      	mov	r6, r3
   441ba:	f000 f8a1 	bl	44300 <strlen>
   441be:	463a      	mov	r2, r7
   441c0:	4631      	mov	r1, r6
   441c2:	1e53      	subs	r3, r2, #1
   441c4:	4415      	add	r5, r2
   441c6:	f1a5 0501 	sub.w	r5, r5, #1
   441ca:	d410      	bmi.n	441ee <_fcpy+0x3e>
   441cc:	1c5b      	adds	r3, r3, #1
   441ce:	2d00      	cmp	r5, #0
   441d0:	d403      	bmi.n	441da <_fcpy+0x2a>
   441d2:	42a8      	cmp	r0, r5
   441d4:	bfc8      	it	gt
   441d6:	5d66      	ldrbgt	r6, [r4, r5]
   441d8:	dc00      	bgt.n	441dc <_fcpy+0x2c>
   441da:	2630      	movs	r6, #48	; 0x30
   441dc:	680a      	ldr	r2, [r1, #0]
   441de:	1e5b      	subs	r3, r3, #1
   441e0:	f1a2 0701 	sub.w	r7, r2, #1
   441e4:	600f      	str	r7, [r1, #0]
   441e6:	f1a5 0501 	sub.w	r5, r5, #1
   441ea:	7016      	strb	r6, [r2, #0]
   441ec:	d1ef      	bne.n	441ce <_fcpy+0x1e>
   441ee:	bdf8      	pop	{r3, r4, r5, r6, r7, pc}

000441f0 <phantomInterrupt>:
   441f0:	e92d500f 	push	{r0, r1, r2, r3, ip, lr}
   441f4:	eef8ca10 	vmrs	ip, fpexc
   441f8:	e92d1000 	stmfd	sp!, {ip}
   441fc:	eef1ca10 	vmrs	ip, fpscr
   44200:	e92d1000 	stmfd	sp!, {ip}
   44204:	ed2d0b10 	vpush	{d0-d7}
   44208:	e3a00005 	mov	r0, #5
   4420c:	eb000056 	bl	4436c <handlePLLLockFail+0x14>
   44210:	ecbd0b10 	vpop	{d0-d7}
   44214:	e8bd1000 	ldmfd	sp!, {ip}
   44218:	eee1ca10 	vmsr	fpscr, ip
   4421c:	e8bd1000 	ldmfd	sp!, {ip}
   44220:	eee8ca10 	vmsr	fpexc, ip
   44224:	e8bd500f 	pop	{r0, r1, r2, r3, ip, lr}
   44228:	e25ef004 	subs	pc, lr, #4

0004422c <rand>:
   4422c:	4809      	ldr	r0, [pc, #36]	; (44254 <rand+0x28>)
   4422e:	b510      	push	{r4, lr}
   44230:	6800      	ldr	r0, [r0, #0]
   44232:	4780      	blx	r0
   44234:	4908      	ldr	r1, [pc, #32]	; (44258 <rand+0x2c>)
   44236:	4809      	ldr	r0, [pc, #36]	; (4425c <rand+0x30>)
   44238:	4b05      	ldr	r3, [pc, #20]	; (44250 <rand+0x24>)
   4423a:	680a      	ldr	r2, [r1, #0]
   4423c:	6800      	ldr	r0, [r0, #0]
   4423e:	f243 0439 	movw	r4, #12345	; 0x3039
   44242:	fb03 4402 	mla	r4, r3, r2, r4
   44246:	600c      	str	r4, [r1, #0]
   44248:	4780      	blx	r0
   4424a:	f3c4 400e 	ubfx	r0, r4, #16, #15
   4424e:	bd10      	pop	{r4, pc}
   44250:	41c64e6d 	.word	0x41c64e6d
   44254:	0800d768 	.word	0x0800d768
   44258:	0800d774 	.word	0x0800d774
   4425c:	0800d76c 	.word	0x0800d76c

00044260 <sqrt>:
   44260:	eeb5 0bc0 	vcmpe.f64	d0, #0.0
   44264:	eef1 fa10 	vmrs	APSR_nzcv, fpscr
   44268:	b508      	push	{r3, lr}
   4426a:	d207      	bcs.n	4427c <sqrt+0x1c>
   4426c:	f000 f86a 	bl	44344 <__aeabi_errno_addr>
   44270:	a204      	add	r2, pc, #16	; (adr r2, 44284 <sqrt+0x24>)
   44272:	2121      	movs	r1, #33	; 0x21
   44274:	6001      	str	r1, [r0, #0]
   44276:	ed92 0b00 	vldr	d0, [r2]
   4427a:	bd08      	pop	{r3, pc}
   4427c:	eeb1 0bc0 	vsqrt.f64	d0, d0
   44280:	bd08      	pop	{r3, pc}
   44282:	46c0      	nop			; (mov r8, r8)
   44284:	7ff80000 	.word	0x7ff80000
   44288:	00000000 	.word	0x00000000

0004428c <srand>:
   4428c:	4905      	ldr	r1, [pc, #20]	; (442a4 <srand+0x18>)
   4428e:	b510      	push	{r4, lr}
   44290:	6809      	ldr	r1, [r1, #0]
   44292:	4604      	mov	r4, r0
   44294:	4788      	blx	r1
   44296:	4805      	ldr	r0, [pc, #20]	; (442ac <srand+0x20>)
   44298:	4903      	ldr	r1, [pc, #12]	; (442a8 <srand+0x1c>)
   4429a:	6800      	ldr	r0, [r0, #0]
   4429c:	600c      	str	r4, [r1, #0]
   4429e:	4780      	blx	r0
   442a0:	bd10      	pop	{r4, pc}
   442a2:	46c0      	nop			; (mov r8, r8)
   442a4:	0800d768 	.word	0x0800d768
   442a8:	0800d774 	.word	0x0800d774
   442ac:	0800d76c 	.word	0x0800d76c

000442b0 <copysign>:
   442b0:	ec50 1b10 	vmov	r1, r0, d0
   442b4:	ec51 2b11 	vmov	r2, r1, d1
   442b8:	ec52 3b10 	vmov	r3, r2, d0
   442bc:	f020 4000 	bic.w	r0, r0, #2147483648	; 0x80000000
   442c0:	461a      	mov	r2, r3
   442c2:	f001 4100 	and.w	r1, r1, #2147483648	; 0x80000000
   442c6:	4301      	orrs	r1, r0
   442c8:	ec41 2b10 	vmov	d0, r2, r1
   442cc:	4770      	bx	lr

000442ce <memccpy>:
   442ce:	2b00      	cmp	r3, #0
   442d0:	b510      	push	{r4, lr}
   442d2:	dd08      	ble.n	442e6 <memccpy+0x18>
   442d4:	1e49      	subs	r1, r1, #1
   442d6:	f811 4f01 	ldrb.w	r4, [r1, #1]!
   442da:	f800 4b01 	strb.w	r4, [r0], #1
   442de:	42a2      	cmp	r2, r4
   442e0:	d002      	beq.n	442e8 <memccpy+0x1a>
   442e2:	1e5b      	subs	r3, r3, #1
   442e4:	d1f7      	bne.n	442d6 <memccpy+0x8>
   442e6:	2000      	movs	r0, #0
   442e8:	bd10      	pop	{r4, pc}

000442ea <strchr>:
   442ea:	b2ca      	uxtb	r2, r1
   442ec:	7801      	ldrb	r1, [r0, #0]
   442ee:	e001      	b.n	442f4 <strchr+0xa>
   442f0:	f810 1f01 	ldrb.w	r1, [r0, #1]!
   442f4:	428a      	cmp	r2, r1
   442f6:	d002      	beq.n	442fe <strchr+0x14>
   442f8:	2900      	cmp	r1, #0
   442fa:	d1f9      	bne.n	442f0 <strchr+0x6>
   442fc:	2000      	movs	r0, #0
   442fe:	4770      	bx	lr

00044300 <strlen>:
   44300:	1e42      	subs	r2, r0, #1
   44302:	f04f 31ff 	mov.w	r1, #4294967295	; 0xffffffff
   44306:	f812 0f01 	ldrb.w	r0, [r2, #1]!
   4430a:	2800      	cmp	r0, #0
   4430c:	f101 0101 	add.w	r1, r1, #1
   44310:	d1f9      	bne.n	44306 <strlen+0x6>
   44312:	4608      	mov	r0, r1
   44314:	4770      	bx	lr

00044316 <wcslen>:
   44316:	4601      	mov	r1, r0
   44318:	e000      	b.n	4431c <wcslen+0x6>
   4431a:	1c89      	adds	r1, r1, #2
   4431c:	880a      	ldrh	r2, [r1, #0]
   4431e:	2a00      	cmp	r2, #0
   44320:	d1fb      	bne.n	4431a <wcslen+0x4>
   44322:	1a09      	subs	r1, r1, r0
   44324:	1048      	asrs	r0, r1, #1
   44326:	4770      	bx	lr

00044328 <__TI_decompress_none>:
   44328:	4603      	mov	r3, r0
   4432a:	f8d3 2003 	ldr.w	r2, [r3, #3]
   4432e:	4608      	mov	r0, r1
   44330:	1dd9      	adds	r1, r3, #7
   44332:	f7ff bc4e 	b.w	43bd2 <__aeabi_memcpy>

00044336 <__TI_zero_init>:
   44336:	f8d0 2003 	ldr.w	r2, [r0, #3]
   4433a:	4608      	mov	r0, r1
   4433c:	2100      	movs	r1, #0
   4433e:	f7ff bd1c 	b.w	43d7a <memset>
	...

00044344 <__aeabi_errno_addr>:
   44344:	4800      	ldr	r0, [pc, #0]	; (44348 <__aeabi_errno_addr+0x4>)
   44346:	4770      	bx	lr
   44348:	0800d770 	.word	0x0800d770

0004434c <_outc>:
   4434c:	f000 b80a 	b.w	44364 <handlePLLLockFail+0xc>

00044350 <_outs>:
   44350:	f000 b804 	b.w	4435c <handlePLLLockFail+0x4>

00044354 <abort>:
   44354:	bf00      	nop
   44356:	e7fe      	b.n	44356 <abort+0x2>

00044358 <handlePLLLockFail>:
   44358:	eafffffe 	b	44358 <handlePLLLockFail>
   4435c:	f8df f000 	ldr.w	pc, [pc]	; 44360 <handlePLLLockFail+0x8>
   44360:	0004160c 	.word	0x0004160c
   44364:	f8df f000 	ldr.w	pc, [pc]	; 44368 <handlePLLLockFail+0x10>
   44368:	0004168c 	.word	0x0004168c
   4436c:	e51ff004 	ldr	pc, [pc, #-4]	; 44370 <handlePLLLockFail+0x18>
   44370:	00002000 	.word	0x00002000

Disassembly of section .TI.bound:myrestore:

00002000 <myrestore>:
    2000:	e92d4008 	push	{r3, lr}
    2004:	e58d0000 	str	r0, [sp]
    2008:	e59dc000 	ldr	ip, [sp]
    200c:	e35c0000 	cmp	ip, #0
    2010:	1a00009c 	bne	2288 <myrestore+0x288>
    2014:	e28f00d8 	add	r0, pc, #216	; 0xd8
    2018:	fa0107ab 	blx	43ecc <printf>
    201c:	ea000097 	b	2280 <myrestore+0x280>
    2020:	e59dc000 	ldr	ip, [sp]
    2024:	e35c0001 	cmp	ip, #1
    2028:	1a000092 	bne	2278 <myrestore+0x278>
    202c:	e28f00e8 	add	r0, pc, #232	; 0xe8
    2030:	fa0107a5 	blx	43ecc <printf>
    2034:	ea000091 	b	2280 <myrestore+0x280>
    2038:	e59dc000 	ldr	ip, [sp]
    203c:	e35c0002 	cmp	ip, #2
    2040:	1a00008a 	bne	2270 <myrestore+0x270>
    2044:	e28f00fc 	add	r0, pc, #252	; 0xfc
    2048:	fa01079f 	blx	43ecc <printf>
    204c:	ea00008b 	b	2280 <myrestore+0x280>
    2050:	e59dc000 	ldr	ip, [sp]
    2054:	e35c0003 	cmp	ip, #3
    2058:	1a000082 	bne	2268 <myrestore+0x268>
    205c:	e28f0f45 	add	r0, pc, #276	; 0x114
    2060:	fa010799 	blx	43ecc <printf>
    2064:	ea000085 	b	2280 <myrestore+0x280>
    2068:	e59dc000 	ldr	ip, [sp]
    206c:	e35c0004 	cmp	ip, #4
    2070:	1a00007a 	bne	2260 <myrestore+0x260>
    2074:	e28f0f49 	add	r0, pc, #292	; 0x124
    2078:	fa010793 	blx	43ecc <printf>
    207c:	ea00007f 	b	2280 <myrestore+0x280>
    2080:	e59dc000 	ldr	ip, [sp]
    2084:	e35c0005 	cmp	ip, #5
    2088:	1a000072 	bne	2258 <myrestore+0x258>
    208c:	e28f0f4e 	add	r0, pc, #312	; 0x138
    2090:	fa01078d 	blx	43ecc <printf>
    2094:	ea000079 	b	2280 <myrestore+0x280>
    2098:	e59dc000 	ldr	ip, [sp]
    209c:	e35c0006 	cmp	ip, #6
    20a0:	1a00006a 	bne	2250 <myrestore+0x250>
    20a4:	e28f0f52 	add	r0, pc, #328	; 0x148
    20a8:	fa010787 	blx	43ecc <printf>
    20ac:	ea000073 	b	2280 <myrestore+0x280>
    20b0:	e28f0f57 	add	r0, pc, #348	; 0x15c
    20b4:	fa010784 	blx	43ecc <printf>
    20b8:	e28f0e17 	add	r0, pc, #368	; 0x170
    20bc:	fa010782 	blx	43ecc <printf>
    20c0:	e3a01206 	mov	r1, #1610612736	; 0x60000000
    20c4:	e3a00302 	mov	r0, #134217728	; 0x8000000
    20c8:	e3a02a01 	mov	r2, #4096	; 0x1000
    20cc:	fb0106bf 	blx	43bd2 <__aeabi_memcpy>
    20d0:	e3a09a06 	mov	r9, #24576	; 0x6000
    20d4:	e1a09809 	lsl	r9, r9, #16
    20d8:	e2899a01 	add	r9, r9, #4096	; 0x1000
    20dc:	e2499028 	sub	r9, r9, #40	; 0x28
    20e0:	e8b90080 	ldm	r9!, {r7}
    20e4:	e129f007 	msr	CPSR_fc, r7
    20e8:	e8b9607f 	ldm	r9!, {r0, r1, r2, r3, r4, r5, r6, sp, lr}
    20ec:	ea00faeb 	b	40ca0 <loop0>
    20f0:	ea000054 	b	2248 <myrestore+0x248>
    20f4:	64657465 	.word	0x64657465
    20f8:	63742064 	.word	0x63742064
    20fc:	75653a63 	.word	0x75653a63
    2100:	7573746f 	.word	0x7573746f
    2104:	6d5f6461 	.word	0x6d5f6461
    2108:	626f7274 	.word	0x626f7274
    210c:	21726563 	.word	0x21726563
    2110:	6f766572 	.word	0x6f766572
    2114:	79210d0a 	.word	0x79210d0a
    2118:	00a00000 	.word	0x00a00000
    211c:	64657465 	.word	0x64657465
    2120:	63742064 	.word	0x63742064
    2124:	75653a63 	.word	0x75653a63
    2128:	7573746f 	.word	0x7573746f
    212c:	6d5f756e 	.word	0x6d5f756e
    2130:	64656645 	.word	0x64656645
    2134:	6e747279 	.word	0x6e747279
    2138:	21726563 	.word	0x21726563
    213c:	6f766572 	.word	0x6f766572
    2140:	79210d0a 	.word	0x79210d0a
    2144:	00a00000 	.word	0x00a00000
    2148:	64657465 	.word	0x64657465
    214c:	63742064 	.word	0x63742064
    2150:	75653a63 	.word	0x75653a63
    2154:	7573746f 	.word	0x7573746f
    2158:	6d5f7068 	.word	0x6d5f7068
    215c:	616e746f 	.word	0x616e746f
    2160:	6d496e74 	.word	0x6d496e74
    2164:	65727275 	.word	0x65727275
    2168:	70742172 	.word	0x70742172
    216c:	65636f76 	.word	0x65636f76
    2170:	65727921 	.word	0x65727921
    2174:	0d0a0000 	.word	0x0d0a0000
    2178:	64657465 	.word	0x64657465
    217c:	63742064 	.word	0x63742064
    2180:	75653a63 	.word	0x75653a63
    2184:	7573746f 	.word	0x7573746f
    2188:	6d5f7376 	.word	0x6d5f7376
    218c:	63456e74 	.word	0x63456e74
    2190:	72792172 	.word	0x72792172
    2194:	65636f76 	.word	0x65636f76
    2198:	65727921 	.word	0x65727921
    219c:	0d0a0000 	.word	0x0d0a0000
    21a0:	64657465 	.word	0x64657465
    21a4:	63742064 	.word	0x63742064
    21a8:	75653a63 	.word	0x75653a63
    21ac:	7573746f 	.word	0x7573746f
    21b0:	6d5f7072 	.word	0x6d5f7072
    21b4:	65666574 	.word	0x65666574
    21b8:	6368456e 	.word	0x6368456e
    21bc:	74727921 	.word	0x74727921
    21c0:	7265636f 	.word	0x7265636f
    21c4:	76657279 	.word	0x76657279
    21c8:	210d0a00 	.word	0x210d0a00
    21cc:	64657465 	.word	0x64657465
    21d0:	63742064 	.word	0x63742064
    21d4:	75653a70 	.word	0x75653a70
    21d8:	68616e74 	.word	0x68616e74
    21dc:	6f6d496e 	.word	0x6f6d496e
    21e0:	74657272 	.word	0x74657272
    21e4:	75707421 	.word	0x75707421
    21e8:	7265636f 	.word	0x7265636f
    21ec:	76657279 	.word	0x76657279
    21f0:	210d0a00 	.word	0x210d0a00
    21f4:	64657465 	.word	0x64657465
    21f8:	63742064 	.word	0x63742064
    21fc:	75653a74 	.word	0x75653a74
    2200:	696d656f 	.word	0x696d656f
    2204:	75742172 	.word	0x75742172
    2208:	65636f76 	.word	0x65636f76
    220c:	65727921 	.word	0x65727921
    2210:	0d0a0000 	.word	0x0d0a0000
    2214:	64657465 	.word	0x64657465
    2218:	63742064 	.word	0x63742064
    221c:	75653a6e 	.word	0x75653a6e
    2220:	6f6e6521 	.word	0x6f6e6521
    2224:	7265636f 	.word	0x7265636f
    2228:	76657279 	.word	0x76657279
    222c:	210d0a00 	.word	0x210d0a00
    2230:	63686563 	.word	0x63686563
    2234:	6b706f69 	.word	0x6b706f69
    2238:	6e742072 	.word	0x6e742072
    223c:	65636f76 	.word	0x65636f76
    2240:	65727972 	.word	0x65727972
    2244:	0d0a0000 	.word	0x0d0a0000
    2248:	e51ff004 	ldr	pc, [pc, #-4]	; 224c <myrestore+0x24c>
    224c:	000020f0 	.word	0x000020f0
    2250:	e51ff004 	ldr	pc, [pc, #-4]	; 2254 <myrestore+0x254>
    2254:	000020b0 	.word	0x000020b0
    2258:	e51ff004 	ldr	pc, [pc, #-4]	; 225c <myrestore+0x25c>
    225c:	00002098 	.word	0x00002098
    2260:	e51ff004 	ldr	pc, [pc, #-4]	; 2264 <myrestore+0x264>
    2264:	00002080 	.word	0x00002080
    2268:	e51ff004 	ldr	pc, [pc, #-4]	; 226c <myrestore+0x26c>
    226c:	00002068 	.word	0x00002068
    2270:	e51ff004 	ldr	pc, [pc, #-4]	; 2274 <myrestore+0x274>
    2274:	00002050 	.word	0x00002050
    2278:	e51ff004 	ldr	pc, [pc, #-4]	; 227c <myrestore+0x27c>
    227c:	00002038 	.word	0x00002038
    2280:	e51ff004 	ldr	pc, [pc, #-4]	; 2284 <myrestore+0x284>
    2284:	000020b8 	.word	0x000020b8
    2288:	e51ff004 	ldr	pc, [pc, #-4]	; 228c <myrestore+0x28c>
    228c:	00002020 	.word	0x00002020
